
Flight assistant.elf:     file format elf32-avr

Sections:
Idx Name          Size      VMA       LMA       File off  Algn
  0 .data         000000ae  00800100  00001818  000018ac  2**0
                  CONTENTS, ALLOC, LOAD, DATA
  1 .text         00001818  00000000  00000000  00000094  2**1
                  CONTENTS, ALLOC, LOAD, READONLY, CODE
  2 .bss          00000149  008001ae  008001ae  0000195a  2**0
                  ALLOC
  3 .comment      00000030  00000000  00000000  0000195a  2**0
                  CONTENTS, READONLY
  4 .note.gnu.avr.deviceinfo 00000040  00000000  00000000  0000198c  2**2
                  CONTENTS, READONLY
  5 .debug_aranges 000001f0  00000000  00000000  000019cc  2**0
                  CONTENTS, READONLY, DEBUGGING
  6 .debug_info   00002942  00000000  00000000  00001bbc  2**0
                  CONTENTS, READONLY, DEBUGGING
  7 .debug_abbrev 000012d2  00000000  00000000  000044fe  2**0
                  CONTENTS, READONLY, DEBUGGING
  8 .debug_line   00001413  00000000  00000000  000057d0  2**0
                  CONTENTS, READONLY, DEBUGGING
  9 .debug_frame  00000588  00000000  00000000  00006be4  2**2
                  CONTENTS, READONLY, DEBUGGING
 10 .debug_str    000009a6  00000000  00000000  0000716c  2**0
                  CONTENTS, READONLY, DEBUGGING
 11 .debug_loc    00001e06  00000000  00000000  00007b12  2**0
                  CONTENTS, READONLY, DEBUGGING
 12 .debug_ranges 000001d8  00000000  00000000  00009918  2**0
                  CONTENTS, READONLY, DEBUGGING

Disassembly of section .text:

00000000 <__vectors>:
       0:	0c 94 6e 00 	jmp	0xdc	; 0xdc <__ctors_end>
       4:	0c 94 8b 00 	jmp	0x116	; 0x116 <__bad_interrupt>
       8:	0c 94 8b 00 	jmp	0x116	; 0x116 <__bad_interrupt>
       c:	0c 94 8b 00 	jmp	0x116	; 0x116 <__bad_interrupt>
      10:	0c 94 8b 00 	jmp	0x116	; 0x116 <__bad_interrupt>
      14:	0c 94 8b 00 	jmp	0x116	; 0x116 <__bad_interrupt>
      18:	0c 94 8b 00 	jmp	0x116	; 0x116 <__bad_interrupt>
      1c:	0c 94 8b 00 	jmp	0x116	; 0x116 <__bad_interrupt>
      20:	0c 94 8b 00 	jmp	0x116	; 0x116 <__bad_interrupt>
      24:	0c 94 8b 00 	jmp	0x116	; 0x116 <__bad_interrupt>
      28:	0c 94 8b 00 	jmp	0x116	; 0x116 <__bad_interrupt>
      2c:	0c 94 8b 00 	jmp	0x116	; 0x116 <__bad_interrupt>
      30:	0c 94 8b 00 	jmp	0x116	; 0x116 <__bad_interrupt>
      34:	0c 94 8b 00 	jmp	0x116	; 0x116 <__bad_interrupt>
      38:	0c 94 8b 00 	jmp	0x116	; 0x116 <__bad_interrupt>
      3c:	0c 94 8b 00 	jmp	0x116	; 0x116 <__bad_interrupt>
      40:	0c 94 8b 00 	jmp	0x116	; 0x116 <__bad_interrupt>
      44:	0c 94 8b 00 	jmp	0x116	; 0x116 <__bad_interrupt>
      48:	0c 94 d9 09 	jmp	0x13b2	; 0x13b2 <__vector_18>
      4c:	0c 94 8b 00 	jmp	0x116	; 0x116 <__bad_interrupt>
      50:	0c 94 b0 09 	jmp	0x1360	; 0x1360 <__vector_20>
      54:	0c 94 8b 00 	jmp	0x116	; 0x116 <__bad_interrupt>
      58:	0c 94 8b 00 	jmp	0x116	; 0x116 <__bad_interrupt>
      5c:	0c 94 8b 00 	jmp	0x116	; 0x116 <__bad_interrupt>
      60:	0c 94 48 05 	jmp	0xa90	; 0xa90 <__vector_24>
      64:	0c 94 8b 00 	jmp	0x116	; 0x116 <__bad_interrupt>
      68:	0c 94 8b 00 	jmp	0x116	; 0x116 <__bad_interrupt>
      6c:	0c 94 8b 00 	jmp	0x116	; 0x116 <__bad_interrupt>
      70:	0c 94 8b 00 	jmp	0x116	; 0x116 <__bad_interrupt>
      74:	0c 94 8b 00 	jmp	0x116	; 0x116 <__bad_interrupt>
      78:	0c 94 8b 00 	jmp	0x116	; 0x116 <__bad_interrupt>
      7c:	0c 94 8b 00 	jmp	0x116	; 0x116 <__bad_interrupt>
      80:	0c 94 8b 00 	jmp	0x116	; 0x116 <__bad_interrupt>
      84:	0c 94 8b 00 	jmp	0x116	; 0x116 <__bad_interrupt>
      88:	0c 94 8b 00 	jmp	0x116	; 0x116 <__bad_interrupt>
      8c:	0c 94 8b 00 	jmp	0x116	; 0x116 <__bad_interrupt>
      90:	0c 94 8b 00 	jmp	0x116	; 0x116 <__bad_interrupt>
      94:	0c 94 8b 00 	jmp	0x116	; 0x116 <__bad_interrupt>
      98:	0c 94 8b 00 	jmp	0x116	; 0x116 <__bad_interrupt>
      9c:	0c 94 8b 00 	jmp	0x116	; 0x116 <__bad_interrupt>
      a0:	0c 94 8b 00 	jmp	0x116	; 0x116 <__bad_interrupt>
      a4:	0c 94 8b 00 	jmp	0x116	; 0x116 <__bad_interrupt>
      a8:	0c 94 8b 00 	jmp	0x116	; 0x116 <__bad_interrupt>
      ac:	0c 94 8b 00 	jmp	0x116	; 0x116 <__bad_interrupt>
      b0:	0c 94 8b 00 	jmp	0x116	; 0x116 <__bad_interrupt>
      b4:	75 05       	cpc	r23, r5
      b6:	89 05       	cpc	r24, r9
      b8:	a5 05       	cpc	r26, r5
      ba:	15 06       	cpc	r1, r21
      bc:	2b 06       	cpc	r2, r27
      be:	69 06       	cpc	r6, r25
      c0:	bc 06       	cpc	r11, r28
      c2:	ee 06       	cpc	r14, r30
      c4:	41 07       	cpc	r20, r17

000000c6 <ER_commands>:
      c6:	45 52 00 00 00 00 00 00 00 00 00 00 00 00 00 00     ER..............
      d6:	00 00 00 00 d2 04                                   ......

000000dc <__ctors_end>:
      dc:	11 24       	eor	r1, r1
      de:	1f be       	out	0x3f, r1	; 63
      e0:	cf ef       	ldi	r28, 0xFF	; 255
      e2:	d8 e0       	ldi	r29, 0x08	; 8
      e4:	de bf       	out	0x3e, r29	; 62
      e6:	cd bf       	out	0x3d, r28	; 61

000000e8 <__do_copy_data>:
      e8:	11 e0       	ldi	r17, 0x01	; 1
      ea:	a0 e0       	ldi	r26, 0x00	; 0
      ec:	b1 e0       	ldi	r27, 0x01	; 1
      ee:	e8 e1       	ldi	r30, 0x18	; 24
      f0:	f8 e1       	ldi	r31, 0x18	; 24
      f2:	02 c0       	rjmp	.+4      	; 0xf8 <__do_copy_data+0x10>
      f4:	05 90       	lpm	r0, Z+
      f6:	0d 92       	st	X+, r0
      f8:	ae 3a       	cpi	r26, 0xAE	; 174
      fa:	b1 07       	cpc	r27, r17
      fc:	d9 f7       	brne	.-10     	; 0xf4 <__do_copy_data+0xc>

000000fe <__do_clear_bss>:
      fe:	22 e0       	ldi	r18, 0x02	; 2
     100:	ae ea       	ldi	r26, 0xAE	; 174
     102:	b1 e0       	ldi	r27, 0x01	; 1
     104:	01 c0       	rjmp	.+2      	; 0x108 <.do_clear_bss_start>

00000106 <.do_clear_bss_loop>:
     106:	1d 92       	st	X+, r1

00000108 <.do_clear_bss_start>:
     108:	a7 3f       	cpi	r26, 0xF7	; 247
     10a:	b2 07       	cpc	r27, r18
     10c:	e1 f7       	brne	.-8      	; 0x106 <.do_clear_bss_loop>
     10e:	0e 94 26 01 	call	0x24c	; 0x24c <main>
     112:	0c 94 0a 0c 	jmp	0x1814	; 0x1814 <_exit>

00000116 <__bad_interrupt>:
     116:	0c 94 00 00 	jmp	0	; 0x0 <__vectors>

0000011a <I2C_start>:
	I2C_start();
	I2C_write(SLA);
	I2C_write(adr);
	while (len--) I2C_write(*buf++);
	I2C_stop();
}
     11a:	84 ea       	ldi	r24, 0xA4	; 164
     11c:	80 93 bc 00 	sts	0x00BC, r24	; 0x8000bc <__TEXT_REGION_LENGTH__+0x7e00bc>
     120:	ec eb       	ldi	r30, 0xBC	; 188
     122:	f0 e0       	ldi	r31, 0x00	; 0
     124:	80 81       	ld	r24, Z
     126:	88 23       	and	r24, r24
     128:	ec f7       	brge	.-6      	; 0x124 <I2C_start+0xa>
     12a:	08 95       	ret

0000012c <I2C_stop>:
     12c:	84 e9       	ldi	r24, 0x94	; 148
     12e:	80 93 bc 00 	sts	0x00BC, r24	; 0x8000bc <__TEXT_REGION_LENGTH__+0x7e00bc>
     132:	ec eb       	ldi	r30, 0xBC	; 188
     134:	f0 e0       	ldi	r31, 0x00	; 0
     136:	80 81       	ld	r24, Z
     138:	84 fd       	sbrc	r24, 4
     13a:	fd cf       	rjmp	.-6      	; 0x136 <I2C_stop+0xa>
     13c:	08 95       	ret

0000013e <I2C_write>:
     13e:	80 93 bb 00 	sts	0x00BB, r24	; 0x8000bb <__TEXT_REGION_LENGTH__+0x7e00bb>
     142:	84 e8       	ldi	r24, 0x84	; 132
     144:	80 93 bc 00 	sts	0x00BC, r24	; 0x8000bc <__TEXT_REGION_LENGTH__+0x7e00bc>
     148:	ec eb       	ldi	r30, 0xBC	; 188
     14a:	f0 e0       	ldi	r31, 0x00	; 0
     14c:	80 81       	ld	r24, Z
     14e:	88 23       	and	r24, r24
     150:	ec f7       	brge	.-6      	; 0x14c <I2C_write+0xe>
     152:	08 95       	ret

00000154 <I2C_read>:
     154:	20 e4       	ldi	r18, 0x40	; 64
     156:	82 9f       	mul	r24, r18
     158:	c0 01       	movw	r24, r0
     15a:	11 24       	eor	r1, r1
     15c:	84 68       	ori	r24, 0x84	; 132
     15e:	80 93 bc 00 	sts	0x00BC, r24	; 0x8000bc <__TEXT_REGION_LENGTH__+0x7e00bc>
     162:	ec eb       	ldi	r30, 0xBC	; 188
     164:	f0 e0       	ldi	r31, 0x00	; 0
     166:	80 81       	ld	r24, Z
     168:	88 23       	and	r24, r24
     16a:	ec f7       	brge	.-6      	; 0x166 <I2C_read+0x12>
     16c:	80 91 bb 00 	lds	r24, 0x00BB	; 0x8000bb <__TEXT_REGION_LENGTH__+0x7e00bb>
     170:	08 95       	ret

00000172 <I2C_write_byte>:

void I2C_write_byte(uint8_t SLA, uint8_t adr, uint8_t byte){
     172:	1f 93       	push	r17
     174:	cf 93       	push	r28
     176:	df 93       	push	r29
     178:	18 2f       	mov	r17, r24
     17a:	d6 2f       	mov	r29, r22
     17c:	c4 2f       	mov	r28, r20
	SLA = (SLA<<1);
	I2C_start();
     17e:	0e 94 8d 00 	call	0x11a	; 0x11a <I2C_start>
	I2C_write(SLA);
     182:	81 2f       	mov	r24, r17
     184:	88 0f       	add	r24, r24
     186:	0e 94 9f 00 	call	0x13e	; 0x13e <I2C_write>
	I2C_write(adr);
     18a:	8d 2f       	mov	r24, r29
     18c:	0e 94 9f 00 	call	0x13e	; 0x13e <I2C_write>
	I2C_write(byte);
     190:	8c 2f       	mov	r24, r28
     192:	0e 94 9f 00 	call	0x13e	; 0x13e <I2C_write>
	I2C_stop();
     196:	0e 94 96 00 	call	0x12c	; 0x12c <I2C_stop>
}
     19a:	df 91       	pop	r29
     19c:	cf 91       	pop	r28
     19e:	1f 91       	pop	r17
     1a0:	08 95       	ret

000001a2 <I2C_read_byte>:

uint8_t I2C_read_byte(uint8_t SLA, uint8_t adr){
     1a2:	cf 93       	push	r28
     1a4:	df 93       	push	r29
     1a6:	d6 2f       	mov	r29, r22
	SLA = (SLA<<1);
     1a8:	c8 2f       	mov	r28, r24
     1aa:	cc 0f       	add	r28, r28
	uint8_t byte;
	I2C_start();
     1ac:	0e 94 8d 00 	call	0x11a	; 0x11a <I2C_start>
	I2C_write(SLA);
     1b0:	8c 2f       	mov	r24, r28
     1b2:	0e 94 9f 00 	call	0x13e	; 0x13e <I2C_write>
	I2C_write(adr);
     1b6:	8d 2f       	mov	r24, r29
     1b8:	0e 94 9f 00 	call	0x13e	; 0x13e <I2C_write>
	I2C_start();
     1bc:	0e 94 8d 00 	call	0x11a	; 0x11a <I2C_start>
	I2C_write(SLA + 1);
     1c0:	81 e0       	ldi	r24, 0x01	; 1
     1c2:	8c 0f       	add	r24, r28
     1c4:	0e 94 9f 00 	call	0x13e	; 0x13e <I2C_write>
	byte = I2C_read(NACK);
     1c8:	80 e0       	ldi	r24, 0x00	; 0
     1ca:	0e 94 aa 00 	call	0x154	; 0x154 <I2C_read>
     1ce:	c8 2f       	mov	r28, r24
	I2C_stop();
     1d0:	0e 94 96 00 	call	0x12c	; 0x12c <I2C_stop>
	return byte;
}
     1d4:	8c 2f       	mov	r24, r28
     1d6:	df 91       	pop	r29
     1d8:	cf 91       	pop	r28
     1da:	08 95       	ret

000001dc <I2C_read_buf>:


void I2C_read_buf(uint8_t SLA, uint8_t adr, uint8_t len, uint8_t *buf) {
     1dc:	ef 92       	push	r14
     1de:	ff 92       	push	r15
     1e0:	0f 93       	push	r16
     1e2:	1f 93       	push	r17
     1e4:	cf 93       	push	r28
     1e6:	df 93       	push	r29
     1e8:	16 2f       	mov	r17, r22
     1ea:	d4 2f       	mov	r29, r20
     1ec:	e2 2e       	mov	r14, r18
     1ee:	f3 2e       	mov	r15, r19
	SLA = (SLA<<1);
     1f0:	c8 2f       	mov	r28, r24
     1f2:	cc 0f       	add	r28, r28
	I2C_start();
     1f4:	0e 94 8d 00 	call	0x11a	; 0x11a <I2C_start>
	I2C_write(SLA);
     1f8:	8c 2f       	mov	r24, r28
     1fa:	0e 94 9f 00 	call	0x13e	; 0x13e <I2C_write>
	I2C_write(adr);
     1fe:	81 2f       	mov	r24, r17
     200:	0e 94 9f 00 	call	0x13e	; 0x13e <I2C_write>
	I2C_start();
     204:	0e 94 8d 00 	call	0x11a	; 0x11a <I2C_start>
	I2C_write(SLA + 1);
     208:	81 e0       	ldi	r24, 0x01	; 1
     20a:	8c 0f       	add	r24, r28
     20c:	0e 94 9f 00 	call	0x13e	; 0x13e <I2C_write>
	while (len--) *buf++ = I2C_read( len ? ACK : NACK );
     210:	cf ef       	ldi	r28, 0xFF	; 255
     212:	cd 0f       	add	r28, r29
     214:	dd 23       	and	r29, r29
     216:	89 f0       	breq	.+34     	; 0x23a <I2C_read_buf+0x5e>
     218:	0e 2d       	mov	r16, r14
     21a:	1f 2d       	mov	r17, r15
     21c:	d1 e0       	ldi	r29, 0x01	; 1
     21e:	f1 2c       	mov	r15, r1
     220:	8d 2f       	mov	r24, r29
     222:	c1 11       	cpse	r28, r1
     224:	01 c0       	rjmp	.+2      	; 0x228 <I2C_read_buf+0x4c>
     226:	8f 2d       	mov	r24, r15
     228:	0e 94 aa 00 	call	0x154	; 0x154 <I2C_read>
     22c:	f8 01       	movw	r30, r16
     22e:	81 93       	st	Z+, r24
     230:	8f 01       	movw	r16, r30
     232:	8c 2f       	mov	r24, r28
     234:	c1 50       	subi	r28, 0x01	; 1
     236:	81 11       	cpse	r24, r1
     238:	f3 cf       	rjmp	.-26     	; 0x220 <I2C_read_buf+0x44>
	I2C_stop();
     23a:	0e 94 96 00 	call	0x12c	; 0x12c <I2C_stop>
}
     23e:	df 91       	pop	r29
     240:	cf 91       	pop	r28
     242:	1f 91       	pop	r17
     244:	0f 91       	pop	r16
     246:	ff 90       	pop	r15
     248:	ef 90       	pop	r14
     24a:	08 95       	ret

0000024c <main>:
#define LED_TGL PORTB ^=  (1<<PB5)

uint8_t test;

int main(void)
{
     24c:	cf 93       	push	r28
     24e:	df 93       	push	r29
     250:	cd b7       	in	r28, 0x3d	; 61
     252:	de b7       	in	r29, 0x3e	; 62
     254:	28 97       	sbiw	r28, 0x08	; 8
     256:	0f b6       	in	r0, 0x3f	; 63
     258:	f8 94       	cli
     25a:	de bf       	out	0x3e, r29	; 62
     25c:	0f be       	out	0x3f, r0	; 63
     25e:	cd bf       	out	0x3d, r28	; 61
//	InitTWI();
	DDRB = (1<<PB5);
     260:	80 e2       	ldi	r24, 0x20	; 32
     262:	84 b9       	out	0x04, r24	; 4

		TWSR0 = 0x00;
     264:	10 92 b9 00 	sts	0x00B9, r1	; 0x8000b9 <__TEXT_REGION_LENGTH__+0x7e00b9>
		TWBR0 = 0x0C;
     268:	8c e0       	ldi	r24, 0x0C	; 12
     26a:	80 93 b8 00 	sts	0x00B8, r24	; 0x8000b8 <__TEXT_REGION_LENGTH__+0x7e00b8>
		//enable TWI
		TWCR0 = (1<<TWEN);
     26e:	84 e0       	ldi	r24, 0x04	; 4
     270:	80 93 bc 00 	sts	0x00BC, r24	; 0x8000bc <__TEXT_REGION_LENGTH__+0x7e00bc>

	test = I2C_read_byte(0x68, 0x75);
     274:	65 e7       	ldi	r22, 0x75	; 117
     276:	88 e6       	ldi	r24, 0x68	; 104
     278:	0e 94 d1 00 	call	0x1a2	; 0x1a2 <I2C_read_byte>
	test = test & 0b01111110;
     27c:	8e 77       	andi	r24, 0x7E	; 126
     27e:	80 93 b2 01 	sts	0x01B2, r24	; 0x8001b2 <test>


	InitUartCOM();
     282:	0e 94 64 07 	call	0xec8	; 0xec8 <InitUartCOM>
	sei();
     286:	78 94       	sei

	SendLine("Uart dziala");
     288:	80 e0       	ldi	r24, 0x00	; 0
     28a:	91 e0       	ldi	r25, 0x01	; 1
     28c:	0e 94 99 07 	call	0xf32	; 0xf32 <SendLine>

	SendStringUint("Wartoœæ = ", test);
     290:	60 91 b2 01 	lds	r22, 0x01B2	; 0x8001b2 <test>
     294:	70 e0       	ldi	r23, 0x00	; 0
     296:	8c e0       	ldi	r24, 0x0C	; 12
     298:	91 e0       	ldi	r25, 0x01	; 1
     29a:	0e 94 51 09 	call	0x12a2	; 0x12a2 <SendStringUint>

	float dummy1, dummy2;

	CalibrateMPU6050(&dummy1, &dummy2);
     29e:	be 01       	movw	r22, r28
     2a0:	6b 5f       	subi	r22, 0xFB	; 251
     2a2:	7f 4f       	sbci	r23, 0xFF	; 255
     2a4:	ce 01       	movw	r24, r28
     2a6:	01 96       	adiw	r24, 0x01	; 1
     2a8:	0e 94 59 01 	call	0x2b2	; 0x2b2 <CalibrateMPU6050>

    while (1) 
    {
		CheckRxBuffor();
     2ac:	0e 94 5e 09 	call	0x12bc	; 0x12bc <CheckRxBuffor>
     2b0:	fd cf       	rjmp	.-6      	; 0x2ac <main+0x60>

000002b2 <CalibrateMPU6050>:
#include "MPU6050.h"
#include "MPU6050_registers.h"
#include "Uart.h"

void CalibrateMPU6050(float * dest1, float * dest2)
{
     2b2:	2f 92       	push	r2
     2b4:	3f 92       	push	r3
     2b6:	4f 92       	push	r4
     2b8:	5f 92       	push	r5
     2ba:	6f 92       	push	r6
     2bc:	7f 92       	push	r7
     2be:	8f 92       	push	r8
     2c0:	9f 92       	push	r9
     2c2:	af 92       	push	r10
     2c4:	bf 92       	push	r11
     2c6:	cf 92       	push	r12
     2c8:	df 92       	push	r13
     2ca:	ef 92       	push	r14
     2cc:	ff 92       	push	r15
     2ce:	0f 93       	push	r16
     2d0:	1f 93       	push	r17
     2d2:	cf 93       	push	r28
     2d4:	df 93       	push	r29
     2d6:	cd b7       	in	r28, 0x3d	; 61
     2d8:	de b7       	in	r29, 0x3e	; 62
     2da:	eb 97       	sbiw	r28, 0x3b	; 59
     2dc:	0f b6       	in	r0, 0x3f	; 63
     2de:	f8 94       	cli
     2e0:	de bf       	out	0x3e, r29	; 62
     2e2:	0f be       	out	0x3f, r0	; 63
     2e4:	cd bf       	out	0x3d, r28	; 61
     2e6:	9d a7       	std	Y+45, r25	; 0x2d
     2e8:	8c a7       	std	Y+44, r24	; 0x2c
     2ea:	7f a7       	std	Y+47, r23	; 0x2f
     2ec:	6e a7       	std	Y+46, r22	; 0x2e
	uint8_t data[12]; // data array to hold accelerometer and gyro x, y, z, data
	uint16_t ii, packet_count, fifo_count;
	int32_t gyro_bias[3] = {0, 0, 0}, accel_bias[3] = {0, 0, 0};

	// reset device, reset all registers, clear gyro and accelerometer bias registers
	I2C_write_byte(MPU6050_ADDRESS, PWR_MGMT_1, 0x80); // Write a one to bit 7 reset bit; toggle reset device
     2ee:	40 e8       	ldi	r20, 0x80	; 128
     2f0:	50 e0       	ldi	r21, 0x00	; 0
     2f2:	6b e6       	ldi	r22, 0x6B	; 107
     2f4:	70 e0       	ldi	r23, 0x00	; 0
     2f6:	88 e6       	ldi	r24, 0x68	; 104
     2f8:	90 e0       	ldi	r25, 0x00	; 0
     2fa:	0e 94 b9 00 	call	0x172	; 0x172 <I2C_write_byte>
	#else
		//round up by default
		__ticks_dc = (uint32_t)(ceil(fabs(__tmp)));
	#endif

	__builtin_avr_delay_cycles(__ticks_dc);
     2fe:	2f ef       	ldi	r18, 0xFF	; 255
     300:	31 ee       	ldi	r19, 0xE1	; 225
     302:	44 e0       	ldi	r20, 0x04	; 4
     304:	21 50       	subi	r18, 0x01	; 1
     306:	30 40       	sbci	r19, 0x00	; 0
     308:	40 40       	sbci	r20, 0x00	; 0
     30a:	e1 f7       	brne	.-8      	; 0x304 <CalibrateMPU6050+0x52>
     30c:	00 c0       	rjmp	.+0      	; 0x30e <CalibrateMPU6050+0x5c>
     30e:	00 00       	nop
	_delay_ms(100);

	// get stable time source
	// Set clock source to be PLL with x-axis gyroscope reference, bits 2:0 = 001
	I2C_write_byte(MPU6050_ADDRESS, PWR_MGMT_1, 0x01);
     310:	41 e0       	ldi	r20, 0x01	; 1
     312:	50 e0       	ldi	r21, 0x00	; 0
     314:	6b e6       	ldi	r22, 0x6B	; 107
     316:	70 e0       	ldi	r23, 0x00	; 0
     318:	88 e6       	ldi	r24, 0x68	; 104
     31a:	90 e0       	ldi	r25, 0x00	; 0
     31c:	0e 94 b9 00 	call	0x172	; 0x172 <I2C_write_byte>
	I2C_write_byte(MPU6050_ADDRESS, PWR_MGMT_2, 0x00);
     320:	40 e0       	ldi	r20, 0x00	; 0
     322:	50 e0       	ldi	r21, 0x00	; 0
     324:	6c e6       	ldi	r22, 0x6C	; 108
     326:	70 e0       	ldi	r23, 0x00	; 0
     328:	88 e6       	ldi	r24, 0x68	; 104
     32a:	90 e0       	ldi	r25, 0x00	; 0
     32c:	0e 94 b9 00 	call	0x172	; 0x172 <I2C_write_byte>
     330:	5f ef       	ldi	r21, 0xFF	; 255
     332:	83 ec       	ldi	r24, 0xC3	; 195
     334:	99 e0       	ldi	r25, 0x09	; 9
     336:	51 50       	subi	r21, 0x01	; 1
     338:	80 40       	sbci	r24, 0x00	; 0
     33a:	90 40       	sbci	r25, 0x00	; 0
     33c:	e1 f7       	brne	.-8      	; 0x336 <CalibrateMPU6050+0x84>
     33e:	00 c0       	rjmp	.+0      	; 0x340 <CalibrateMPU6050+0x8e>
     340:	00 00       	nop
	_delay_ms(200);

	// Configure device for bias calculation
	I2C_write_byte(MPU6050_ADDRESS, INT_ENABLE, 0x00);   // Disable all interrupts
     342:	40 e0       	ldi	r20, 0x00	; 0
     344:	50 e0       	ldi	r21, 0x00	; 0
     346:	68 e3       	ldi	r22, 0x38	; 56
     348:	70 e0       	ldi	r23, 0x00	; 0
     34a:	88 e6       	ldi	r24, 0x68	; 104
     34c:	90 e0       	ldi	r25, 0x00	; 0
     34e:	0e 94 b9 00 	call	0x172	; 0x172 <I2C_write_byte>
	I2C_write_byte(MPU6050_ADDRESS, FIFO_EN, 0x00);      // Disable FIFO
     352:	40 e0       	ldi	r20, 0x00	; 0
     354:	50 e0       	ldi	r21, 0x00	; 0
     356:	63 e2       	ldi	r22, 0x23	; 35
     358:	70 e0       	ldi	r23, 0x00	; 0
     35a:	88 e6       	ldi	r24, 0x68	; 104
     35c:	90 e0       	ldi	r25, 0x00	; 0
     35e:	0e 94 b9 00 	call	0x172	; 0x172 <I2C_write_byte>
	I2C_write_byte(MPU6050_ADDRESS, PWR_MGMT_1, 0x00);   // Turn on internal clock source
     362:	40 e0       	ldi	r20, 0x00	; 0
     364:	50 e0       	ldi	r21, 0x00	; 0
     366:	6b e6       	ldi	r22, 0x6B	; 107
     368:	70 e0       	ldi	r23, 0x00	; 0
     36a:	88 e6       	ldi	r24, 0x68	; 104
     36c:	90 e0       	ldi	r25, 0x00	; 0
     36e:	0e 94 b9 00 	call	0x172	; 0x172 <I2C_write_byte>
	I2C_write_byte(MPU6050_ADDRESS, I2C_MST_CTRL, 0x00); // Disable I2C master
     372:	40 e0       	ldi	r20, 0x00	; 0
     374:	50 e0       	ldi	r21, 0x00	; 0
     376:	64 e2       	ldi	r22, 0x24	; 36
     378:	70 e0       	ldi	r23, 0x00	; 0
     37a:	88 e6       	ldi	r24, 0x68	; 104
     37c:	90 e0       	ldi	r25, 0x00	; 0
     37e:	0e 94 b9 00 	call	0x172	; 0x172 <I2C_write_byte>
	I2C_write_byte(MPU6050_ADDRESS, USER_CTRL, 0x00);    // Disable FIFO and I2C master modes
     382:	40 e0       	ldi	r20, 0x00	; 0
     384:	50 e0       	ldi	r21, 0x00	; 0
     386:	6a e6       	ldi	r22, 0x6A	; 106
     388:	70 e0       	ldi	r23, 0x00	; 0
     38a:	88 e6       	ldi	r24, 0x68	; 104
     38c:	90 e0       	ldi	r25, 0x00	; 0
     38e:	0e 94 b9 00 	call	0x172	; 0x172 <I2C_write_byte>
	I2C_write_byte(MPU6050_ADDRESS, USER_CTRL, 0x0C);    // Reset FIFO and DMP
     392:	4c e0       	ldi	r20, 0x0C	; 12
     394:	50 e0       	ldi	r21, 0x00	; 0
     396:	6a e6       	ldi	r22, 0x6A	; 106
     398:	70 e0       	ldi	r23, 0x00	; 0
     39a:	88 e6       	ldi	r24, 0x68	; 104
     39c:	90 e0       	ldi	r25, 0x00	; 0
     39e:	0e 94 b9 00 	call	0x172	; 0x172 <I2C_write_byte>
     3a2:	af e5       	ldi	r26, 0x5F	; 95
     3a4:	ba ee       	ldi	r27, 0xEA	; 234
     3a6:	11 97       	sbiw	r26, 0x01	; 1
     3a8:	f1 f7       	brne	.-4      	; 0x3a6 <CalibrateMPU6050+0xf4>
     3aa:	00 c0       	rjmp	.+0      	; 0x3ac <CalibrateMPU6050+0xfa>
     3ac:	00 00       	nop
	_delay_ms(15);

	// Configure MPU6050 gyro and accelerometer for bias calculation
	I2C_write_byte(MPU6050_ADDRESS, CONFIG, 0x01);      // Set low-pass filter to 188 Hz
     3ae:	41 e0       	ldi	r20, 0x01	; 1
     3b0:	50 e0       	ldi	r21, 0x00	; 0
     3b2:	6a e1       	ldi	r22, 0x1A	; 26
     3b4:	70 e0       	ldi	r23, 0x00	; 0
     3b6:	88 e6       	ldi	r24, 0x68	; 104
     3b8:	90 e0       	ldi	r25, 0x00	; 0
     3ba:	0e 94 b9 00 	call	0x172	; 0x172 <I2C_write_byte>
	I2C_write_byte(MPU6050_ADDRESS, SMPLRT_DIV, 0x00);  // Set sample rate to 1 kHz
     3be:	40 e0       	ldi	r20, 0x00	; 0
     3c0:	50 e0       	ldi	r21, 0x00	; 0
     3c2:	69 e1       	ldi	r22, 0x19	; 25
     3c4:	70 e0       	ldi	r23, 0x00	; 0
     3c6:	88 e6       	ldi	r24, 0x68	; 104
     3c8:	90 e0       	ldi	r25, 0x00	; 0
     3ca:	0e 94 b9 00 	call	0x172	; 0x172 <I2C_write_byte>
	I2C_write_byte(MPU6050_ADDRESS, GYRO_CONFIG, 0x00);  // Set gyro full-scale to 250 degrees per second, maximum sensitivity
     3ce:	40 e0       	ldi	r20, 0x00	; 0
     3d0:	50 e0       	ldi	r21, 0x00	; 0
     3d2:	6b e1       	ldi	r22, 0x1B	; 27
     3d4:	70 e0       	ldi	r23, 0x00	; 0
     3d6:	88 e6       	ldi	r24, 0x68	; 104
     3d8:	90 e0       	ldi	r25, 0x00	; 0
     3da:	0e 94 b9 00 	call	0x172	; 0x172 <I2C_write_byte>
	I2C_write_byte(MPU6050_ADDRESS, ACCEL_CONFIG, 0x00); // Set accelerometer full-scale to 2 g, maximum sensitivity
     3de:	40 e0       	ldi	r20, 0x00	; 0
     3e0:	50 e0       	ldi	r21, 0x00	; 0
     3e2:	6c e1       	ldi	r22, 0x1C	; 28
     3e4:	70 e0       	ldi	r23, 0x00	; 0
     3e6:	88 e6       	ldi	r24, 0x68	; 104
     3e8:	90 e0       	ldi	r25, 0x00	; 0
     3ea:	0e 94 b9 00 	call	0x172	; 0x172 <I2C_write_byte>

	uint16_t  gyrosensitivity  = 131;   // = 131 LSB/degrees/sec
	uint16_t  accelsensitivity = 16384;  // = 16384 LSB/g

	// Configure FIFO to capture accelerometer and gyro data for bias calculation
	I2C_write_byte(MPU6050_ADDRESS, USER_CTRL, 0x40);   // Enable FIFO
     3ee:	40 e4       	ldi	r20, 0x40	; 64
     3f0:	50 e0       	ldi	r21, 0x00	; 0
     3f2:	6a e6       	ldi	r22, 0x6A	; 106
     3f4:	70 e0       	ldi	r23, 0x00	; 0
     3f6:	88 e6       	ldi	r24, 0x68	; 104
     3f8:	90 e0       	ldi	r25, 0x00	; 0
     3fa:	0e 94 b9 00 	call	0x172	; 0x172 <I2C_write_byte>
	I2C_write_byte(MPU6050_ADDRESS, FIFO_EN, 0x78);     // Enable gyro and accelerometer sensors for FIFO  (max size 1024 bytes in MPU-6050)
     3fe:	48 e7       	ldi	r20, 0x78	; 120
     400:	50 e0       	ldi	r21, 0x00	; 0
     402:	63 e2       	ldi	r22, 0x23	; 35
     404:	70 e0       	ldi	r23, 0x00	; 0
     406:	88 e6       	ldi	r24, 0x68	; 104
     408:	90 e0       	ldi	r25, 0x00	; 0
     40a:	0e 94 b9 00 	call	0x172	; 0x172 <I2C_write_byte>
     40e:	bf ef       	ldi	r27, 0xFF	; 255
     410:	e7 ee       	ldi	r30, 0xE7	; 231
     412:	f3 e0       	ldi	r31, 0x03	; 3
     414:	b1 50       	subi	r27, 0x01	; 1
     416:	e0 40       	sbci	r30, 0x00	; 0
     418:	f0 40       	sbci	r31, 0x00	; 0
     41a:	e1 f7       	brne	.-8      	; 0x414 <__LOCK_REGION_LENGTH__+0x14>
     41c:	00 c0       	rjmp	.+0      	; 0x41e <__LOCK_REGION_LENGTH__+0x1e>
     41e:	00 00       	nop
	_delay_ms(80); // accumulate 80 samples in 80 milliseconds = 960 bytes

	// At end of sample accumulation, turn off FIFO sensor read
	I2C_write_byte(MPU6050_ADDRESS, FIFO_EN, 0x00);        // Disable gyro and accelerometer sensors for FIFO
     420:	40 e0       	ldi	r20, 0x00	; 0
     422:	50 e0       	ldi	r21, 0x00	; 0
     424:	63 e2       	ldi	r22, 0x23	; 35
     426:	70 e0       	ldi	r23, 0x00	; 0
     428:	88 e6       	ldi	r24, 0x68	; 104
     42a:	90 e0       	ldi	r25, 0x00	; 0
     42c:	0e 94 b9 00 	call	0x172	; 0x172 <I2C_write_byte>
	I2C_read_buf(MPU6050_ADDRESS, FIFO_COUNTH, 2, &data[0]); // read FIFO sample count
     430:	9e 01       	movw	r18, r28
     432:	2f 5f       	subi	r18, 0xFF	; 255
     434:	3f 4f       	sbci	r19, 0xFF	; 255
     436:	42 e0       	ldi	r20, 0x02	; 2
     438:	50 e0       	ldi	r21, 0x00	; 0
     43a:	62 e7       	ldi	r22, 0x72	; 114
     43c:	70 e0       	ldi	r23, 0x00	; 0
     43e:	88 e6       	ldi	r24, 0x68	; 104
     440:	90 e0       	ldi	r25, 0x00	; 0
     442:	0e 94 ee 00 	call	0x1dc	; 0x1dc <I2C_read_buf>
	fifo_count = ((uint16_t)data[0] << 8) | data[1];
     446:	69 81       	ldd	r22, Y+1	; 0x01
     448:	70 e0       	ldi	r23, 0x00	; 0
     44a:	16 2f       	mov	r17, r22
     44c:	00 27       	eor	r16, r16
     44e:	8a 81       	ldd	r24, Y+2	; 0x02
     450:	08 2b       	or	r16, r24
	
	SendStringUint("data[0]    = ", data[0]);
     452:	87 e1       	ldi	r24, 0x17	; 23
     454:	91 e0       	ldi	r25, 0x01	; 1
     456:	0e 94 51 09 	call	0x12a2	; 0x12a2 <SendStringUint>
	SendStringUint("data[0]<<8 = ", data[0]<<8);
     45a:	79 81       	ldd	r23, Y+1	; 0x01
     45c:	60 e0       	ldi	r22, 0x00	; 0
     45e:	85 e2       	ldi	r24, 0x25	; 37
     460:	91 e0       	ldi	r25, 0x01	; 1
     462:	0e 94 51 09 	call	0x12a2	; 0x12a2 <SendStringUint>
	SendStringUint("data[1]    = ", data[1]);
     466:	6a 81       	ldd	r22, Y+2	; 0x02
     468:	70 e0       	ldi	r23, 0x00	; 0
     46a:	83 e3       	ldi	r24, 0x33	; 51
     46c:	91 e0       	ldi	r25, 0x01	; 1
     46e:	0e 94 51 09 	call	0x12a2	; 0x12a2 <SendStringUint>

	packet_count = fifo_count/12;// How many sets of full gyro and accelerometer data for averaging
     472:	98 01       	movw	r18, r16
     474:	ab ea       	ldi	r26, 0xAB	; 171
     476:	ba ea       	ldi	r27, 0xAA	; 170
     478:	0e 94 91 0b 	call	0x1722	; 0x1722 <__umulhisi3>
     47c:	1c 01       	movw	r2, r24
     47e:	36 94       	lsr	r3
     480:	27 94       	ror	r2
     482:	36 94       	lsr	r3
     484:	27 94       	ror	r2
     486:	36 94       	lsr	r3
     488:	27 94       	ror	r2
	SendStringUint("Packet count = ", packet_count);
     48a:	b1 01       	movw	r22, r2
     48c:	81 e4       	ldi	r24, 0x41	; 65
     48e:	91 e0       	ldi	r25, 0x01	; 1
     490:	0e 94 51 09 	call	0x12a2	; 0x12a2 <SendStringUint>

	for (ii = 0; ii < packet_count; ii++) {
     494:	21 14       	cp	r2, r1
     496:	31 04       	cpc	r3, r1
     498:	09 f4       	brne	.+2      	; 0x49c <__LOCK_REGION_LENGTH__+0x9c>
     49a:	95 c0       	rjmp	.+298    	; 0x5c6 <__LOCK_REGION_LENGTH__+0x1c6>
     49c:	1c 8e       	std	Y+28, r1	; 0x1c
     49e:	1d 8e       	std	Y+29, r1	; 0x1d
     4a0:	1e 8e       	std	Y+30, r1	; 0x1e
     4a2:	1f 8e       	std	Y+31, r1	; 0x1f
     4a4:	18 a2       	std	Y+32, r1	; 0x20
     4a6:	19 a2       	std	Y+33, r1	; 0x21
     4a8:	1a a2       	std	Y+34, r1	; 0x22
     4aa:	1b a2       	std	Y+35, r1	; 0x23
     4ac:	1c a2       	std	Y+36, r1	; 0x24
     4ae:	1d a2       	std	Y+37, r1	; 0x25
     4b0:	1e a2       	std	Y+38, r1	; 0x26
     4b2:	1f a2       	std	Y+39, r1	; 0x27
     4b4:	41 2c       	mov	r4, r1
     4b6:	51 2c       	mov	r5, r1
     4b8:	32 01       	movw	r6, r4
     4ba:	81 2c       	mov	r8, r1
     4bc:	91 2c       	mov	r9, r1
     4be:	54 01       	movw	r10, r8
     4c0:	c1 2c       	mov	r12, r1
     4c2:	d1 2c       	mov	r13, r1
     4c4:	76 01       	movw	r14, r12
     4c6:	00 e0       	ldi	r16, 0x00	; 0
     4c8:	10 e0       	ldi	r17, 0x00	; 0
		int16_t accel_temp[3] = {0, 0, 0}, gyro_temp[3] = {0, 0, 0};
		I2C_read_buf(MPU6050_ADDRESS, FIFO_R_W, 12, &data[0]); // read data for averaging
     4ca:	9e 01       	movw	r18, r28
     4cc:	2f 5f       	subi	r18, 0xFF	; 255
     4ce:	3f 4f       	sbci	r19, 0xFF	; 255
     4d0:	4c e0       	ldi	r20, 0x0C	; 12
     4d2:	50 e0       	ldi	r21, 0x00	; 0
     4d4:	64 e7       	ldi	r22, 0x74	; 116
     4d6:	70 e0       	ldi	r23, 0x00	; 0
     4d8:	88 e6       	ldi	r24, 0x68	; 104
     4da:	90 e0       	ldi	r25, 0x00	; 0
     4dc:	0e 94 ee 00 	call	0x1dc	; 0x1dc <I2C_read_buf>
		accel_temp[2] = (int16_t) (((int16_t)data[4] << 8) | data[5]  ) ;
		gyro_temp[0]  = (int16_t) (((int16_t)data[6] << 8) | data[7]  ) ;
		gyro_temp[1]  = (int16_t) (((int16_t)data[8] << 8) | data[9]  ) ;
		gyro_temp[2]  = (int16_t) (((int16_t)data[10] << 8) | data[11]) ;
		
		accel_bias[0] += (int32_t) accel_temp[0]; // Sum individual signed 16-bit biases to get accumulated signed 32-bit biases
     4e0:	89 81       	ldd	r24, Y+1	; 0x01
     4e2:	90 e0       	ldi	r25, 0x00	; 0
     4e4:	98 2f       	mov	r25, r24
     4e6:	88 27       	eor	r24, r24
     4e8:	2a 81       	ldd	r18, Y+2	; 0x02
     4ea:	82 2b       	or	r24, r18
     4ec:	09 2e       	mov	r0, r25
     4ee:	00 0c       	add	r0, r0
     4f0:	aa 0b       	sbc	r26, r26
     4f2:	bb 0b       	sbc	r27, r27
     4f4:	48 0e       	add	r4, r24
     4f6:	59 1e       	adc	r5, r25
     4f8:	6a 1e       	adc	r6, r26
     4fa:	7b 1e       	adc	r7, r27
		accel_bias[1] += (int32_t) accel_temp[1];
     4fc:	8b 81       	ldd	r24, Y+3	; 0x03
     4fe:	90 e0       	ldi	r25, 0x00	; 0
     500:	98 2f       	mov	r25, r24
     502:	88 27       	eor	r24, r24
     504:	2c 81       	ldd	r18, Y+4	; 0x04
     506:	82 2b       	or	r24, r18
     508:	09 2e       	mov	r0, r25
     50a:	00 0c       	add	r0, r0
     50c:	aa 0b       	sbc	r26, r26
     50e:	bb 0b       	sbc	r27, r27
     510:	88 0e       	add	r8, r24
     512:	99 1e       	adc	r9, r25
     514:	aa 1e       	adc	r10, r26
     516:	bb 1e       	adc	r11, r27
		accel_bias[2] += (int32_t) accel_temp[2];
     518:	8d 81       	ldd	r24, Y+5	; 0x05
     51a:	90 e0       	ldi	r25, 0x00	; 0
     51c:	98 2f       	mov	r25, r24
     51e:	88 27       	eor	r24, r24
     520:	2e 81       	ldd	r18, Y+6	; 0x06
     522:	82 2b       	or	r24, r18
     524:	09 2e       	mov	r0, r25
     526:	00 0c       	add	r0, r0
     528:	aa 0b       	sbc	r26, r26
     52a:	bb 0b       	sbc	r27, r27
     52c:	c8 0e       	add	r12, r24
     52e:	d9 1e       	adc	r13, r25
     530:	ea 1e       	adc	r14, r26
     532:	fb 1e       	adc	r15, r27
		gyro_bias[0]  += (int32_t) gyro_temp[0];
     534:	8f 81       	ldd	r24, Y+7	; 0x07
     536:	90 e0       	ldi	r25, 0x00	; 0
     538:	98 2f       	mov	r25, r24
     53a:	88 27       	eor	r24, r24
     53c:	28 85       	ldd	r18, Y+8	; 0x08
     53e:	82 2b       	or	r24, r18
     540:	09 2e       	mov	r0, r25
     542:	00 0c       	add	r0, r0
     544:	aa 0b       	sbc	r26, r26
     546:	bb 0b       	sbc	r27, r27
     548:	2c 8d       	ldd	r18, Y+28	; 0x1c
     54a:	3d 8d       	ldd	r19, Y+29	; 0x1d
     54c:	4e 8d       	ldd	r20, Y+30	; 0x1e
     54e:	5f 8d       	ldd	r21, Y+31	; 0x1f
     550:	28 0f       	add	r18, r24
     552:	39 1f       	adc	r19, r25
     554:	4a 1f       	adc	r20, r26
     556:	5b 1f       	adc	r21, r27
     558:	2c 8f       	std	Y+28, r18	; 0x1c
     55a:	3d 8f       	std	Y+29, r19	; 0x1d
     55c:	4e 8f       	std	Y+30, r20	; 0x1e
     55e:	5f 8f       	std	Y+31, r21	; 0x1f
		gyro_bias[1]  += (int32_t) gyro_temp[1];
     560:	89 85       	ldd	r24, Y+9	; 0x09
     562:	90 e0       	ldi	r25, 0x00	; 0
     564:	98 2f       	mov	r25, r24
     566:	88 27       	eor	r24, r24
     568:	2a 85       	ldd	r18, Y+10	; 0x0a
     56a:	82 2b       	or	r24, r18
     56c:	09 2e       	mov	r0, r25
     56e:	00 0c       	add	r0, r0
     570:	aa 0b       	sbc	r26, r26
     572:	bb 0b       	sbc	r27, r27
     574:	28 a1       	ldd	r18, Y+32	; 0x20
     576:	39 a1       	ldd	r19, Y+33	; 0x21
     578:	4a a1       	ldd	r20, Y+34	; 0x22
     57a:	5b a1       	ldd	r21, Y+35	; 0x23
     57c:	28 0f       	add	r18, r24
     57e:	39 1f       	adc	r19, r25
     580:	4a 1f       	adc	r20, r26
     582:	5b 1f       	adc	r21, r27
     584:	28 a3       	std	Y+32, r18	; 0x20
     586:	39 a3       	std	Y+33, r19	; 0x21
     588:	4a a3       	std	Y+34, r20	; 0x22
     58a:	5b a3       	std	Y+35, r21	; 0x23
		gyro_bias[2]  += (int32_t) gyro_temp[2];
     58c:	8b 85       	ldd	r24, Y+11	; 0x0b
     58e:	90 e0       	ldi	r25, 0x00	; 0
     590:	98 2f       	mov	r25, r24
     592:	88 27       	eor	r24, r24
     594:	2c 85       	ldd	r18, Y+12	; 0x0c
     596:	82 2b       	or	r24, r18
     598:	09 2e       	mov	r0, r25
     59a:	00 0c       	add	r0, r0
     59c:	aa 0b       	sbc	r26, r26
     59e:	bb 0b       	sbc	r27, r27
     5a0:	2c a1       	ldd	r18, Y+36	; 0x24
     5a2:	3d a1       	ldd	r19, Y+37	; 0x25
     5a4:	4e a1       	ldd	r20, Y+38	; 0x26
     5a6:	5f a1       	ldd	r21, Y+39	; 0x27
     5a8:	28 0f       	add	r18, r24
     5aa:	39 1f       	adc	r19, r25
     5ac:	4a 1f       	adc	r20, r26
     5ae:	5b 1f       	adc	r21, r27
     5b0:	2c a3       	std	Y+36, r18	; 0x24
     5b2:	3d a3       	std	Y+37, r19	; 0x25
     5b4:	4e a3       	std	Y+38, r20	; 0x26
     5b6:	5f a3       	std	Y+39, r21	; 0x27
	SendStringUint("data[1]    = ", data[1]);

	packet_count = fifo_count/12;// How many sets of full gyro and accelerometer data for averaging
	SendStringUint("Packet count = ", packet_count);

	for (ii = 0; ii < packet_count; ii++) {
     5b8:	0f 5f       	subi	r16, 0xFF	; 255
     5ba:	1f 4f       	sbci	r17, 0xFF	; 255
     5bc:	20 16       	cp	r2, r16
     5be:	31 06       	cpc	r3, r17
     5c0:	09 f0       	breq	.+2      	; 0x5c4 <__LOCK_REGION_LENGTH__+0x1c4>
     5c2:	83 cf       	rjmp	.-250    	; 0x4ca <__LOCK_REGION_LENGTH__+0xca>
     5c4:	15 c0       	rjmp	.+42     	; 0x5f0 <__LOCK_REGION_LENGTH__+0x1f0>

void CalibrateMPU6050(float * dest1, float * dest2)
{
	uint8_t data[12]; // data array to hold accelerometer and gyro x, y, z, data
	uint16_t ii, packet_count, fifo_count;
	int32_t gyro_bias[3] = {0, 0, 0}, accel_bias[3] = {0, 0, 0};
     5c6:	1c 8e       	std	Y+28, r1	; 0x1c
     5c8:	1d 8e       	std	Y+29, r1	; 0x1d
     5ca:	1e 8e       	std	Y+30, r1	; 0x1e
     5cc:	1f 8e       	std	Y+31, r1	; 0x1f
     5ce:	18 a2       	std	Y+32, r1	; 0x20
     5d0:	19 a2       	std	Y+33, r1	; 0x21
     5d2:	1a a2       	std	Y+34, r1	; 0x22
     5d4:	1b a2       	std	Y+35, r1	; 0x23
     5d6:	1c a2       	std	Y+36, r1	; 0x24
     5d8:	1d a2       	std	Y+37, r1	; 0x25
     5da:	1e a2       	std	Y+38, r1	; 0x26
     5dc:	1f a2       	std	Y+39, r1	; 0x27
     5de:	41 2c       	mov	r4, r1
     5e0:	51 2c       	mov	r5, r1
     5e2:	32 01       	movw	r6, r4
     5e4:	81 2c       	mov	r8, r1
     5e6:	91 2c       	mov	r9, r1
     5e8:	54 01       	movw	r10, r8
     5ea:	c1 2c       	mov	r12, r1
     5ec:	d1 2c       	mov	r13, r1
     5ee:	76 01       	movw	r14, r12
		gyro_bias[1]  += (int32_t) gyro_temp[1];
		gyro_bias[2]  += (int32_t) gyro_temp[2];
		
	}

	accel_bias[0] /= (int32_t) packet_count; // Normalize sums to get average count biases
     5f0:	c1 01       	movw	r24, r2
     5f2:	a0 e0       	ldi	r26, 0x00	; 0
     5f4:	b0 e0       	ldi	r27, 0x00	; 0
     5f6:	88 a7       	std	Y+40, r24	; 0x28
     5f8:	99 a7       	std	Y+41, r25	; 0x29
     5fa:	aa a7       	std	Y+42, r26	; 0x2a
     5fc:	bb a7       	std	Y+43, r27	; 0x2b
     5fe:	c3 01       	movw	r24, r6
     600:	b2 01       	movw	r22, r4
     602:	28 a5       	ldd	r18, Y+40	; 0x28
     604:	39 a5       	ldd	r19, Y+41	; 0x29
     606:	4a a5       	ldd	r20, Y+42	; 0x2a
     608:	5b a5       	ldd	r21, Y+43	; 0x2b
     60a:	0e 94 6c 0b 	call	0x16d8	; 0x16d8 <__divmodsi4>
     60e:	28 ab       	std	Y+48, r18	; 0x30
     610:	39 ab       	std	Y+49, r19	; 0x31
     612:	4a ab       	std	Y+50, r20	; 0x32
     614:	5b ab       	std	Y+51, r21	; 0x33
	accel_bias[1] /= (int32_t) packet_count;
     616:	c5 01       	movw	r24, r10
     618:	b4 01       	movw	r22, r8
     61a:	28 a5       	ldd	r18, Y+40	; 0x28
     61c:	39 a5       	ldd	r19, Y+41	; 0x29
     61e:	4a a5       	ldd	r20, Y+42	; 0x2a
     620:	5b a5       	ldd	r21, Y+43	; 0x2b
     622:	0e 94 6c 0b 	call	0x16d8	; 0x16d8 <__divmodsi4>
     626:	2c ab       	std	Y+52, r18	; 0x34
     628:	3d ab       	std	Y+53, r19	; 0x35
     62a:	4e ab       	std	Y+54, r20	; 0x36
     62c:	5f ab       	std	Y+55, r21	; 0x37
	accel_bias[2] /= (int32_t) packet_count;
     62e:	c7 01       	movw	r24, r14
     630:	b6 01       	movw	r22, r12
     632:	28 a5       	ldd	r18, Y+40	; 0x28
     634:	39 a5       	ldd	r19, Y+41	; 0x29
     636:	4a a5       	ldd	r20, Y+42	; 0x2a
     638:	5b a5       	ldd	r21, Y+43	; 0x2b
     63a:	0e 94 6c 0b 	call	0x16d8	; 0x16d8 <__divmodsi4>
     63e:	69 01       	movw	r12, r18
     640:	7a 01       	movw	r14, r20
	gyro_bias[0]  /= (int32_t) packet_count;
     642:	6c 8d       	ldd	r22, Y+28	; 0x1c
     644:	7d 8d       	ldd	r23, Y+29	; 0x1d
     646:	8e 8d       	ldd	r24, Y+30	; 0x1e
     648:	9f 8d       	ldd	r25, Y+31	; 0x1f
     64a:	28 a5       	ldd	r18, Y+40	; 0x28
     64c:	39 a5       	ldd	r19, Y+41	; 0x29
     64e:	4a a5       	ldd	r20, Y+42	; 0x2a
     650:	5b a5       	ldd	r21, Y+43	; 0x2b
     652:	0e 94 6c 0b 	call	0x16d8	; 0x16d8 <__divmodsi4>
     656:	2c 8f       	std	Y+28, r18	; 0x1c
     658:	3d 8f       	std	Y+29, r19	; 0x1d
     65a:	4e 8f       	std	Y+30, r20	; 0x1e
     65c:	5f 8f       	std	Y+31, r21	; 0x1f
	gyro_bias[1]  /= (int32_t) packet_count;
     65e:	68 a1       	ldd	r22, Y+32	; 0x20
     660:	79 a1       	ldd	r23, Y+33	; 0x21
     662:	8a a1       	ldd	r24, Y+34	; 0x22
     664:	9b a1       	ldd	r25, Y+35	; 0x23
     666:	28 a5       	ldd	r18, Y+40	; 0x28
     668:	39 a5       	ldd	r19, Y+41	; 0x29
     66a:	4a a5       	ldd	r20, Y+42	; 0x2a
     66c:	5b a5       	ldd	r21, Y+43	; 0x2b
     66e:	0e 94 6c 0b 	call	0x16d8	; 0x16d8 <__divmodsi4>
     672:	28 a3       	std	Y+32, r18	; 0x20
     674:	39 a3       	std	Y+33, r19	; 0x21
     676:	4a a3       	std	Y+34, r20	; 0x22
     678:	5b a3       	std	Y+35, r21	; 0x23
	gyro_bias[2]  /= (int32_t) packet_count;
     67a:	6c a1       	ldd	r22, Y+36	; 0x24
     67c:	7d a1       	ldd	r23, Y+37	; 0x25
     67e:	8e a1       	ldd	r24, Y+38	; 0x26
     680:	9f a1       	ldd	r25, Y+39	; 0x27
     682:	28 a5       	ldd	r18, Y+40	; 0x28
     684:	39 a5       	ldd	r19, Y+41	; 0x29
     686:	4a a5       	ldd	r20, Y+42	; 0x2a
     688:	5b a5       	ldd	r21, Y+43	; 0x2b
     68a:	0e 94 6c 0b 	call	0x16d8	; 0x16d8 <__divmodsi4>
     68e:	29 01       	movw	r4, r18
     690:	3a 01       	movw	r6, r20

	if(accel_bias[2] > 0L) {accel_bias[2] -= (int32_t) accelsensitivity;}  // Remove gravity from the z-axis accelerometer bias calculation
     692:	1c 14       	cp	r1, r12
     694:	1d 04       	cpc	r1, r13
     696:	1e 04       	cpc	r1, r14
     698:	1f 04       	cpc	r1, r15
     69a:	54 f4       	brge	.+20     	; 0x6b0 <__LOCK_REGION_LENGTH__+0x2b0>
     69c:	a7 01       	movw	r20, r14
     69e:	96 01       	movw	r18, r12
     6a0:	30 54       	subi	r19, 0x40	; 64
     6a2:	41 09       	sbc	r20, r1
     6a4:	51 09       	sbc	r21, r1
     6a6:	28 af       	std	Y+56, r18	; 0x38
     6a8:	39 af       	std	Y+57, r19	; 0x39
     6aa:	4a af       	std	Y+58, r20	; 0x3a
     6ac:	5b af       	std	Y+59, r21	; 0x3b
     6ae:	09 c0       	rjmp	.+18     	; 0x6c2 <__LOCK_REGION_LENGTH__+0x2c2>
	else {accel_bias[2] += (int32_t) accelsensitivity;}
     6b0:	d7 01       	movw	r26, r14
     6b2:	c6 01       	movw	r24, r12
     6b4:	90 5c       	subi	r25, 0xC0	; 192
     6b6:	af 4f       	sbci	r26, 0xFF	; 255
     6b8:	bf 4f       	sbci	r27, 0xFF	; 255
     6ba:	88 af       	std	Y+56, r24	; 0x38
     6bc:	99 af       	std	Y+57, r25	; 0x39
     6be:	aa af       	std	Y+58, r26	; 0x3a
     6c0:	bb af       	std	Y+59, r27	; 0x3b

	// Construct the gyro biases for push to the hardware gyro bias registers, which are reset to zero upon device startup
	data[0] = (-gyro_bias[0]/4  >> 8) & 0xFF; // Divide by 4 to get 32.9 LSB per deg/s to conform to expected bias input format
     6c2:	8c 8d       	ldd	r24, Y+28	; 0x1c
     6c4:	9d 8d       	ldd	r25, Y+29	; 0x1d
     6c6:	ae 8d       	ldd	r26, Y+30	; 0x1e
     6c8:	bf 8d       	ldd	r27, Y+31	; 0x1f
     6ca:	b0 95       	com	r27
     6cc:	a0 95       	com	r26
     6ce:	90 95       	com	r25
     6d0:	81 95       	neg	r24
     6d2:	9f 4f       	sbci	r25, 0xFF	; 255
     6d4:	af 4f       	sbci	r26, 0xFF	; 255
     6d6:	bf 4f       	sbci	r27, 0xFF	; 255
     6d8:	1a f4       	brpl	.+6      	; 0x6e0 <__LOCK_REGION_LENGTH__+0x2e0>
     6da:	03 96       	adiw	r24, 0x03	; 3
     6dc:	a1 1d       	adc	r26, r1
     6de:	b1 1d       	adc	r27, r1
     6e0:	b5 95       	asr	r27
     6e2:	a7 95       	ror	r26
     6e4:	97 95       	ror	r25
     6e6:	87 95       	ror	r24
     6e8:	b5 95       	asr	r27
     6ea:	a7 95       	ror	r26
     6ec:	97 95       	ror	r25
     6ee:	87 95       	ror	r24
     6f0:	99 83       	std	Y+1, r25	; 0x01
	data[1] = (-gyro_bias[0]/4)       & 0xFF; // Biases are additive, so change sign on calculated average gyro biases
     6f2:	8a 83       	std	Y+2, r24	; 0x02
	data[2] = (-gyro_bias[1]/4  >> 8) & 0xFF;
     6f4:	88 a1       	ldd	r24, Y+32	; 0x20
     6f6:	99 a1       	ldd	r25, Y+33	; 0x21
     6f8:	aa a1       	ldd	r26, Y+34	; 0x22
     6fa:	bb a1       	ldd	r27, Y+35	; 0x23
     6fc:	b0 95       	com	r27
     6fe:	a0 95       	com	r26
     700:	90 95       	com	r25
     702:	81 95       	neg	r24
     704:	9f 4f       	sbci	r25, 0xFF	; 255
     706:	af 4f       	sbci	r26, 0xFF	; 255
     708:	bf 4f       	sbci	r27, 0xFF	; 255
     70a:	1a f4       	brpl	.+6      	; 0x712 <__LOCK_REGION_LENGTH__+0x312>
     70c:	03 96       	adiw	r24, 0x03	; 3
     70e:	a1 1d       	adc	r26, r1
     710:	b1 1d       	adc	r27, r1
     712:	b5 95       	asr	r27
     714:	a7 95       	ror	r26
     716:	97 95       	ror	r25
     718:	87 95       	ror	r24
     71a:	b5 95       	asr	r27
     71c:	a7 95       	ror	r26
     71e:	97 95       	ror	r25
     720:	87 95       	ror	r24
     722:	9b 83       	std	Y+3, r25	; 0x03
	data[3] = (-gyro_bias[1]/4)       & 0xFF;
     724:	8c 83       	std	Y+4, r24	; 0x04
	data[4] = (-gyro_bias[2]/4  >> 8) & 0xFF;
     726:	88 27       	eor	r24, r24
     728:	99 27       	eor	r25, r25
     72a:	dc 01       	movw	r26, r24
     72c:	84 19       	sub	r24, r4
     72e:	95 09       	sbc	r25, r5
     730:	a6 09       	sbc	r26, r6
     732:	b7 09       	sbc	r27, r7
     734:	1a f4       	brpl	.+6      	; 0x73c <__LOCK_REGION_LENGTH__+0x33c>
     736:	03 96       	adiw	r24, 0x03	; 3
     738:	a1 1d       	adc	r26, r1
     73a:	b1 1d       	adc	r27, r1
     73c:	b5 95       	asr	r27
     73e:	a7 95       	ror	r26
     740:	97 95       	ror	r25
     742:	87 95       	ror	r24
     744:	b5 95       	asr	r27
     746:	a7 95       	ror	r26
     748:	97 95       	ror	r25
     74a:	87 95       	ror	r24
     74c:	9d 83       	std	Y+5, r25	; 0x05
	data[5] = (-gyro_bias[2]/4)       & 0xFF;
     74e:	8e 83       	std	Y+6, r24	; 0x06
// 	writeByte(MPU6050_ADDRESS, YG_OFFS_USRH, data[2]);
// 	writeByte(MPU6050_ADDRESS, YG_OFFS_USRL, data[3]);
// 	writeByte(MPU6050_ADDRESS, ZG_OFFS_USRH, data[4]);
// 	writeByte(MPU6050_ADDRESS, ZG_OFFS_USRL, data[5]);

	dest1[0] = (float) gyro_bias[0]/(float) gyrosensitivity; // construct gyro bias in deg/s for later manual subtraction
     750:	6c 8d       	ldd	r22, Y+28	; 0x1c
     752:	7d 8d       	ldd	r23, Y+29	; 0x1d
     754:	8e 8d       	ldd	r24, Y+30	; 0x1e
     756:	9f 8d       	ldd	r25, Y+31	; 0x1f
     758:	0e 94 73 0a 	call	0x14e6	; 0x14e6 <__floatsisf>
     75c:	20 e0       	ldi	r18, 0x00	; 0
     75e:	30 e0       	ldi	r19, 0x00	; 0
     760:	43 e0       	ldi	r20, 0x03	; 3
     762:	53 e4       	ldi	r21, 0x43	; 67
     764:	0e 94 ff 09 	call	0x13fe	; 0x13fe <__divsf3>
     768:	ac a5       	ldd	r26, Y+44	; 0x2c
     76a:	bd a5       	ldd	r27, Y+45	; 0x2d
     76c:	6d 93       	st	X+, r22
     76e:	7d 93       	st	X+, r23
     770:	8d 93       	st	X+, r24
     772:	9c 93       	st	X, r25
     774:	13 97       	sbiw	r26, 0x03	; 3
	dest1[1] = (float) gyro_bias[1]/(float) gyrosensitivity;
     776:	68 a1       	ldd	r22, Y+32	; 0x20
     778:	79 a1       	ldd	r23, Y+33	; 0x21
     77a:	8a a1       	ldd	r24, Y+34	; 0x22
     77c:	9b a1       	ldd	r25, Y+35	; 0x23
     77e:	0e 94 73 0a 	call	0x14e6	; 0x14e6 <__floatsisf>
     782:	20 e0       	ldi	r18, 0x00	; 0
     784:	30 e0       	ldi	r19, 0x00	; 0
     786:	43 e0       	ldi	r20, 0x03	; 3
     788:	53 e4       	ldi	r21, 0x43	; 67
     78a:	0e 94 ff 09 	call	0x13fe	; 0x13fe <__divsf3>
     78e:	ec a5       	ldd	r30, Y+44	; 0x2c
     790:	fd a5       	ldd	r31, Y+45	; 0x2d
     792:	64 83       	std	Z+4, r22	; 0x04
     794:	75 83       	std	Z+5, r23	; 0x05
     796:	86 83       	std	Z+6, r24	; 0x06
     798:	97 83       	std	Z+7, r25	; 0x07
	dest1[2] = (float) gyro_bias[2]/(float) gyrosensitivity;
     79a:	c3 01       	movw	r24, r6
     79c:	b2 01       	movw	r22, r4
     79e:	0e 94 73 0a 	call	0x14e6	; 0x14e6 <__floatsisf>
     7a2:	20 e0       	ldi	r18, 0x00	; 0
     7a4:	30 e0       	ldi	r19, 0x00	; 0
     7a6:	43 e0       	ldi	r20, 0x03	; 3
     7a8:	53 e4       	ldi	r21, 0x43	; 67
     7aa:	0e 94 ff 09 	call	0x13fe	; 0x13fe <__divsf3>
     7ae:	ac a5       	ldd	r26, Y+44	; 0x2c
     7b0:	bd a5       	ldd	r27, Y+45	; 0x2d
     7b2:	18 96       	adiw	r26, 0x08	; 8
     7b4:	6d 93       	st	X+, r22
     7b6:	7d 93       	st	X+, r23
     7b8:	8d 93       	st	X+, r24
     7ba:	9c 93       	st	X, r25
     7bc:	1b 97       	sbiw	r26, 0x0b	; 11
  // non-zero values. In addition, bit 0 of the lower byte must be preserved since it is used for temperature
  // compensation calculations. Accelerometer bias registers expect bias input as 2048 LSB per g, so that
  // the accelerometer biases calculated above must be divided by 8.

    int32_t accel_bias_reg[3] = {0, 0, 0}; // A place to hold the factory accelerometer trim biases
    I2C_read_buf(MPU6050_ADDRESS, XA_OFFSET_H, 2, &data[0]); // Read factory accelerometer trim values
     7be:	9e 01       	movw	r18, r28
     7c0:	2f 5f       	subi	r18, 0xFF	; 255
     7c2:	3f 4f       	sbci	r19, 0xFF	; 255
     7c4:	42 e0       	ldi	r20, 0x02	; 2
     7c6:	50 e0       	ldi	r21, 0x00	; 0
     7c8:	66 e0       	ldi	r22, 0x06	; 6
     7ca:	70 e0       	ldi	r23, 0x00	; 0
     7cc:	88 e6       	ldi	r24, 0x68	; 104
     7ce:	90 e0       	ldi	r25, 0x00	; 0
     7d0:	0e 94 ee 00 	call	0x1dc	; 0x1dc <I2C_read_buf>
    accel_bias_reg[0] = (int16_t) ((int16_t)data[0] << 8) | data[1];
     7d4:	89 81       	ldd	r24, Y+1	; 0x01
     7d6:	90 e0       	ldi	r25, 0x00	; 0
     7d8:	98 2f       	mov	r25, r24
     7da:	88 27       	eor	r24, r24
     7dc:	2a 81       	ldd	r18, Y+2	; 0x02
     7de:	fc 01       	movw	r30, r24
     7e0:	e2 2b       	or	r30, r18
     7e2:	fd a3       	std	Y+37, r31	; 0x25
     7e4:	ec a3       	std	Y+36, r30	; 0x24
     7e6:	4f 01       	movw	r8, r30
     7e8:	ff 0f       	add	r31, r31
     7ea:	aa 08       	sbc	r10, r10
     7ec:	bb 08       	sbc	r11, r11
     7ee:	8d 86       	std	Y+13, r8	; 0x0d
     7f0:	9e 86       	std	Y+14, r9	; 0x0e
     7f2:	af 86       	std	Y+15, r10	; 0x0f
     7f4:	b8 8a       	std	Y+16, r11	; 0x10
    I2C_read_buf(MPU6050_ADDRESS, YA_OFFSET_H, 2, &data[0]);
     7f6:	9e 01       	movw	r18, r28
     7f8:	2f 5f       	subi	r18, 0xFF	; 255
     7fa:	3f 4f       	sbci	r19, 0xFF	; 255
     7fc:	42 e0       	ldi	r20, 0x02	; 2
     7fe:	50 e0       	ldi	r21, 0x00	; 0
     800:	68 e0       	ldi	r22, 0x08	; 8
     802:	70 e0       	ldi	r23, 0x00	; 0
     804:	88 e6       	ldi	r24, 0x68	; 104
     806:	90 e0       	ldi	r25, 0x00	; 0
     808:	0e 94 ee 00 	call	0x1dc	; 0x1dc <I2C_read_buf>
	accel_bias_reg[1] = (int16_t) ((int16_t)data[0] << 8) | data[1];
     80c:	89 81       	ldd	r24, Y+1	; 0x01
     80e:	90 e0       	ldi	r25, 0x00	; 0
     810:	98 2f       	mov	r25, r24
     812:	88 27       	eor	r24, r24
     814:	2a 81       	ldd	r18, Y+2	; 0x02
     816:	ac 01       	movw	r20, r24
     818:	42 2b       	or	r20, r18
     81a:	59 a7       	std	Y+41, r21	; 0x29
     81c:	48 a7       	std	Y+40, r20	; 0x28
     81e:	6a 01       	movw	r12, r20
     820:	55 0f       	add	r21, r21
     822:	ee 08       	sbc	r14, r14
     824:	ff 08       	sbc	r15, r15
     826:	c9 8a       	std	Y+17, r12	; 0x11
     828:	da 8a       	std	Y+18, r13	; 0x12
     82a:	eb 8a       	std	Y+19, r14	; 0x13
     82c:	fc 8a       	std	Y+20, r15	; 0x14
    I2C_read_buf(MPU6050_ADDRESS, ZA_OFFSET_H, 2, &data[0]);
     82e:	9e 01       	movw	r18, r28
     830:	2f 5f       	subi	r18, 0xFF	; 255
     832:	3f 4f       	sbci	r19, 0xFF	; 255
     834:	42 e0       	ldi	r20, 0x02	; 2
     836:	50 e0       	ldi	r21, 0x00	; 0
     838:	6a e0       	ldi	r22, 0x0A	; 10
     83a:	70 e0       	ldi	r23, 0x00	; 0
     83c:	88 e6       	ldi	r24, 0x68	; 104
     83e:	90 e0       	ldi	r25, 0x00	; 0
     840:	0e 94 ee 00 	call	0x1dc	; 0x1dc <I2C_read_buf>
    accel_bias_reg[2] = (int16_t) ((int16_t)data[0] << 8) | data[1];
     844:	89 81       	ldd	r24, Y+1	; 0x01
     846:	90 e0       	ldi	r25, 0x00	; 0
     848:	98 2f       	mov	r25, r24
     84a:	88 27       	eor	r24, r24
     84c:	2a 81       	ldd	r18, Y+2	; 0x02
     84e:	1c 01       	movw	r2, r24
     850:	22 2a       	or	r2, r18
     852:	81 01       	movw	r16, r2
     854:	33 0c       	add	r3, r3
     856:	22 0b       	sbc	r18, r18
     858:	33 0b       	sbc	r19, r19
     85a:	0d 8b       	std	Y+21, r16	; 0x15
     85c:	1e 8b       	std	Y+22, r17	; 0x16
     85e:	2f 8b       	std	Y+23, r18	; 0x17
     860:	38 8f       	std	Y+24, r19	; 0x18

	uint32_t mask = 1uL; // Define mask for temperature compensation bit 0 of lower byte of accelerometer bias registers
	uint8_t mask_bit[3] = {0, 0, 0}; // Define array to hold mask bit for each accelerometer bias axis
     862:	19 8e       	std	Y+25, r1	; 0x19
     864:	1a 8e       	std	Y+26, r1	; 0x1a
     866:	1b 8e       	std	Y+27, r1	; 0x1b
     868:	fe 01       	movw	r30, r28
     86a:	3d 96       	adiw	r30, 0x0d	; 13
     86c:	de 01       	movw	r26, r28
     86e:	59 96       	adiw	r26, 0x19	; 25
     870:	cd 01       	movw	r24, r26

	for(ii = 0; ii < 3; ii++) {
		if(accel_bias_reg[ii] & mask) mask_bit[ii] = 0x01; // If temperature compensation bit is set, record that fact in mask_bit
     872:	41 91       	ld	r20, Z+
     874:	51 91       	ld	r21, Z+
     876:	61 91       	ld	r22, Z+
     878:	71 91       	ld	r23, Z+
     87a:	40 ff       	sbrs	r20, 0
     87c:	02 c0       	rjmp	.+4      	; 0x882 <__LOCK_REGION_LENGTH__+0x482>
     87e:	51 e0       	ldi	r21, 0x01	; 1
     880:	5c 93       	st	X, r21
     882:	11 96       	adiw	r26, 0x01	; 1
    accel_bias_reg[2] = (int16_t) ((int16_t)data[0] << 8) | data[1];

	uint32_t mask = 1uL; // Define mask for temperature compensation bit 0 of lower byte of accelerometer bias registers
	uint8_t mask_bit[3] = {0, 0, 0}; // Define array to hold mask bit for each accelerometer bias axis

	for(ii = 0; ii < 3; ii++) {
     884:	e8 17       	cp	r30, r24
     886:	f9 07       	cpc	r31, r25
     888:	a1 f7       	brne	.-24     	; 0x872 <__LOCK_REGION_LENGTH__+0x472>
		if(accel_bias_reg[ii] & mask) mask_bit[ii] = 0x01; // If temperature compensation bit is set, record that fact in mask_bit
	}

	data[0] = (accel_bias_reg[0] >> 8) & 0xFF;
     88a:	99 82       	std	Y+1, r9	; 0x01
	data[1] = (accel_bias_reg[0])      & 0xFF;
	data[1] = data[1] | mask_bit[0]; // preserve temperature compensation bit when writing back to accelerometer bias registers
     88c:	89 8d       	ldd	r24, Y+25	; 0x19
     88e:	9c a1       	ldd	r25, Y+36	; 0x24
     890:	89 2b       	or	r24, r25
     892:	8a 83       	std	Y+2, r24	; 0x02
	data[2] = (accel_bias_reg[1] >> 8) & 0xFF;
     894:	db 82       	std	Y+3, r13	; 0x03
	data[3] = (accel_bias_reg[1])      & 0xFF;
	data[3] = data[3] | mask_bit[1]; // preserve temperature compensation bit when writing back to accelerometer bias registers
     896:	8a 8d       	ldd	r24, Y+26	; 0x1a
     898:	a8 a5       	ldd	r26, Y+40	; 0x28
     89a:	8a 2b       	or	r24, r26
     89c:	8c 83       	std	Y+4, r24	; 0x04
	data[4] = (accel_bias_reg[2] >> 8) & 0xFF;
     89e:	1d 83       	std	Y+5, r17	; 0x05
	data[5] = (accel_bias_reg[2])      & 0xFF;
	data[5] = data[5] | mask_bit[2]; // preserve temperature compensation bit when writing back to accelerometer bias registers
     8a0:	8b 8d       	ldd	r24, Y+27	; 0x1b
     8a2:	82 29       	or	r24, r2
     8a4:	8e 83       	std	Y+6, r24	; 0x06
// 	writeByte(MPU6050_ADDRESS, YA_OFFSET_L_TC, data[3]);
// 	writeByte(MPU6050_ADDRESS, ZA_OFFSET_H, data[4]);
// 	writeByte(MPU6050_ADDRESS, ZA_OFFSET_L_TC, data[5]);

	    // Output scaled accelerometer biases for manual subtraction in the main program
	    dest2[0] = (float)accel_bias[0]/(float)accelsensitivity;
     8a6:	68 a9       	ldd	r22, Y+48	; 0x30
     8a8:	79 a9       	ldd	r23, Y+49	; 0x31
     8aa:	8a a9       	ldd	r24, Y+50	; 0x32
     8ac:	9b a9       	ldd	r25, Y+51	; 0x33
     8ae:	0e 94 73 0a 	call	0x14e6	; 0x14e6 <__floatsisf>
     8b2:	20 e0       	ldi	r18, 0x00	; 0
     8b4:	30 e0       	ldi	r19, 0x00	; 0
     8b6:	40 e8       	ldi	r20, 0x80	; 128
     8b8:	58 e3       	ldi	r21, 0x38	; 56
     8ba:	0e 94 ff 0a 	call	0x15fe	; 0x15fe <__mulsf3>
     8be:	ee a5       	ldd	r30, Y+46	; 0x2e
     8c0:	ff a5       	ldd	r31, Y+47	; 0x2f
     8c2:	60 83       	st	Z, r22
     8c4:	71 83       	std	Z+1, r23	; 0x01
     8c6:	82 83       	std	Z+2, r24	; 0x02
     8c8:	93 83       	std	Z+3, r25	; 0x03
	    dest2[1] = (float)accel_bias[1]/(float)accelsensitivity;
     8ca:	6c a9       	ldd	r22, Y+52	; 0x34
     8cc:	7d a9       	ldd	r23, Y+53	; 0x35
     8ce:	8e a9       	ldd	r24, Y+54	; 0x36
     8d0:	9f a9       	ldd	r25, Y+55	; 0x37
     8d2:	0e 94 73 0a 	call	0x14e6	; 0x14e6 <__floatsisf>
     8d6:	20 e0       	ldi	r18, 0x00	; 0
     8d8:	30 e0       	ldi	r19, 0x00	; 0
     8da:	40 e8       	ldi	r20, 0x80	; 128
     8dc:	58 e3       	ldi	r21, 0x38	; 56
     8de:	0e 94 ff 0a 	call	0x15fe	; 0x15fe <__mulsf3>
     8e2:	ae a5       	ldd	r26, Y+46	; 0x2e
     8e4:	bf a5       	ldd	r27, Y+47	; 0x2f
     8e6:	14 96       	adiw	r26, 0x04	; 4
     8e8:	6d 93       	st	X+, r22
     8ea:	7d 93       	st	X+, r23
     8ec:	8d 93       	st	X+, r24
     8ee:	9c 93       	st	X, r25
     8f0:	17 97       	sbiw	r26, 0x07	; 7
	    dest2[2] = (float)accel_bias[2]/(float)accelsensitivity;
     8f2:	68 ad       	ldd	r22, Y+56	; 0x38
     8f4:	79 ad       	ldd	r23, Y+57	; 0x39
     8f6:	8a ad       	ldd	r24, Y+58	; 0x3a
     8f8:	9b ad       	ldd	r25, Y+59	; 0x3b
     8fa:	0e 94 73 0a 	call	0x14e6	; 0x14e6 <__floatsisf>
     8fe:	20 e0       	ldi	r18, 0x00	; 0
     900:	30 e0       	ldi	r19, 0x00	; 0
     902:	40 e8       	ldi	r20, 0x80	; 128
     904:	58 e3       	ldi	r21, 0x38	; 56
     906:	0e 94 ff 0a 	call	0x15fe	; 0x15fe <__mulsf3>
     90a:	ee a5       	ldd	r30, Y+46	; 0x2e
     90c:	ff a5       	ldd	r31, Y+47	; 0x2f
     90e:	60 87       	std	Z+8, r22	; 0x08
     910:	71 87       	std	Z+9, r23	; 0x09
     912:	82 87       	std	Z+10, r24	; 0x0a
     914:	93 87       	std	Z+11, r25	; 0x0b

		SendStringInt("Gyro X = ", gyro_bias[0]);
     916:	4c 8d       	ldd	r20, Y+28	; 0x1c
     918:	5d 8d       	ldd	r21, Y+29	; 0x1d
     91a:	6e 8d       	ldd	r22, Y+30	; 0x1e
     91c:	7f 8d       	ldd	r23, Y+31	; 0x1f
     91e:	81 e5       	ldi	r24, 0x51	; 81
     920:	91 e0       	ldi	r25, 0x01	; 1
     922:	0e 94 8f 08 	call	0x111e	; 0x111e <SendStringInt>
		SendStringInt("Gyro Y = ", gyro_bias[1]);
     926:	48 a1       	ldd	r20, Y+32	; 0x20
     928:	59 a1       	ldd	r21, Y+33	; 0x21
     92a:	6a a1       	ldd	r22, Y+34	; 0x22
     92c:	7b a1       	ldd	r23, Y+35	; 0x23
     92e:	8b e5       	ldi	r24, 0x5B	; 91
     930:	91 e0       	ldi	r25, 0x01	; 1
     932:	0e 94 8f 08 	call	0x111e	; 0x111e <SendStringInt>
		SendStringInt("Gyro Z = ", gyro_bias[2]);
     936:	b3 01       	movw	r22, r6
     938:	a2 01       	movw	r20, r4
     93a:	85 e6       	ldi	r24, 0x65	; 101
     93c:	91 e0       	ldi	r25, 0x01	; 1
     93e:	0e 94 8f 08 	call	0x111e	; 0x111e <SendStringInt>

		SendStringInt("Acc  X = ", accel_bias[0]);
     942:	48 a9       	ldd	r20, Y+48	; 0x30
     944:	59 a9       	ldd	r21, Y+49	; 0x31
     946:	6a a9       	ldd	r22, Y+50	; 0x32
     948:	7b a9       	ldd	r23, Y+51	; 0x33
     94a:	8f e6       	ldi	r24, 0x6F	; 111
     94c:	91 e0       	ldi	r25, 0x01	; 1
     94e:	0e 94 8f 08 	call	0x111e	; 0x111e <SendStringInt>
		SendStringInt("Acc  Y = ", accel_bias[1]);
     952:	4c a9       	ldd	r20, Y+52	; 0x34
     954:	5d a9       	ldd	r21, Y+53	; 0x35
     956:	6e a9       	ldd	r22, Y+54	; 0x36
     958:	7f a9       	ldd	r23, Y+55	; 0x37
     95a:	89 e7       	ldi	r24, 0x79	; 121
     95c:	91 e0       	ldi	r25, 0x01	; 1
     95e:	0e 94 8f 08 	call	0x111e	; 0x111e <SendStringInt>
		SendStringInt("Acc  Z = ", accel_bias[2]);
     962:	48 ad       	ldd	r20, Y+56	; 0x38
     964:	59 ad       	ldd	r21, Y+57	; 0x39
     966:	6a ad       	ldd	r22, Y+58	; 0x3a
     968:	7b ad       	ldd	r23, Y+59	; 0x3b
     96a:	83 e8       	ldi	r24, 0x83	; 131
     96c:	91 e0       	ldi	r25, 0x01	; 1
     96e:	0e 94 8f 08 	call	0x111e	; 0x111e <SendStringInt>
     972:	eb 96       	adiw	r28, 0x3b	; 59
     974:	0f b6       	in	r0, 0x3f	; 63
     976:	f8 94       	cli
     978:	de bf       	out	0x3e, r29	; 62
     97a:	0f be       	out	0x3f, r0	; 63
     97c:	cd bf       	out	0x3d, r28	; 61
     97e:	df 91       	pop	r29
     980:	cf 91       	pop	r28
     982:	1f 91       	pop	r17
     984:	0f 91       	pop	r16
     986:	ff 90       	pop	r15
     988:	ef 90       	pop	r14
     98a:	df 90       	pop	r13
     98c:	cf 90       	pop	r12
     98e:	bf 90       	pop	r11
     990:	af 90       	pop	r10
     992:	9f 90       	pop	r9
     994:	8f 90       	pop	r8
     996:	7f 90       	pop	r7
     998:	6f 90       	pop	r6
     99a:	5f 90       	pop	r5
     99c:	4f 90       	pop	r4
     99e:	3f 90       	pop	r3
     9a0:	2f 90       	pop	r2
     9a2:	08 95       	ret

000009a4 <er_service>:
		
}

int8_t er_service(char * params)
{
	SendLine("Uart is working");
     9a4:	8d e8       	ldi	r24, 0x8D	; 141
     9a6:	91 e0       	ldi	r25, 0x01	; 1
     9a8:	0e 94 99 07 	call	0xf32	; 0xf32 <SendLine>
	return 0;
     9ac:	80 e0       	ldi	r24, 0x00	; 0
     9ae:	08 95       	ret

000009b0 <ProcessString>:
	{"ER", er_service},
};


void ProcessString(uint8_t start, uint8_t stop)
{
     9b0:	cf 92       	push	r12
     9b2:	df 92       	push	r13
     9b4:	ef 92       	push	r14
     9b6:	ff 92       	push	r15
     9b8:	1f 93       	push	r17
     9ba:	cf 93       	push	r28
     9bc:	df 93       	push	r29
     9be:	cd b7       	in	r28, 0x3d	; 61
     9c0:	de b7       	in	r29, 0x3e	; 62
     9c2:	a2 97       	sbiw	r28, 0x22	; 34
     9c4:	0f b6       	in	r0, 0x3f	; 63
     9c6:	f8 94       	cli
     9c8:	de bf       	out	0x3e, r29	; 62
     9ca:	0f be       	out	0x3f, r0	; 63
     9cc:	cd bf       	out	0x3d, r28	; 61
     9ce:	fe 01       	movw	r30, r28
     9d0:	31 96       	adiw	r30, 0x01	; 1
     9d2:	9e 01       	movw	r18, r28
     9d4:	2f 5d       	subi	r18, 0xDF	; 223
     9d6:	3f 4f       	sbci	r19, 0xFF	; 255
	char string[RX_SIZE];
	uint8_t i;	//counter value

	for (i=0; i<RX_SIZE; i++)
	{
		string[i] = 0;
     9d8:	11 92       	st	Z+, r1
	
	//	stop = (stop +1) & RX_SIZE_BIN;
	char string[RX_SIZE];
	uint8_t i;	//counter value

	for (i=0; i<RX_SIZE; i++)
     9da:	2e 17       	cp	r18, r30
     9dc:	3f 07       	cpc	r19, r31
     9de:	e1 f7       	brne	.-8      	; 0x9d8 <ProcessString+0x28>
	}

	i=0;

	// Assign rX string to command
	while (start!=stop)
     9e0:	86 17       	cp	r24, r22
     9e2:	99 f0       	breq	.+38     	; 0xa0a <ProcessString+0x5a>
     9e4:	10 e0       	ldi	r17, 0x00	; 0
	{
		string[i] = RxBuffor[start];
     9e6:	a1 e0       	ldi	r26, 0x01	; 1
     9e8:	b0 e0       	ldi	r27, 0x00	; 0
     9ea:	ac 0f       	add	r26, r28
     9ec:	bd 1f       	adc	r27, r29
     9ee:	a1 0f       	add	r26, r17
     9f0:	b1 1d       	adc	r27, r1
     9f2:	e8 2f       	mov	r30, r24
     9f4:	f0 e0       	ldi	r31, 0x00	; 0
     9f6:	e9 5a       	subi	r30, 0xA9	; 169
     9f8:	fd 4f       	sbci	r31, 0xFD	; 253
     9fa:	90 81       	ld	r25, Z
     9fc:	9c 93       	st	X, r25
		start = (start + 1) & RX_SIZE_BIN;
     9fe:	8f 5f       	subi	r24, 0xFF	; 255
     a00:	8f 71       	andi	r24, 0x1F	; 31
		i++;
     a02:	1f 5f       	subi	r17, 0xFF	; 255
	}

	i=0;

	// Assign rX string to command
	while (start!=stop)
     a04:	68 13       	cpse	r22, r24
     a06:	ef cf       	rjmp	.-34     	; 0x9e6 <ProcessString+0x36>
     a08:	01 c0       	rjmp	.+2      	; 0xa0c <ProcessString+0x5c>
     a0a:	10 e0       	ldi	r17, 0x00	; 0
	}

	char * rest;
	char * begining;

	begining = strtok_r(string, " ", &rest);
     a0c:	ae 01       	movw	r20, r28
     a0e:	4f 5d       	subi	r20, 0xDF	; 223
     a10:	5f 4f       	sbci	r21, 0xFF	; 255
     a12:	6b ea       	ldi	r22, 0xAB	; 171
     a14:	71 e0       	ldi	r23, 0x01	; 1
     a16:	ce 01       	movw	r24, r28
     a18:	01 96       	adiw	r24, 0x01	; 1
     a1a:	0e 94 e3 0b 	call	0x17c6	; 0x17c6 <strtok_r>
     a1e:	6c 01       	movw	r12, r24

	uint8_t j;
	uint8_t command_length;
	uint8_t string_length = strlen(begining);
     a20:	fc 01       	movw	r30, r24
     a22:	01 90       	ld	r0, Z+
     a24:	00 20       	and	r0, r0
     a26:	e9 f7       	brne	.-6      	; 0xa22 <ProcessString+0x72>
     a28:	31 97       	sbiw	r30, 0x01	; 1
     a2a:	7f 01       	movw	r14, r30
     a2c:	e8 1a       	sub	r14, r24
     a2e:	f9 0a       	sbc	r15, r25
#else
extern size_t __strlen_P(const char *) __ATTR_CONST__;  /* internal helper function */
__attribute__((__always_inline__)) static __inline__ size_t strlen_P(const char * s);
static __inline__ size_t strlen_P(const char *s) {
  return __builtin_constant_p(__builtin_strlen(s))
     ? __builtin_strlen(s) : __strlen_P(s);
     a30:	86 ec       	ldi	r24, 0xC6	; 198
     a32:	90 e0       	ldi	r25, 0x00	; 0
     a34:	0e 94 c2 0b 	call	0x1784	; 0x1784 <__strlen_P>
	for (j=0; j < RX_COMMANDS; j++)
	{
		command_length = strlen_P(ER_commands[j].command);
		
		if (command_length == string_length)
     a38:	8e 11       	cpse	r24, r14
     a3a:	12 c0       	rjmp	.+36     	; 0xa60 <ProcessString+0xb0>
		{
			if (0 == strncasecmp_P(begining, ER_commands[j].command, i))
     a3c:	41 2f       	mov	r20, r17
     a3e:	50 e0       	ldi	r21, 0x00	; 0
     a40:	66 ec       	ldi	r22, 0xC6	; 198
     a42:	70 e0       	ldi	r23, 0x00	; 0
     a44:	c6 01       	movw	r24, r12
     a46:	0e 94 cb 0b 	call	0x1796	; 0x1796 <strncasecmp_P>
     a4a:	89 2b       	or	r24, r25
     a4c:	49 f4       	brne	.+18     	; 0xa60 <ProcessString+0xb0>
			{
				_er_srv = (void *)pgm_read_word(&ER_commands[j].ER_service);
     a4e:	ea ed       	ldi	r30, 0xDA	; 218
     a50:	f0 e0       	ldi	r31, 0x00	; 0
     a52:	25 91       	lpm	r18, Z+
     a54:	34 91       	lpm	r19, Z
				_er_srv(rest);
     a56:	89 a1       	ldd	r24, Y+33	; 0x21
     a58:	9a a1       	ldd	r25, Y+34	; 0x22
     a5a:	f9 01       	movw	r30, r18
     a5c:	09 95       	icall
		SendString("Wrong command: ");
		SendString(string);
		SendEnter();
	}
		
}
     a5e:	0a c0       	rjmp	.+20     	; 0xa74 <ProcessString+0xc4>
			}
		}
	}
	if (j==RX_COMMANDS)
	{
		SendString("Wrong command: ");
     a60:	8d e9       	ldi	r24, 0x9D	; 157
     a62:	91 e0       	ldi	r25, 0x01	; 1
     a64:	0e 94 7c 07 	call	0xef8	; 0xef8 <SendString>
		SendString(string);
     a68:	ce 01       	movw	r24, r28
     a6a:	01 96       	adiw	r24, 0x01	; 1
     a6c:	0e 94 7c 07 	call	0xef8	; 0xef8 <SendString>
		SendEnter();
     a70:	0e 94 92 07 	call	0xf24	; 0xf24 <SendEnter>
	}
		
}
     a74:	a2 96       	adiw	r28, 0x22	; 34
     a76:	0f b6       	in	r0, 0x3f	; 63
     a78:	f8 94       	cli
     a7a:	de bf       	out	0x3e, r29	; 62
     a7c:	0f be       	out	0x3f, r0	; 63
     a7e:	cd bf       	out	0x3d, r28	; 61
     a80:	df 91       	pop	r29
     a82:	cf 91       	pop	r28
     a84:	1f 91       	pop	r17
     a86:	ff 90       	pop	r15
     a88:	ef 90       	pop	r14
     a8a:	df 90       	pop	r13
     a8c:	cf 90       	pop	r12
     a8e:	08 95       	ret

00000a90 <__vector_24>:
void TWI_read(uint8_t ack) {
	TWCR0 = (1<<TWINT)|(ack<<TWEA)|(1<<TWEN)|(1<<TWIE);
}

ISR (TWI0_vect)	//TWI finished vector
{	//TWI interrupt
     a90:	1f 92       	push	r1
     a92:	0f 92       	push	r0
     a94:	0f b6       	in	r0, 0x3f	; 63
     a96:	0f 92       	push	r0
     a98:	11 24       	eor	r1, r1
     a9a:	2f 93       	push	r18
     a9c:	3f 93       	push	r19
     a9e:	4f 93       	push	r20
     aa0:	5f 93       	push	r21
     aa2:	8f 93       	push	r24
     aa4:	9f 93       	push	r25
     aa6:	af 93       	push	r26
     aa8:	bf 93       	push	r27
     aaa:	ef 93       	push	r30
     aac:	ff 93       	push	r31

	uint8_t SLA = ((uint8_t)twi_bufor[twi_buf_pos.tail].sla << 1);
     aae:	e0 91 b6 01 	lds	r30, 0x01B6	; 0x8001b6 <twi_buf_pos>
     ab2:	e6 95       	lsr	r30
     ab4:	e6 95       	lsr	r30
     ab6:	e6 95       	lsr	r30
     ab8:	e7 70       	andi	r30, 0x07	; 7
     aba:	4e 2f       	mov	r20, r30
     abc:	50 e0       	ldi	r21, 0x00	; 0
     abe:	84 e1       	ldi	r24, 0x14	; 20
     ac0:	e8 9f       	mul	r30, r24
     ac2:	f0 01       	movw	r30, r0
     ac4:	11 24       	eor	r1, r1
     ac6:	e9 54       	subi	r30, 0x49	; 73
     ac8:	fe 4f       	sbci	r31, 0xFE	; 254
     aca:	80 81       	ld	r24, Z
     acc:	28 2f       	mov	r18, r24
     ace:	2e 7f       	andi	r18, 0xFE	; 254
	uint8_t REG = twi_bufor[twi_buf_pos.tail].reg;
	
	switch (twi_bufor[twi_buf_pos.tail].status){
     ad0:	e3 89       	ldd	r30, Z+19	; 0x13
     ad2:	8e 2f       	mov	r24, r30
     ad4:	90 e0       	ldi	r25, 0x00	; 0
     ad6:	fc 01       	movw	r30, r24
     ad8:	34 97       	sbiw	r30, 0x04	; 4
     ada:	e9 30       	cpi	r30, 0x09	; 9
     adc:	f1 05       	cpc	r31, r1
     ade:	08 f0       	brcs	.+2      	; 0xae2 <__vector_24+0x52>
     ae0:	e4 c1       	rjmp	.+968    	; 0xeaa <__vector_24+0x41a>
     ae2:	e6 5a       	subi	r30, 0xA6	; 166
     ae4:	ff 4f       	sbci	r31, 0xFF	; 255
     ae6:	0c 94 8b 0b 	jmp	0x1716	; 0x1716 <__tablejump2__>
void TWI_stop(void) {
	TWCR0 = (1<<TWINT)|(1<<TWEN)|(1<<TWSTO)|(1<<TWIE);
}

void TWI_write(uint8_t bajt) {
	TWDR0 = bajt;
     aea:	20 93 bb 00 	sts	0x00BB, r18	; 0x8000bb <__TEXT_REGION_LENGTH__+0x7e00bb>
	TWCR0 = (1<<TWINT)|(1<<TWEN)|(1<<TWIE);
     aee:	85 e8       	ldi	r24, 0x85	; 133
     af0:	80 93 bc 00 	sts	0x00BC, r24	; 0x8000bc <__TEXT_REGION_LENGTH__+0x7e00bc>
	uint8_t REG = twi_bufor[twi_buf_pos.tail].reg;
	
	switch (twi_bufor[twi_buf_pos.tail].status){
		case start:
			TWI_write(SLA);
			twi_bufor[twi_buf_pos.tail].status = write_adress;
     af4:	e0 91 b6 01 	lds	r30, 0x01B6	; 0x8001b6 <twi_buf_pos>
     af8:	e6 95       	lsr	r30
     afa:	e6 95       	lsr	r30
     afc:	e6 95       	lsr	r30
     afe:	e7 70       	andi	r30, 0x07	; 7
     b00:	84 e1       	ldi	r24, 0x14	; 20
     b02:	e8 9f       	mul	r30, r24
     b04:	f0 01       	movw	r30, r0
     b06:	11 24       	eor	r1, r1
     b08:	e9 54       	subi	r30, 0x49	; 73
     b0a:	fe 4f       	sbci	r31, 0xFE	; 254
     b0c:	85 e0       	ldi	r24, 0x05	; 5
     b0e:	83 8b       	std	Z+19, r24	; 0x13
			break;
     b10:	cc c1       	rjmp	.+920    	; 0xeaa <__vector_24+0x41a>

ISR (TWI0_vect)	//TWI finished vector
{	//TWI interrupt

	uint8_t SLA = ((uint8_t)twi_bufor[twi_buf_pos.tail].sla << 1);
	uint8_t REG = twi_bufor[twi_buf_pos.tail].reg;
     b12:	84 e1       	ldi	r24, 0x14	; 20
     b14:	84 9f       	mul	r24, r20
     b16:	f0 01       	movw	r30, r0
     b18:	85 9f       	mul	r24, r21
     b1a:	f0 0d       	add	r31, r0
     b1c:	11 24       	eor	r1, r1
     b1e:	e9 54       	subi	r30, 0x49	; 73
     b20:	fe 4f       	sbci	r31, 0xFE	; 254
     b22:	91 81       	ldd	r25, Z+1	; 0x01
void TWI_stop(void) {
	TWCR0 = (1<<TWINT)|(1<<TWEN)|(1<<TWSTO)|(1<<TWIE);
}

void TWI_write(uint8_t bajt) {
	TWDR0 = bajt;
     b24:	90 93 bb 00 	sts	0x00BB, r25	; 0x8000bb <__TEXT_REGION_LENGTH__+0x7e00bb>
	TWCR0 = (1<<TWINT)|(1<<TWEN)|(1<<TWIE);
     b28:	95 e8       	ldi	r25, 0x85	; 133
     b2a:	90 93 bc 00 	sts	0x00BC, r25	; 0x8000bc <__TEXT_REGION_LENGTH__+0x7e00bc>
			twi_bufor[twi_buf_pos.tail].status = write_adress;
			break;

		case write_adress:
			TWI_write(REG);
			twi_bufor[twi_buf_pos.tail].status = write_register;
     b2e:	e0 91 b6 01 	lds	r30, 0x01B6	; 0x8001b6 <twi_buf_pos>
     b32:	e6 95       	lsr	r30
     b34:	e6 95       	lsr	r30
     b36:	e6 95       	lsr	r30
     b38:	e7 70       	andi	r30, 0x07	; 7
     b3a:	8e 9f       	mul	r24, r30
     b3c:	f0 01       	movw	r30, r0
     b3e:	11 24       	eor	r1, r1
     b40:	e9 54       	subi	r30, 0x49	; 73
     b42:	fe 4f       	sbci	r31, 0xFE	; 254
     b44:	86 e0       	ldi	r24, 0x06	; 6
     b46:	83 8b       	std	Z+19, r24	; 0x13
			break;
     b48:	b0 c1       	rjmp	.+864    	; 0xeaa <__vector_24+0x41a>

		case write_register:
			if (twi_bufor[twi_buf_pos.tail].read)	//check if reading is required
     b4a:	84 e1       	ldi	r24, 0x14	; 20
     b4c:	84 9f       	mul	r24, r20
     b4e:	f0 01       	movw	r30, r0
     b50:	85 9f       	mul	r24, r21
     b52:	f0 0d       	add	r31, r0
     b54:	11 24       	eor	r1, r1
     b56:	e9 54       	subi	r30, 0x49	; 73
     b58:	fe 4f       	sbci	r31, 0xFE	; 254
     b5a:	80 81       	ld	r24, Z
     b5c:	80 ff       	sbrs	r24, 0
     b5e:	12 c0       	rjmp	.+36     	; 0xb84 <__vector_24+0xf4>
}

//low level functions

void TWI_start(void) {
	TWCR0 = (1<<TWINT)|(1<<TWEN)|(1<<TWSTA)|(1<<TWIE);
     b60:	85 ea       	ldi	r24, 0xA5	; 165
     b62:	80 93 bc 00 	sts	0x00BC, r24	; 0x8000bc <__TEXT_REGION_LENGTH__+0x7e00bc>

		case write_register:
			if (twi_bufor[twi_buf_pos.tail].read)	//check if reading is required
			{
				TWI_start();
				twi_bufor[twi_buf_pos.tail].status = restart;
     b66:	e0 91 b6 01 	lds	r30, 0x01B6	; 0x8001b6 <twi_buf_pos>
     b6a:	e6 95       	lsr	r30
     b6c:	e6 95       	lsr	r30
     b6e:	e6 95       	lsr	r30
     b70:	e7 70       	andi	r30, 0x07	; 7
     b72:	84 e1       	ldi	r24, 0x14	; 20
     b74:	e8 9f       	mul	r30, r24
     b76:	f0 01       	movw	r30, r0
     b78:	11 24       	eor	r1, r1
     b7a:	e9 54       	subi	r30, 0x49	; 73
     b7c:	fe 4f       	sbci	r31, 0xFE	; 254
     b7e:	87 e0       	ldi	r24, 0x07	; 7
     b80:	83 8b       	std	Z+19, r24	; 0x13
     b82:	93 c1       	rjmp	.+806    	; 0xeaa <__vector_24+0x41a>
			}
			else	//process writing
			{
				if (twi_bufor[twi_buf_pos.tail].lenght > 1){	//if more than 1 char to write
     b84:	84 e1       	ldi	r24, 0x14	; 20
     b86:	84 9f       	mul	r24, r20
     b88:	f0 01       	movw	r30, r0
     b8a:	85 9f       	mul	r24, r21
     b8c:	f0 0d       	add	r31, r0
     b8e:	11 24       	eor	r1, r1
     b90:	e9 54       	subi	r30, 0x49	; 73
     b92:	fe 4f       	sbci	r31, 0xFE	; 254
     b94:	87 85       	ldd	r24, Z+15	; 0x0f
     b96:	82 30       	cpi	r24, 0x02	; 2
     b98:	e8 f0       	brcs	.+58     	; 0xbd4 <__vector_24+0x144>
					TWI_write(twi_bufor[twi_buf_pos.tail].bufor[0]);
     b9a:	84 e1       	ldi	r24, 0x14	; 20
     b9c:	84 9f       	mul	r24, r20
     b9e:	f0 01       	movw	r30, r0
     ba0:	85 9f       	mul	r24, r21
     ba2:	f0 0d       	add	r31, r0
     ba4:	11 24       	eor	r1, r1
     ba6:	e9 54       	subi	r30, 0x49	; 73
     ba8:	fe 4f       	sbci	r31, 0xFE	; 254
     baa:	92 81       	ldd	r25, Z+2	; 0x02
void TWI_stop(void) {
	TWCR0 = (1<<TWINT)|(1<<TWEN)|(1<<TWSTO)|(1<<TWIE);
}

void TWI_write(uint8_t bajt) {
	TWDR0 = bajt;
     bac:	90 93 bb 00 	sts	0x00BB, r25	; 0x8000bb <__TEXT_REGION_LENGTH__+0x7e00bb>
	TWCR0 = (1<<TWINT)|(1<<TWEN)|(1<<TWIE);
     bb0:	95 e8       	ldi	r25, 0x85	; 133
     bb2:	90 93 bc 00 	sts	0x00BC, r25	; 0x8000bc <__TEXT_REGION_LENGTH__+0x7e00bc>
			}
			else	//process writing
			{
				if (twi_bufor[twi_buf_pos.tail].lenght > 1){	//if more than 1 char to write
					TWI_write(twi_bufor[twi_buf_pos.tail].bufor[0]);
					twi_bufor[twi_buf_pos.tail].status = write;
     bb6:	e0 91 b6 01 	lds	r30, 0x01B6	; 0x8001b6 <twi_buf_pos>
     bba:	e6 95       	lsr	r30
     bbc:	e6 95       	lsr	r30
     bbe:	e6 95       	lsr	r30
     bc0:	e7 70       	andi	r30, 0x07	; 7
     bc2:	8e 9f       	mul	r24, r30
     bc4:	f0 01       	movw	r30, r0
     bc6:	11 24       	eor	r1, r1
     bc8:	e9 54       	subi	r30, 0x49	; 73
     bca:	fe 4f       	sbci	r31, 0xFE	; 254
     bcc:	8b e0       	ldi	r24, 0x0B	; 11
     bce:	83 8b       	std	Z+19, r24	; 0x13
					twi_bufor[twi_buf_pos.tail].buf_pos = 0;
     bd0:	14 86       	std	Z+12, r1	; 0x0c
     bd2:	1b c0       	rjmp	.+54     	; 0xc0a <__vector_24+0x17a>
				}

				else {	//only 1 byte to send
					TWI_write(twi_bufor[twi_buf_pos.tail].bufor[0]);
     bd4:	84 e1       	ldi	r24, 0x14	; 20
     bd6:	84 9f       	mul	r24, r20
     bd8:	f0 01       	movw	r30, r0
     bda:	85 9f       	mul	r24, r21
     bdc:	f0 0d       	add	r31, r0
     bde:	11 24       	eor	r1, r1
     be0:	e9 54       	subi	r30, 0x49	; 73
     be2:	fe 4f       	sbci	r31, 0xFE	; 254
     be4:	92 81       	ldd	r25, Z+2	; 0x02
void TWI_stop(void) {
	TWCR0 = (1<<TWINT)|(1<<TWEN)|(1<<TWSTO)|(1<<TWIE);
}

void TWI_write(uint8_t bajt) {
	TWDR0 = bajt;
     be6:	90 93 bb 00 	sts	0x00BB, r25	; 0x8000bb <__TEXT_REGION_LENGTH__+0x7e00bb>
	TWCR0 = (1<<TWINT)|(1<<TWEN)|(1<<TWIE);
     bea:	95 e8       	ldi	r25, 0x85	; 133
     bec:	90 93 bc 00 	sts	0x00BC, r25	; 0x8000bc <__TEXT_REGION_LENGTH__+0x7e00bc>
					twi_bufor[twi_buf_pos.tail].buf_pos = 0;
				}

				else {	//only 1 byte to send
					TWI_write(twi_bufor[twi_buf_pos.tail].bufor[0]);
					twi_bufor[twi_buf_pos.tail].status = last_byte_write;
     bf0:	e0 91 b6 01 	lds	r30, 0x01B6	; 0x8001b6 <twi_buf_pos>
     bf4:	e6 95       	lsr	r30
     bf6:	e6 95       	lsr	r30
     bf8:	e6 95       	lsr	r30
     bfa:	e7 70       	andi	r30, 0x07	; 7
     bfc:	8e 9f       	mul	r24, r30
     bfe:	f0 01       	movw	r30, r0
     c00:	11 24       	eor	r1, r1
     c02:	e9 54       	subi	r30, 0x49	; 73
     c04:	fe 4f       	sbci	r31, 0xFE	; 254
     c06:	8c e0       	ldi	r24, 0x0C	; 12
     c08:	83 8b       	std	Z+19, r24	; 0x13
				}
				twi_bufor[twi_buf_pos.tail].lenght --;
     c0a:	e0 91 b6 01 	lds	r30, 0x01B6	; 0x8001b6 <twi_buf_pos>
     c0e:	e6 95       	lsr	r30
     c10:	e6 95       	lsr	r30
     c12:	e6 95       	lsr	r30
     c14:	e7 70       	andi	r30, 0x07	; 7
     c16:	84 e1       	ldi	r24, 0x14	; 20
     c18:	e8 9f       	mul	r30, r24
     c1a:	f0 01       	movw	r30, r0
     c1c:	11 24       	eor	r1, r1
     c1e:	e9 54       	subi	r30, 0x49	; 73
     c20:	fe 4f       	sbci	r31, 0xFE	; 254
     c22:	87 85       	ldd	r24, Z+15	; 0x0f
     c24:	81 50       	subi	r24, 0x01	; 1
     c26:	87 87       	std	Z+15, r24	; 0x0f
     c28:	40 c1       	rjmp	.+640    	; 0xeaa <__vector_24+0x41a>
			}
			break;

		case restart:
			SLA++;
     c2a:	81 e0       	ldi	r24, 0x01	; 1
     c2c:	82 0f       	add	r24, r18
void TWI_stop(void) {
	TWCR0 = (1<<TWINT)|(1<<TWEN)|(1<<TWSTO)|(1<<TWIE);
}

void TWI_write(uint8_t bajt) {
	TWDR0 = bajt;
     c2e:	80 93 bb 00 	sts	0x00BB, r24	; 0x8000bb <__TEXT_REGION_LENGTH__+0x7e00bb>
	TWCR0 = (1<<TWINT)|(1<<TWEN)|(1<<TWIE);
     c32:	85 e8       	ldi	r24, 0x85	; 133
     c34:	80 93 bc 00 	sts	0x00BC, r24	; 0x8000bc <__TEXT_REGION_LENGTH__+0x7e00bc>
			break;

		case restart:
			SLA++;
			TWI_write(SLA);
			twi_bufor[twi_buf_pos.tail].status = set_to_read;
     c38:	e0 91 b6 01 	lds	r30, 0x01B6	; 0x8001b6 <twi_buf_pos>
     c3c:	e6 95       	lsr	r30
     c3e:	e6 95       	lsr	r30
     c40:	e6 95       	lsr	r30
     c42:	e7 70       	andi	r30, 0x07	; 7
     c44:	84 e1       	ldi	r24, 0x14	; 20
     c46:	e8 9f       	mul	r30, r24
     c48:	f0 01       	movw	r30, r0
     c4a:	11 24       	eor	r1, r1
     c4c:	e9 54       	subi	r30, 0x49	; 73
     c4e:	fe 4f       	sbci	r31, 0xFE	; 254
     c50:	88 e0       	ldi	r24, 0x08	; 8
     c52:	83 8b       	std	Z+19, r24	; 0x13
			break;
     c54:	2a c1       	rjmp	.+596    	; 0xeaa <__vector_24+0x41a>

		case set_to_read:
			if (twi_bufor[twi_buf_pos.tail].lenght > 1){
     c56:	84 e1       	ldi	r24, 0x14	; 20
     c58:	84 9f       	mul	r24, r20
     c5a:	f0 01       	movw	r30, r0
     c5c:	85 9f       	mul	r24, r21
     c5e:	f0 0d       	add	r31, r0
     c60:	11 24       	eor	r1, r1
     c62:	e9 54       	subi	r30, 0x49	; 73
     c64:	fe 4f       	sbci	r31, 0xFE	; 254
     c66:	87 85       	ldd	r24, Z+15	; 0x0f
     c68:	82 30       	cpi	r24, 0x02	; 2
     c6a:	90 f0       	brcs	.+36     	; 0xc90 <__vector_24+0x200>
	TWDR0 = bajt;
	TWCR0 = (1<<TWINT)|(1<<TWEN)|(1<<TWIE);
}

void TWI_read(uint8_t ack) {
	TWCR0 = (1<<TWINT)|(ack<<TWEA)|(1<<TWEN)|(1<<TWIE);
     c6c:	85 ec       	ldi	r24, 0xC5	; 197
     c6e:	80 93 bc 00 	sts	0x00BC, r24	; 0x8000bc <__TEXT_REGION_LENGTH__+0x7e00bc>
			break;

		case set_to_read:
			if (twi_bufor[twi_buf_pos.tail].lenght > 1){
				TWI_read(ACK);
				twi_bufor[twi_buf_pos.tail].status = read;
     c72:	e0 91 b6 01 	lds	r30, 0x01B6	; 0x8001b6 <twi_buf_pos>
     c76:	e6 95       	lsr	r30
     c78:	e6 95       	lsr	r30
     c7a:	e6 95       	lsr	r30
     c7c:	e7 70       	andi	r30, 0x07	; 7
     c7e:	84 e1       	ldi	r24, 0x14	; 20
     c80:	e8 9f       	mul	r30, r24
     c82:	f0 01       	movw	r30, r0
     c84:	11 24       	eor	r1, r1
     c86:	e9 54       	subi	r30, 0x49	; 73
     c88:	fe 4f       	sbci	r31, 0xFE	; 254
     c8a:	89 e0       	ldi	r24, 0x09	; 9
     c8c:	83 8b       	std	Z+19, r24	; 0x13
     c8e:	11 c0       	rjmp	.+34     	; 0xcb2 <__vector_24+0x222>
	TWDR0 = bajt;
	TWCR0 = (1<<TWINT)|(1<<TWEN)|(1<<TWIE);
}

void TWI_read(uint8_t ack) {
	TWCR0 = (1<<TWINT)|(ack<<TWEA)|(1<<TWEN)|(1<<TWIE);
     c90:	85 e8       	ldi	r24, 0x85	; 133
     c92:	80 93 bc 00 	sts	0x00BC, r24	; 0x8000bc <__TEXT_REGION_LENGTH__+0x7e00bc>

			}
			
			else{
				TWI_read(NACK);
				twi_bufor[twi_buf_pos.tail].status = stop_reading;
     c96:	e0 91 b6 01 	lds	r30, 0x01B6	; 0x8001b6 <twi_buf_pos>
     c9a:	e6 95       	lsr	r30
     c9c:	e6 95       	lsr	r30
     c9e:	e6 95       	lsr	r30
     ca0:	e7 70       	andi	r30, 0x07	; 7
     ca2:	84 e1       	ldi	r24, 0x14	; 20
     ca4:	e8 9f       	mul	r30, r24
     ca6:	f0 01       	movw	r30, r0
     ca8:	11 24       	eor	r1, r1
     caa:	e9 54       	subi	r30, 0x49	; 73
     cac:	fe 4f       	sbci	r31, 0xFE	; 254
     cae:	8a e0       	ldi	r24, 0x0A	; 10
     cb0:	83 8b       	std	Z+19, r24	; 0x13
			}

			twi_bufor[twi_buf_pos.tail].lenght --;
     cb2:	e0 91 b6 01 	lds	r30, 0x01B6	; 0x8001b6 <twi_buf_pos>
     cb6:	e6 95       	lsr	r30
     cb8:	e6 95       	lsr	r30
     cba:	e6 95       	lsr	r30
     cbc:	e7 70       	andi	r30, 0x07	; 7
     cbe:	84 e1       	ldi	r24, 0x14	; 20
     cc0:	e8 9f       	mul	r30, r24
     cc2:	f0 01       	movw	r30, r0
     cc4:	11 24       	eor	r1, r1
     cc6:	e9 54       	subi	r30, 0x49	; 73
     cc8:	fe 4f       	sbci	r31, 0xFE	; 254
     cca:	87 85       	ldd	r24, Z+15	; 0x0f
     ccc:	81 50       	subi	r24, 0x01	; 1
     cce:	87 87       	std	Z+15, r24	; 0x0f
			break;
     cd0:	ec c0       	rjmp	.+472    	; 0xeaa <__vector_24+0x41a>

		case read:
			*twi_bufor[twi_buf_pos.tail].bufor_ref++ = TWDR0;	//read received byte
     cd2:	84 e1       	ldi	r24, 0x14	; 20
     cd4:	84 9f       	mul	r24, r20
     cd6:	f0 01       	movw	r30, r0
     cd8:	85 9f       	mul	r24, r21
     cda:	f0 0d       	add	r31, r0
     cdc:	11 24       	eor	r1, r1
     cde:	e9 54       	subi	r30, 0x49	; 73
     ce0:	fe 4f       	sbci	r31, 0xFE	; 254
     ce2:	a5 85       	ldd	r26, Z+13	; 0x0d
     ce4:	b6 85       	ldd	r27, Z+14	; 0x0e
     ce6:	9d 01       	movw	r18, r26
     ce8:	2f 5f       	subi	r18, 0xFF	; 255
     cea:	3f 4f       	sbci	r19, 0xFF	; 255
     cec:	36 87       	std	Z+14, r19	; 0x0e
     cee:	25 87       	std	Z+13, r18	; 0x0d
     cf0:	90 91 bb 00 	lds	r25, 0x00BB	; 0x8000bb <__TEXT_REGION_LENGTH__+0x7e00bb>
     cf4:	9c 93       	st	X, r25
			if (twi_bufor[twi_buf_pos.tail].lenght > 1){
     cf6:	e0 91 b6 01 	lds	r30, 0x01B6	; 0x8001b6 <twi_buf_pos>
     cfa:	e6 95       	lsr	r30
     cfc:	e6 95       	lsr	r30
     cfe:	e6 95       	lsr	r30
     d00:	e7 70       	andi	r30, 0x07	; 7
     d02:	8e 9f       	mul	r24, r30
     d04:	f0 01       	movw	r30, r0
     d06:	11 24       	eor	r1, r1
     d08:	e9 54       	subi	r30, 0x49	; 73
     d0a:	fe 4f       	sbci	r31, 0xFE	; 254
     d0c:	87 85       	ldd	r24, Z+15	; 0x0f
     d0e:	82 30       	cpi	r24, 0x02	; 2
     d10:	90 f0       	brcs	.+36     	; 0xd36 <__vector_24+0x2a6>
	TWDR0 = bajt;
	TWCR0 = (1<<TWINT)|(1<<TWEN)|(1<<TWIE);
}

void TWI_read(uint8_t ack) {
	TWCR0 = (1<<TWINT)|(ack<<TWEA)|(1<<TWEN)|(1<<TWIE);
     d12:	85 ec       	ldi	r24, 0xC5	; 197
     d14:	80 93 bc 00 	sts	0x00BC, r24	; 0x8000bc <__TEXT_REGION_LENGTH__+0x7e00bc>

		case read:
			*twi_bufor[twi_buf_pos.tail].bufor_ref++ = TWDR0;	//read received byte
			if (twi_bufor[twi_buf_pos.tail].lenght > 1){
				TWI_read(ACK);	//going to read more
				twi_bufor[twi_buf_pos.tail].status = read;
     d18:	e0 91 b6 01 	lds	r30, 0x01B6	; 0x8001b6 <twi_buf_pos>
     d1c:	e6 95       	lsr	r30
     d1e:	e6 95       	lsr	r30
     d20:	e6 95       	lsr	r30
     d22:	e7 70       	andi	r30, 0x07	; 7
     d24:	84 e1       	ldi	r24, 0x14	; 20
     d26:	e8 9f       	mul	r30, r24
     d28:	f0 01       	movw	r30, r0
     d2a:	11 24       	eor	r1, r1
     d2c:	e9 54       	subi	r30, 0x49	; 73
     d2e:	fe 4f       	sbci	r31, 0xFE	; 254
     d30:	89 e0       	ldi	r24, 0x09	; 9
     d32:	83 8b       	std	Z+19, r24	; 0x13
     d34:	11 c0       	rjmp	.+34     	; 0xd58 <__vector_24+0x2c8>
	TWDR0 = bajt;
	TWCR0 = (1<<TWINT)|(1<<TWEN)|(1<<TWIE);
}

void TWI_read(uint8_t ack) {
	TWCR0 = (1<<TWINT)|(ack<<TWEA)|(1<<TWEN)|(1<<TWIE);
     d36:	85 e8       	ldi	r24, 0x85	; 133
     d38:	80 93 bc 00 	sts	0x00BC, r24	; 0x8000bc <__TEXT_REGION_LENGTH__+0x7e00bc>
				TWI_read(ACK);	//going to read more
				twi_bufor[twi_buf_pos.tail].status = read;
			}
			else{
				TWI_read(NACK);	//finishing reading
				twi_bufor[twi_buf_pos.tail].status = stop_reading;
     d3c:	e0 91 b6 01 	lds	r30, 0x01B6	; 0x8001b6 <twi_buf_pos>
     d40:	e6 95       	lsr	r30
     d42:	e6 95       	lsr	r30
     d44:	e6 95       	lsr	r30
     d46:	e7 70       	andi	r30, 0x07	; 7
     d48:	84 e1       	ldi	r24, 0x14	; 20
     d4a:	e8 9f       	mul	r30, r24
     d4c:	f0 01       	movw	r30, r0
     d4e:	11 24       	eor	r1, r1
     d50:	e9 54       	subi	r30, 0x49	; 73
     d52:	fe 4f       	sbci	r31, 0xFE	; 254
     d54:	8a e0       	ldi	r24, 0x0A	; 10
     d56:	83 8b       	std	Z+19, r24	; 0x13
			}
			twi_bufor[twi_buf_pos.tail].lenght --;
     d58:	e0 91 b6 01 	lds	r30, 0x01B6	; 0x8001b6 <twi_buf_pos>
     d5c:	e6 95       	lsr	r30
     d5e:	e6 95       	lsr	r30
     d60:	e6 95       	lsr	r30
     d62:	e7 70       	andi	r30, 0x07	; 7
     d64:	84 e1       	ldi	r24, 0x14	; 20
     d66:	e8 9f       	mul	r30, r24
     d68:	f0 01       	movw	r30, r0
     d6a:	11 24       	eor	r1, r1
     d6c:	e9 54       	subi	r30, 0x49	; 73
     d6e:	fe 4f       	sbci	r31, 0xFE	; 254
     d70:	87 85       	ldd	r24, Z+15	; 0x0f
     d72:	81 50       	subi	r24, 0x01	; 1
     d74:	87 87       	std	Z+15, r24	; 0x0f
			break;
     d76:	99 c0       	rjmp	.+306    	; 0xeaa <__vector_24+0x41a>

		case stop_reading:
			*twi_bufor[twi_buf_pos.tail].bufor_ref++ = TWDR0;	//read last received byte
     d78:	84 e1       	ldi	r24, 0x14	; 20
     d7a:	84 9f       	mul	r24, r20
     d7c:	f0 01       	movw	r30, r0
     d7e:	85 9f       	mul	r24, r21
     d80:	f0 0d       	add	r31, r0
     d82:	11 24       	eor	r1, r1
     d84:	e9 54       	subi	r30, 0x49	; 73
     d86:	fe 4f       	sbci	r31, 0xFE	; 254
     d88:	a5 85       	ldd	r26, Z+13	; 0x0d
     d8a:	b6 85       	ldd	r27, Z+14	; 0x0e
     d8c:	9d 01       	movw	r18, r26
     d8e:	2f 5f       	subi	r18, 0xFF	; 255
     d90:	3f 4f       	sbci	r19, 0xFF	; 255
     d92:	36 87       	std	Z+14, r19	; 0x0e
     d94:	25 87       	std	Z+13, r18	; 0x0d
     d96:	90 91 bb 00 	lds	r25, 0x00BB	; 0x8000bb <__TEXT_REGION_LENGTH__+0x7e00bb>
     d9a:	9c 93       	st	X, r25
			*twi_bufor[twi_buf_pos.tail].flag_register = twi_bufor[twi_buf_pos.tail].flag_mask;	//set read done flag
     d9c:	e0 91 b6 01 	lds	r30, 0x01B6	; 0x8001b6 <twi_buf_pos>
     da0:	e6 95       	lsr	r30
     da2:	e6 95       	lsr	r30
     da4:	e6 95       	lsr	r30
     da6:	e7 70       	andi	r30, 0x07	; 7
     da8:	8e 9f       	mul	r24, r30
     daa:	f0 01       	movw	r30, r0
     dac:	11 24       	eor	r1, r1
     dae:	e9 54       	subi	r30, 0x49	; 73
     db0:	fe 4f       	sbci	r31, 0xFE	; 254
     db2:	a0 89       	ldd	r26, Z+16	; 0x10
     db4:	b1 89       	ldd	r27, Z+17	; 0x11
     db6:	92 89       	ldd	r25, Z+18	; 0x12
     db8:	9c 93       	st	X, r25
void TWI_start(void) {
	TWCR0 = (1<<TWINT)|(1<<TWEN)|(1<<TWSTA)|(1<<TWIE);
}

void TWI_stop(void) {
	TWCR0 = (1<<TWINT)|(1<<TWEN)|(1<<TWSTO)|(1<<TWIE);
     dba:	95 e9       	ldi	r25, 0x95	; 149
     dbc:	90 93 bc 00 	sts	0x00BC, r25	; 0x8000bc <__TEXT_REGION_LENGTH__+0x7e00bc>

		case stop_reading:
			*twi_bufor[twi_buf_pos.tail].bufor_ref++ = TWDR0;	//read last received byte
			*twi_bufor[twi_buf_pos.tail].flag_register = twi_bufor[twi_buf_pos.tail].flag_mask;	//set read done flag
			TWI_stop();
			twi_bufor[twi_buf_pos.tail].status = done;
     dc0:	e0 91 b6 01 	lds	r30, 0x01B6	; 0x8001b6 <twi_buf_pos>
     dc4:	e6 95       	lsr	r30
     dc6:	e6 95       	lsr	r30
     dc8:	e6 95       	lsr	r30
     dca:	e7 70       	andi	r30, 0x07	; 7
     dcc:	8e 9f       	mul	r24, r30
     dce:	f0 01       	movw	r30, r0
     dd0:	11 24       	eor	r1, r1
     dd2:	e9 54       	subi	r30, 0x49	; 73
     dd4:	fe 4f       	sbci	r31, 0xFE	; 254
     dd6:	81 e0       	ldi	r24, 0x01	; 1
     dd8:	83 8b       	std	Z+19, r24	; 0x13
			break;
     dda:	67 c0       	rjmp	.+206    	; 0xeaa <__vector_24+0x41a>

		case write:
			if (twi_bufor[twi_buf_pos.tail].lenght > 1){	//if more than 1 char to write
     ddc:	84 e1       	ldi	r24, 0x14	; 20
     dde:	84 9f       	mul	r24, r20
     de0:	f0 01       	movw	r30, r0
     de2:	85 9f       	mul	r24, r21
     de4:	f0 0d       	add	r31, r0
     de6:	11 24       	eor	r1, r1
     de8:	e9 54       	subi	r30, 0x49	; 73
     dea:	fe 4f       	sbci	r31, 0xFE	; 254
     dec:	87 85       	ldd	r24, Z+15	; 0x0f
     dee:	82 30       	cpi	r24, 0x02	; 2
     df0:	e8 f0       	brcs	.+58     	; 0xe2c <__vector_24+0x39c>
				TWI_write(twi_bufor[twi_buf_pos.tail].bufor[0]);
     df2:	84 e1       	ldi	r24, 0x14	; 20
     df4:	84 9f       	mul	r24, r20
     df6:	f0 01       	movw	r30, r0
     df8:	85 9f       	mul	r24, r21
     dfa:	f0 0d       	add	r31, r0
     dfc:	11 24       	eor	r1, r1
     dfe:	e9 54       	subi	r30, 0x49	; 73
     e00:	fe 4f       	sbci	r31, 0xFE	; 254
     e02:	92 81       	ldd	r25, Z+2	; 0x02
void TWI_stop(void) {
	TWCR0 = (1<<TWINT)|(1<<TWEN)|(1<<TWSTO)|(1<<TWIE);
}

void TWI_write(uint8_t bajt) {
	TWDR0 = bajt;
     e04:	90 93 bb 00 	sts	0x00BB, r25	; 0x8000bb <__TEXT_REGION_LENGTH__+0x7e00bb>
	TWCR0 = (1<<TWINT)|(1<<TWEN)|(1<<TWIE);
     e08:	95 e8       	ldi	r25, 0x85	; 133
     e0a:	90 93 bc 00 	sts	0x00BC, r25	; 0x8000bc <__TEXT_REGION_LENGTH__+0x7e00bc>
			break;

		case write:
			if (twi_bufor[twi_buf_pos.tail].lenght > 1){	//if more than 1 char to write
				TWI_write(twi_bufor[twi_buf_pos.tail].bufor[0]);
				twi_bufor[twi_buf_pos.tail].status = write;
     e0e:	e0 91 b6 01 	lds	r30, 0x01B6	; 0x8001b6 <twi_buf_pos>
     e12:	e6 95       	lsr	r30
     e14:	e6 95       	lsr	r30
     e16:	e6 95       	lsr	r30
     e18:	e7 70       	andi	r30, 0x07	; 7
     e1a:	8e 9f       	mul	r24, r30
     e1c:	f0 01       	movw	r30, r0
     e1e:	11 24       	eor	r1, r1
     e20:	e9 54       	subi	r30, 0x49	; 73
     e22:	fe 4f       	sbci	r31, 0xFE	; 254
     e24:	8b e0       	ldi	r24, 0x0B	; 11
     e26:	83 8b       	std	Z+19, r24	; 0x13
				twi_bufor[twi_buf_pos.tail].buf_pos = 0;
     e28:	14 86       	std	Z+12, r1	; 0x0c
     e2a:	1b c0       	rjmp	.+54     	; 0xe62 <__vector_24+0x3d2>
			}

			else {	//only 1 byte to send
				TWI_write(twi_bufor[twi_buf_pos.tail].bufor[0]);
     e2c:	84 e1       	ldi	r24, 0x14	; 20
     e2e:	84 9f       	mul	r24, r20
     e30:	f0 01       	movw	r30, r0
     e32:	85 9f       	mul	r24, r21
     e34:	f0 0d       	add	r31, r0
     e36:	11 24       	eor	r1, r1
     e38:	e9 54       	subi	r30, 0x49	; 73
     e3a:	fe 4f       	sbci	r31, 0xFE	; 254
     e3c:	92 81       	ldd	r25, Z+2	; 0x02
void TWI_stop(void) {
	TWCR0 = (1<<TWINT)|(1<<TWEN)|(1<<TWSTO)|(1<<TWIE);
}

void TWI_write(uint8_t bajt) {
	TWDR0 = bajt;
     e3e:	90 93 bb 00 	sts	0x00BB, r25	; 0x8000bb <__TEXT_REGION_LENGTH__+0x7e00bb>
	TWCR0 = (1<<TWINT)|(1<<TWEN)|(1<<TWIE);
     e42:	95 e8       	ldi	r25, 0x85	; 133
     e44:	90 93 bc 00 	sts	0x00BC, r25	; 0x8000bc <__TEXT_REGION_LENGTH__+0x7e00bc>
				twi_bufor[twi_buf_pos.tail].buf_pos = 0;
			}

			else {	//only 1 byte to send
				TWI_write(twi_bufor[twi_buf_pos.tail].bufor[0]);
				twi_bufor[twi_buf_pos.tail].status = last_byte_write;
     e48:	e0 91 b6 01 	lds	r30, 0x01B6	; 0x8001b6 <twi_buf_pos>
     e4c:	e6 95       	lsr	r30
     e4e:	e6 95       	lsr	r30
     e50:	e6 95       	lsr	r30
     e52:	e7 70       	andi	r30, 0x07	; 7
     e54:	8e 9f       	mul	r24, r30
     e56:	f0 01       	movw	r30, r0
     e58:	11 24       	eor	r1, r1
     e5a:	e9 54       	subi	r30, 0x49	; 73
     e5c:	fe 4f       	sbci	r31, 0xFE	; 254
     e5e:	8c e0       	ldi	r24, 0x0C	; 12
     e60:	83 8b       	std	Z+19, r24	; 0x13
			}
			twi_bufor[twi_buf_pos.tail].lenght --;
     e62:	e0 91 b6 01 	lds	r30, 0x01B6	; 0x8001b6 <twi_buf_pos>
     e66:	e6 95       	lsr	r30
     e68:	e6 95       	lsr	r30
     e6a:	e6 95       	lsr	r30
     e6c:	e7 70       	andi	r30, 0x07	; 7
     e6e:	84 e1       	ldi	r24, 0x14	; 20
     e70:	e8 9f       	mul	r30, r24
     e72:	f0 01       	movw	r30, r0
     e74:	11 24       	eor	r1, r1
     e76:	e9 54       	subi	r30, 0x49	; 73
     e78:	fe 4f       	sbci	r31, 0xFE	; 254
     e7a:	87 85       	ldd	r24, Z+15	; 0x0f
     e7c:	81 50       	subi	r24, 0x01	; 1
     e7e:	87 87       	std	Z+15, r24	; 0x0f
			break;
     e80:	14 c0       	rjmp	.+40     	; 0xeaa <__vector_24+0x41a>
void TWI_start(void) {
	TWCR0 = (1<<TWINT)|(1<<TWEN)|(1<<TWSTA)|(1<<TWIE);
}

void TWI_stop(void) {
	TWCR0 = (1<<TWINT)|(1<<TWEN)|(1<<TWSTO)|(1<<TWIE);
     e82:	85 e9       	ldi	r24, 0x95	; 149
     e84:	80 93 bc 00 	sts	0x00BC, r24	; 0x8000bc <__TEXT_REGION_LENGTH__+0x7e00bc>
			twi_bufor[twi_buf_pos.tail].lenght --;
			break;

		case last_byte_write:
			TWI_stop();
			twi_bufor[twi_buf_pos.tail].status = done;
     e88:	e0 91 b6 01 	lds	r30, 0x01B6	; 0x8001b6 <twi_buf_pos>
     e8c:	e6 95       	lsr	r30
     e8e:	e6 95       	lsr	r30
     e90:	e6 95       	lsr	r30
     e92:	e7 70       	andi	r30, 0x07	; 7
     e94:	84 e1       	ldi	r24, 0x14	; 20
     e96:	e8 9f       	mul	r30, r24
     e98:	f0 01       	movw	r30, r0
     e9a:	11 24       	eor	r1, r1
     e9c:	e9 54       	subi	r30, 0x49	; 73
     e9e:	fe 4f       	sbci	r31, 0xFE	; 254
     ea0:	81 e0       	ldi	r24, 0x01	; 1
     ea2:	83 8b       	std	Z+19, r24	; 0x13
			twi_reset_counter = 0xFF;	//turn of timer, sending procedure finished correctly
     ea4:	8f ef       	ldi	r24, 0xFF	; 255
     ea6:	80 93 b3 01 	sts	0x01B3, r24	; 0x8001b3 <twi_reset_counter>

		default:

			break;
	}
     eaa:	ff 91       	pop	r31
     eac:	ef 91       	pop	r30
     eae:	bf 91       	pop	r27
     eb0:	af 91       	pop	r26
     eb2:	9f 91       	pop	r25
     eb4:	8f 91       	pop	r24
     eb6:	5f 91       	pop	r21
     eb8:	4f 91       	pop	r20
     eba:	3f 91       	pop	r19
     ebc:	2f 91       	pop	r18
     ebe:	0f 90       	pop	r0
     ec0:	0f be       	out	0x3f, r0	; 63
     ec2:	0f 90       	pop	r0
     ec4:	1f 90       	pop	r1
     ec6:	18 95       	reti

00000ec8 <InitUartCOM>:
	}
}

void SendChar(char x)
{
	PutCharToBuffor(x);
     ec8:	0e 94 8c 09 	call	0x1318	; 0x1318 <InitUartCOM_HW>
     ecc:	08 95       	ret

00000ece <ReceiveChar>:
     ece:	88 23       	and	r24, r24
     ed0:	91 f0       	breq	.+36     	; 0xef6 <ReceiveChar+0x28>
     ed2:	8a 30       	cpi	r24, 0x0A	; 10
     ed4:	81 f0       	breq	.+32     	; 0xef6 <ReceiveChar+0x28>
     ed6:	e0 91 b0 01 	lds	r30, 0x01B0	; 0x8001b0 <RxHead>
     eda:	f0 e0       	ldi	r31, 0x00	; 0
     edc:	e9 5a       	subi	r30, 0xA9	; 169
     ede:	fd 4f       	sbci	r31, 0xFD	; 253
     ee0:	80 83       	st	Z, r24
     ee2:	80 91 b0 01 	lds	r24, 0x01B0	; 0x8001b0 <RxHead>
     ee6:	8f 5f       	subi	r24, 0xFF	; 255
     ee8:	8f 71       	andi	r24, 0x1F	; 31
     eea:	80 93 b0 01 	sts	0x01B0, r24	; 0x8001b0 <RxHead>
     eee:	80 91 b0 01 	lds	r24, 0x01B0	; 0x8001b0 <RxHead>
     ef2:	80 91 b1 01 	lds	r24, 0x01B1	; 0x8001b1 <RxTail>
     ef6:	08 95       	ret

00000ef8 <SendString>:
}

void SendString(char string[])
{
     ef8:	0f 93       	push	r16
     efa:	1f 93       	push	r17
     efc:	cf 93       	push	r28
     efe:	fc 01       	movw	r30, r24
	uint8_t i=0;

	while (string[i] != 0)
     f00:	80 81       	ld	r24, Z
     f02:	88 23       	and	r24, r24
     f04:	59 f0       	breq	.+22     	; 0xf1c <SendString+0x24>
     f06:	8f 01       	movw	r16, r30
     f08:	c0 e0       	ldi	r28, 0x00	; 0
	}
}

void SendChar(char x)
{
	PutCharToBuffor(x);
     f0a:	0e 94 96 09 	call	0x132c	; 0x132c <PutCharToBuffor>
	uint8_t i=0;

	while (string[i] != 0)
	{
		SendChar(string[i]);
		i++;
     f0e:	cf 5f       	subi	r28, 0xFF	; 255

void SendString(char string[])
{
	uint8_t i=0;

	while (string[i] != 0)
     f10:	f8 01       	movw	r30, r16
     f12:	ec 0f       	add	r30, r28
     f14:	f1 1d       	adc	r31, r1
     f16:	80 81       	ld	r24, Z
     f18:	81 11       	cpse	r24, r1
     f1a:	f7 cf       	rjmp	.-18     	; 0xf0a <SendString+0x12>
	{
		SendChar(string[i]);
		i++;
	}
}
     f1c:	cf 91       	pop	r28
     f1e:	1f 91       	pop	r17
     f20:	0f 91       	pop	r16
     f22:	08 95       	ret

00000f24 <SendEnter>:
	}
}

void SendChar(char x)
{
	PutCharToBuffor(x);
     f24:	8d e0       	ldi	r24, 0x0D	; 13
     f26:	0e 94 96 09 	call	0x132c	; 0x132c <PutCharToBuffor>
     f2a:	8a e0       	ldi	r24, 0x0A	; 10
     f2c:	0e 94 96 09 	call	0x132c	; 0x132c <PutCharToBuffor>
     f30:	08 95       	ret

00000f32 <SendLine>:
	}
}

void SendLine(char string[])
{
	SendString(string);
     f32:	0e 94 7c 07 	call	0xef8	; 0xef8 <SendString>
	//End of line:
	SendEnter();
     f36:	0e 94 92 07 	call	0xf24	; 0xf24 <SendEnter>
     f3a:	08 95       	ret

00000f3c <SendInt>:
	SendChar(13);
	SendChar(10);
}

void SendInt(int32_t number)
{
     f3c:	4f 92       	push	r4
     f3e:	5f 92       	push	r5
     f40:	6f 92       	push	r6
     f42:	7f 92       	push	r7
     f44:	8f 92       	push	r8
     f46:	9f 92       	push	r9
     f48:	af 92       	push	r10
     f4a:	bf 92       	push	r11
     f4c:	cf 92       	push	r12
     f4e:	df 92       	push	r13
     f50:	ef 92       	push	r14
     f52:	ff 92       	push	r15
     f54:	0f 93       	push	r16
     f56:	1f 93       	push	r17
     f58:	cf 93       	push	r28
     f5a:	df 93       	push	r29
     f5c:	cd b7       	in	r28, 0x3d	; 61
     f5e:	de b7       	in	r29, 0x3e	; 62
     f60:	a8 97       	sbiw	r28, 0x28	; 40
     f62:	0f b6       	in	r0, 0x3f	; 63
     f64:	f8 94       	cli
     f66:	de bf       	out	0x3e, r29	; 62
     f68:	0f be       	out	0x3f, r0	; 63
     f6a:	cd bf       	out	0x3d, r28	; 61
     f6c:	6b 01       	movw	r12, r22
     f6e:	7c 01       	movw	r14, r24
     f70:	fe 01       	movw	r30, r28
     f72:	75 96       	adiw	r30, 0x15	; 21
     f74:	8e 01       	movw	r16, r28
     f76:	0f 5f       	subi	r16, 0xFF	; 255
     f78:	1f 4f       	sbci	r17, 0xFF	; 255
     f7a:	ce 01       	movw	r24, r28
     f7c:	4d 96       	adiw	r24, 0x1d	; 29
     f7e:	d8 01       	movw	r26, r16
	uint8_t pozycja = 0;
	uint8_t mnoznik = 10;
	
	for (uint8_t i=0; i<8; i++)	//zmienna tablicowa lokalna, trzeba wyzerowaæ wartoœci
	{
		reverse[i] = 0;
     f80:	11 92       	st	Z+, r1
		string[i] = 0;
     f82:	1d 92       	st	X+, r1
	char reverse[20];	//int16 = 6 cyfr + znak + 0
	int8_t znak = 1;
	uint8_t pozycja = 0;
	uint8_t mnoznik = 10;
	
	for (uint8_t i=0; i<8; i++)	//zmienna tablicowa lokalna, trzeba wyzerowaæ wartoœci
     f84:	e8 17       	cp	r30, r24
     f86:	f9 07       	cpc	r31, r25
     f88:	d9 f7       	brne	.-10     	; 0xf80 <SendInt+0x44>
	{
		reverse[i] = 0;
		string[i] = 0;
	}
	
	if (number<0) znak = -1;
     f8a:	ff 20       	and	r15, r15
     f8c:	0c f0       	brlt	.+2      	; 0xf90 <SendInt+0x54>
     f8e:	5d c0       	rjmp	.+186    	; 0x104a <SendInt+0x10e>
     f90:	81 c0       	rjmp	.+258    	; 0x1094 <SendInt+0x158>
     f92:	5e 01       	movw	r10, r28
     f94:	26 e1       	ldi	r18, 0x16	; 22
     f96:	a2 0e       	add	r10, r18
     f98:	b1 1c       	adc	r11, r1
	
	number = number * znak;
	
	for (uint8_t i=0; i<20; i++)
     f9a:	99 24       	eor	r9, r9
     f9c:	93 94       	inc	r9
	{
		reverse[i] = number % mnoznik + 48;
     f9e:	0f 2e       	mov	r0, r31
     fa0:	fa e0       	ldi	r31, 0x0A	; 10
     fa2:	4f 2e       	mov	r4, r31
     fa4:	51 2c       	mov	r5, r1
     fa6:	61 2c       	mov	r6, r1
     fa8:	71 2c       	mov	r7, r1
     faa:	f0 2d       	mov	r31, r0
     fac:	01 c0       	rjmp	.+2      	; 0xfb0 <SendInt+0x74>
	
	if (number<0) znak = -1;
	
	number = number * znak;
	
	for (uint8_t i=0; i<20; i++)
     fae:	98 2e       	mov	r9, r24
	{
		reverse[i] = number % mnoznik + 48;
     fb0:	c7 01       	movw	r24, r14
     fb2:	b6 01       	movw	r22, r12
     fb4:	a3 01       	movw	r20, r6
     fb6:	92 01       	movw	r18, r4
     fb8:	0e 94 6c 0b 	call	0x16d8	; 0x16d8 <__divmodsi4>
     fbc:	20 e3       	ldi	r18, 0x30	; 48
     fbe:	26 0f       	add	r18, r22
     fc0:	d5 01       	movw	r26, r10
     fc2:	2d 93       	st	X+, r18
     fc4:	5d 01       	movw	r10, r26
		number = number - number % mnoznik;
     fc6:	a7 01       	movw	r20, r14
     fc8:	96 01       	movw	r18, r12
     fca:	26 1b       	sub	r18, r22
     fcc:	37 0b       	sbc	r19, r23
     fce:	48 0b       	sbc	r20, r24
     fd0:	59 0b       	sbc	r21, r25
     fd2:	ca 01       	movw	r24, r20
     fd4:	b9 01       	movw	r22, r18
		number = number / 10;
     fd6:	a3 01       	movw	r20, r6
     fd8:	92 01       	movw	r18, r4
     fda:	0e 94 6c 0b 	call	0x16d8	; 0x16d8 <__divmodsi4>
     fde:	69 01       	movw	r12, r18
     fe0:	7a 01       	movw	r14, r20
		pozycja = i;
		if (number == 0) break;
     fe2:	23 2b       	or	r18, r19
     fe4:	24 2b       	or	r18, r20
     fe6:	25 2b       	or	r18, r21
     fe8:	21 f0       	breq	.+8      	; 0xff2 <SendInt+0xb6>
	
	if (number<0) znak = -1;
	
	number = number * znak;
	
	for (uint8_t i=0; i<20; i++)
     fea:	81 e0       	ldi	r24, 0x01	; 1
     fec:	89 0d       	add	r24, r9
     fee:	84 31       	cpi	r24, 0x14	; 20
     ff0:	f1 f6       	brne	.-68     	; 0xfae <SendInt+0x72>
		number = number / 10;
		pozycja = i;
		if (number == 0) break;
	}
	
	pozycja++;
     ff2:	21 e0       	ldi	r18, 0x01	; 1
     ff4:	29 0d       	add	r18, r9
	
	if (znak<0)
     ff6:	88 20       	and	r8, r8
     ff8:	54 f4       	brge	.+20     	; 0x100e <SendInt+0xd2>
     ffa:	02 c0       	rjmp	.+4      	; 0x1000 <SendInt+0xc4>
		number = number / 10;
		pozycja = i;
		if (number == 0) break;
	}
	
	pozycja++;
     ffc:	21 e0       	ldi	r18, 0x01	; 1
	
	if (number<0) znak = -1;
	
	number = number * znak;
	
	for (uint8_t i=0; i<20; i++)
     ffe:	91 2c       	mov	r9, r1
	
	pozycja++;
	
	if (znak<0)
	{
		reverse[pozycja] = 45;
    1000:	fe 01       	movw	r30, r28
    1002:	e2 0f       	add	r30, r18
    1004:	f1 1d       	adc	r31, r1
    1006:	8d e2       	ldi	r24, 0x2D	; 45
    1008:	85 8b       	std	Z+21, r24	; 0x15
		pozycja++;
    100a:	22 e0       	ldi	r18, 0x02	; 2
    100c:	29 0d       	add	r18, r9
	}
	
	for (uint8_t i=0; i<pozycja; i++)
    100e:	21 11       	cpse	r18, r1
    1010:	02 c0       	rjmp	.+4      	; 0x1016 <SendInt+0xda>
    1012:	0f c0       	rjmp	.+30     	; 0x1032 <SendInt+0xf6>
		number = number / 10;
		pozycja = i;
		if (number == 0) break;
	}
	
	pozycja++;
    1014:	21 e0       	ldi	r18, 0x01	; 1
    1016:	e5 e1       	ldi	r30, 0x15	; 21
    1018:	f0 e0       	ldi	r31, 0x00	; 0
    101a:	ec 0f       	add	r30, r28
    101c:	fd 1f       	adc	r31, r29
    101e:	e2 0f       	add	r30, r18
    1020:	f1 1d       	adc	r31, r1
    1022:	80 e0       	ldi	r24, 0x00	; 0
		pozycja++;
	}
	
	for (uint8_t i=0; i<pozycja; i++)
	{
		string[i] = reverse[pozycja-1-i];
    1024:	92 91       	ld	r25, -Z
    1026:	d8 01       	movw	r26, r16
    1028:	9d 93       	st	X+, r25
    102a:	8d 01       	movw	r16, r26
	{
		reverse[pozycja] = 45;
		pozycja++;
	}
	
	for (uint8_t i=0; i<pozycja; i++)
    102c:	8f 5f       	subi	r24, 0xFF	; 255
    102e:	82 17       	cp	r24, r18
    1030:	c8 f3       	brcs	.-14     	; 0x1024 <SendInt+0xe8>
	{
		string[i] = reverse[pozycja-1-i];
	}
	string[pozycja] = 0;
    1032:	e1 e0       	ldi	r30, 0x01	; 1
    1034:	f0 e0       	ldi	r31, 0x00	; 0
    1036:	ec 0f       	add	r30, r28
    1038:	fd 1f       	adc	r31, r29
    103a:	e2 0f       	add	r30, r18
    103c:	f1 1d       	adc	r31, r1
    103e:	10 82       	st	Z, r1
	SendString(string);
    1040:	ce 01       	movw	r24, r28
    1042:	01 96       	adiw	r24, 0x01	; 1
    1044:	0e 94 7c 07 	call	0xef8	; 0xef8 <SendString>
}
    1048:	53 c0       	rjmp	.+166    	; 0x10f0 <SendInt+0x1b4>
	
	number = number * znak;
	
	for (uint8_t i=0; i<20; i++)
	{
		reverse[i] = number % mnoznik + 48;
    104a:	0f 2e       	mov	r0, r31
    104c:	fa e0       	ldi	r31, 0x0A	; 10
    104e:	8f 2e       	mov	r8, r31
    1050:	91 2c       	mov	r9, r1
    1052:	a1 2c       	mov	r10, r1
    1054:	b1 2c       	mov	r11, r1
    1056:	f0 2d       	mov	r31, r0
    1058:	c7 01       	movw	r24, r14
    105a:	b6 01       	movw	r22, r12
    105c:	a5 01       	movw	r20, r10
    105e:	94 01       	movw	r18, r8
    1060:	0e 94 6c 0b 	call	0x16d8	; 0x16d8 <__divmodsi4>
    1064:	20 e3       	ldi	r18, 0x30	; 48
    1066:	26 0f       	add	r18, r22
    1068:	2d 8b       	std	Y+21, r18	; 0x15
		number = number - number % mnoznik;
    106a:	a7 01       	movw	r20, r14
    106c:	96 01       	movw	r18, r12
    106e:	26 1b       	sub	r18, r22
    1070:	37 0b       	sbc	r19, r23
    1072:	48 0b       	sbc	r20, r24
    1074:	59 0b       	sbc	r21, r25
    1076:	ca 01       	movw	r24, r20
    1078:	b9 01       	movw	r22, r18
		number = number / 10;
    107a:	a5 01       	movw	r20, r10
    107c:	94 01       	movw	r18, r8
    107e:	0e 94 6c 0b 	call	0x16d8	; 0x16d8 <__divmodsi4>
    1082:	69 01       	movw	r12, r18
    1084:	7a 01       	movw	r14, r20
		pozycja = i;
		if (number == 0) break;
    1086:	23 2b       	or	r18, r19
    1088:	24 2b       	or	r18, r20
    108a:	25 2b       	or	r18, r21
    108c:	19 f2       	breq	.-122    	; 0x1014 <SendInt+0xd8>

void SendInt(int32_t number)
{
	char string[20];
	char reverse[20];	//int16 = 6 cyfr + znak + 0
	int8_t znak = 1;
    108e:	88 24       	eor	r8, r8
    1090:	83 94       	inc	r8
    1092:	7f cf       	rjmp	.-258    	; 0xf92 <SendInt+0x56>
		string[i] = 0;
	}
	
	if (number<0) znak = -1;
	
	number = number * znak;
    1094:	f0 94       	com	r15
    1096:	e0 94       	com	r14
    1098:	d0 94       	com	r13
    109a:	c0 94       	com	r12
    109c:	c1 1c       	adc	r12, r1
    109e:	d1 1c       	adc	r13, r1
    10a0:	e1 1c       	adc	r14, r1
    10a2:	f1 1c       	adc	r15, r1
	
	for (uint8_t i=0; i<20; i++)
	{
		reverse[i] = number % mnoznik + 48;
    10a4:	0f 2e       	mov	r0, r31
    10a6:	fa e0       	ldi	r31, 0x0A	; 10
    10a8:	8f 2e       	mov	r8, r31
    10aa:	91 2c       	mov	r9, r1
    10ac:	a1 2c       	mov	r10, r1
    10ae:	b1 2c       	mov	r11, r1
    10b0:	f0 2d       	mov	r31, r0
    10b2:	c7 01       	movw	r24, r14
    10b4:	b6 01       	movw	r22, r12
    10b6:	a5 01       	movw	r20, r10
    10b8:	94 01       	movw	r18, r8
    10ba:	0e 94 6c 0b 	call	0x16d8	; 0x16d8 <__divmodsi4>
    10be:	20 e3       	ldi	r18, 0x30	; 48
    10c0:	26 0f       	add	r18, r22
    10c2:	2d 8b       	std	Y+21, r18	; 0x15
		number = number - number % mnoznik;
    10c4:	a7 01       	movw	r20, r14
    10c6:	96 01       	movw	r18, r12
    10c8:	26 1b       	sub	r18, r22
    10ca:	37 0b       	sbc	r19, r23
    10cc:	48 0b       	sbc	r20, r24
    10ce:	59 0b       	sbc	r21, r25
    10d0:	ca 01       	movw	r24, r20
    10d2:	b9 01       	movw	r22, r18
		number = number / 10;
    10d4:	a5 01       	movw	r20, r10
    10d6:	94 01       	movw	r18, r8
    10d8:	0e 94 6c 0b 	call	0x16d8	; 0x16d8 <__divmodsi4>
    10dc:	69 01       	movw	r12, r18
    10de:	7a 01       	movw	r14, r20
		pozycja = i;
		if (number == 0) break;
    10e0:	23 2b       	or	r18, r19
    10e2:	24 2b       	or	r18, r20
    10e4:	25 2b       	or	r18, r21
    10e6:	09 f4       	brne	.+2      	; 0x10ea <SendInt+0x1ae>
    10e8:	89 cf       	rjmp	.-238    	; 0xffc <SendInt+0xc0>
	{
		reverse[i] = 0;
		string[i] = 0;
	}
	
	if (number<0) znak = -1;
    10ea:	88 24       	eor	r8, r8
    10ec:	8a 94       	dec	r8
    10ee:	51 cf       	rjmp	.-350    	; 0xf92 <SendInt+0x56>
	{
		string[i] = reverse[pozycja-1-i];
	}
	string[pozycja] = 0;
	SendString(string);
}
    10f0:	a8 96       	adiw	r28, 0x28	; 40
    10f2:	0f b6       	in	r0, 0x3f	; 63
    10f4:	f8 94       	cli
    10f6:	de bf       	out	0x3e, r29	; 62
    10f8:	0f be       	out	0x3f, r0	; 63
    10fa:	cd bf       	out	0x3d, r28	; 61
    10fc:	df 91       	pop	r29
    10fe:	cf 91       	pop	r28
    1100:	1f 91       	pop	r17
    1102:	0f 91       	pop	r16
    1104:	ff 90       	pop	r15
    1106:	ef 90       	pop	r14
    1108:	df 90       	pop	r13
    110a:	cf 90       	pop	r12
    110c:	bf 90       	pop	r11
    110e:	af 90       	pop	r10
    1110:	9f 90       	pop	r9
    1112:	8f 90       	pop	r8
    1114:	7f 90       	pop	r7
    1116:	6f 90       	pop	r6
    1118:	5f 90       	pop	r5
    111a:	4f 90       	pop	r4
    111c:	08 95       	ret

0000111e <SendStringInt>:
	SendUint(number);
	SendEnter();
}

void SendStringInt(char string[], int32_t number)
{
    111e:	cf 92       	push	r12
    1120:	df 92       	push	r13
    1122:	ef 92       	push	r14
    1124:	ff 92       	push	r15
    1126:	6a 01       	movw	r12, r20
    1128:	7b 01       	movw	r14, r22
	SendString(string);
    112a:	0e 94 7c 07 	call	0xef8	; 0xef8 <SendString>
	SendInt(number);
    112e:	c7 01       	movw	r24, r14
    1130:	b6 01       	movw	r22, r12
    1132:	0e 94 9e 07 	call	0xf3c	; 0xf3c <SendInt>
	SendEnter();
    1136:	0e 94 92 07 	call	0xf24	; 0xf24 <SendEnter>
}
    113a:	ff 90       	pop	r15
    113c:	ef 90       	pop	r14
    113e:	df 90       	pop	r13
    1140:	cf 90       	pop	r12
    1142:	08 95       	ret

00001144 <SendUint>:
	string[pozycja] = 0;
	SendString(string);
}

void SendUint(uint16_t number)
{
    1144:	ef 92       	push	r14
    1146:	ff 92       	push	r15
    1148:	0f 93       	push	r16
    114a:	1f 93       	push	r17
    114c:	cf 93       	push	r28
    114e:	df 93       	push	r29
    1150:	cd b7       	in	r28, 0x3d	; 61
    1152:	de b7       	in	r29, 0x3e	; 62
    1154:	60 97       	sbiw	r28, 0x10	; 16
    1156:	0f b6       	in	r0, 0x3f	; 63
    1158:	f8 94       	cli
    115a:	de bf       	out	0x3e, r29	; 62
    115c:	0f be       	out	0x3f, r0	; 63
    115e:	cd bf       	out	0x3d, r28	; 61
    1160:	ac 01       	movw	r20, r24
    1162:	fe 01       	movw	r30, r28
    1164:	39 96       	adiw	r30, 0x09	; 9
    1166:	8e 01       	movw	r16, r28
    1168:	0f 5f       	subi	r16, 0xFF	; 255
    116a:	1f 4f       	sbci	r17, 0xFF	; 255
    116c:	ce 01       	movw	r24, r28
    116e:	41 96       	adiw	r24, 0x11	; 17
    1170:	d8 01       	movw	r26, r16
		uint8_t pozycja = 0;
		uint8_t mnoznik = 10;
		
		for (uint8_t i=0; i<8; i++)	//zmienna tablicowa lokalna, trzeba wyzerowaæ wartoœci
		{
			reverse[i] = 0;
    1172:	11 92       	st	Z+, r1
			string[i] = 0;
    1174:	1d 92       	st	X+, r1
		char string[8];
		char reverse[8];	//int16 = 6 cyfr + znak + 0
		uint8_t pozycja = 0;
		uint8_t mnoznik = 10;
		
		for (uint8_t i=0; i<8; i++)	//zmienna tablicowa lokalna, trzeba wyzerowaæ wartoœci
    1176:	e8 17       	cp	r30, r24
    1178:	f9 07       	cpc	r31, r25
    117a:	d9 f7       	brne	.-10     	; 0x1172 <SendUint+0x2e>
		}
		
		
		for (uint8_t i=0; i<8; i++)
		{
			reverse[i] = number % mnoznik + 48;
    117c:	9a 01       	movw	r18, r20
    117e:	ad ec       	ldi	r26, 0xCD	; 205
    1180:	bc ec       	ldi	r27, 0xCC	; 204
    1182:	0e 94 91 0b 	call	0x1722	; 0x1722 <__umulhisi3>
    1186:	96 95       	lsr	r25
    1188:	87 95       	ror	r24
    118a:	96 95       	lsr	r25
    118c:	87 95       	ror	r24
    118e:	96 95       	lsr	r25
    1190:	87 95       	ror	r24
    1192:	9c 01       	movw	r18, r24
    1194:	22 0f       	add	r18, r18
    1196:	33 1f       	adc	r19, r19
    1198:	88 0f       	add	r24, r24
    119a:	99 1f       	adc	r25, r25
    119c:	88 0f       	add	r24, r24
    119e:	99 1f       	adc	r25, r25
    11a0:	88 0f       	add	r24, r24
    11a2:	99 1f       	adc	r25, r25
    11a4:	82 0f       	add	r24, r18
    11a6:	93 1f       	adc	r25, r19
    11a8:	9a 01       	movw	r18, r20
    11aa:	28 1b       	sub	r18, r24
    11ac:	39 0b       	sbc	r19, r25
    11ae:	c9 01       	movw	r24, r18
    11b0:	20 e3       	ldi	r18, 0x30	; 48
    11b2:	28 0f       	add	r18, r24
    11b4:	29 87       	std	Y+9, r18	; 0x09
			number = number - number % mnoznik;
    11b6:	9a 01       	movw	r18, r20
    11b8:	28 1b       	sub	r18, r24
    11ba:	39 0b       	sbc	r19, r25
			number = number / 10;
    11bc:	0e 94 91 0b 	call	0x1722	; 0x1722 <__umulhisi3>
    11c0:	ac 01       	movw	r20, r24
    11c2:	56 95       	lsr	r21
    11c4:	47 95       	ror	r20
    11c6:	56 95       	lsr	r21
    11c8:	47 95       	ror	r20
    11ca:	56 95       	lsr	r21
    11cc:	47 95       	ror	r20
			pozycja = i;
			if (number == 0) break;
    11ce:	41 15       	cp	r20, r1
    11d0:	51 05       	cpc	r21, r1
    11d2:	09 f4       	brne	.+2      	; 0x11d6 <SendUint+0x92>
    11d4:	3f c0       	rjmp	.+126    	; 0x1254 <SendUint+0x110>
    11d6:	7e 01       	movw	r14, r28
    11d8:	3a e0       	ldi	r19, 0x0A	; 10
    11da:	e3 0e       	add	r14, r19
    11dc:	f1 1c       	adc	r15, r1
			reverse[i] = 0;
			string[i] = 0;
		}
		
		
		for (uint8_t i=0; i<8; i++)
    11de:	e1 e0       	ldi	r30, 0x01	; 1
    11e0:	01 c0       	rjmp	.+2      	; 0x11e4 <SendUint+0xa0>
    11e2:	e8 2f       	mov	r30, r24
		{
			reverse[i] = number % mnoznik + 48;
    11e4:	9a 01       	movw	r18, r20
    11e6:	ad ec       	ldi	r26, 0xCD	; 205
    11e8:	bc ec       	ldi	r27, 0xCC	; 204
    11ea:	0e 94 91 0b 	call	0x1722	; 0x1722 <__umulhisi3>
    11ee:	96 95       	lsr	r25
    11f0:	87 95       	ror	r24
    11f2:	96 95       	lsr	r25
    11f4:	87 95       	ror	r24
    11f6:	96 95       	lsr	r25
    11f8:	87 95       	ror	r24
    11fa:	9c 01       	movw	r18, r24
    11fc:	22 0f       	add	r18, r18
    11fe:	33 1f       	adc	r19, r19
    1200:	88 0f       	add	r24, r24
    1202:	99 1f       	adc	r25, r25
    1204:	88 0f       	add	r24, r24
    1206:	99 1f       	adc	r25, r25
    1208:	88 0f       	add	r24, r24
    120a:	99 1f       	adc	r25, r25
    120c:	82 0f       	add	r24, r18
    120e:	93 1f       	adc	r25, r19
    1210:	da 01       	movw	r26, r20
    1212:	a8 1b       	sub	r26, r24
    1214:	b9 0b       	sbc	r27, r25
    1216:	cd 01       	movw	r24, r26
    1218:	20 e3       	ldi	r18, 0x30	; 48
    121a:	2a 0f       	add	r18, r26
    121c:	d7 01       	movw	r26, r14
    121e:	2d 93       	st	X+, r18
    1220:	7d 01       	movw	r14, r26
			number = number - number % mnoznik;
    1222:	9a 01       	movw	r18, r20
    1224:	28 1b       	sub	r18, r24
    1226:	39 0b       	sbc	r19, r25
			number = number / 10;
    1228:	ad ec       	ldi	r26, 0xCD	; 205
    122a:	bc ec       	ldi	r27, 0xCC	; 204
    122c:	0e 94 91 0b 	call	0x1722	; 0x1722 <__umulhisi3>
    1230:	ac 01       	movw	r20, r24
    1232:	56 95       	lsr	r21
    1234:	47 95       	ror	r20
    1236:	56 95       	lsr	r21
    1238:	47 95       	ror	r20
    123a:	56 95       	lsr	r21
    123c:	47 95       	ror	r20
			pozycja = i;
			if (number == 0) break;
    123e:	41 15       	cp	r20, r1
    1240:	51 05       	cpc	r21, r1
    1242:	21 f0       	breq	.+8      	; 0x124c <SendUint+0x108>
			reverse[i] = 0;
			string[i] = 0;
		}
		
		
		for (uint8_t i=0; i<8; i++)
    1244:	81 e0       	ldi	r24, 0x01	; 1
    1246:	8e 0f       	add	r24, r30
    1248:	88 30       	cpi	r24, 0x08	; 8
    124a:	59 f6       	brne	.-106    	; 0x11e2 <SendUint+0x9e>
			number = number / 10;
			pozycja = i;
			if (number == 0) break;
		}
		
		pozycja++;
    124c:	91 e0       	ldi	r25, 0x01	; 1
    124e:	9e 0f       	add	r25, r30
		
		for (uint8_t i=0; i<pozycja; i++)
    1250:	11 f4       	brne	.+4      	; 0x1256 <SendUint+0x112>
    1252:	0f c0       	rjmp	.+30     	; 0x1272 <SendUint+0x12e>
			number = number / 10;
			pozycja = i;
			if (number == 0) break;
		}
		
		pozycja++;
    1254:	91 e0       	ldi	r25, 0x01	; 1
    1256:	e9 e0       	ldi	r30, 0x09	; 9
    1258:	f0 e0       	ldi	r31, 0x00	; 0
    125a:	ec 0f       	add	r30, r28
    125c:	fd 1f       	adc	r31, r29
    125e:	e9 0f       	add	r30, r25
    1260:	f1 1d       	adc	r31, r1
    1262:	80 e0       	ldi	r24, 0x00	; 0
		
		for (uint8_t i=0; i<pozycja; i++)
		{
			string[i] = reverse[pozycja-1-i];
    1264:	22 91       	ld	r18, -Z
    1266:	d8 01       	movw	r26, r16
    1268:	2d 93       	st	X+, r18
    126a:	8d 01       	movw	r16, r26
			if (number == 0) break;
		}
		
		pozycja++;
		
		for (uint8_t i=0; i<pozycja; i++)
    126c:	8f 5f       	subi	r24, 0xFF	; 255
    126e:	89 17       	cp	r24, r25
    1270:	c8 f3       	brcs	.-14     	; 0x1264 <SendUint+0x120>
		{
			string[i] = reverse[pozycja-1-i];
		}
		string[pozycja] = 0;
    1272:	e1 e0       	ldi	r30, 0x01	; 1
    1274:	f0 e0       	ldi	r31, 0x00	; 0
    1276:	ec 0f       	add	r30, r28
    1278:	fd 1f       	adc	r31, r29
    127a:	e9 0f       	add	r30, r25
    127c:	f1 1d       	adc	r31, r1
    127e:	10 82       	st	Z, r1
		SendString(string);
    1280:	ce 01       	movw	r24, r28
    1282:	01 96       	adiw	r24, 0x01	; 1
    1284:	0e 94 7c 07 	call	0xef8	; 0xef8 <SendString>
}
    1288:	60 96       	adiw	r28, 0x10	; 16
    128a:	0f b6       	in	r0, 0x3f	; 63
    128c:	f8 94       	cli
    128e:	de bf       	out	0x3e, r29	; 62
    1290:	0f be       	out	0x3f, r0	; 63
    1292:	cd bf       	out	0x3d, r28	; 61
    1294:	df 91       	pop	r29
    1296:	cf 91       	pop	r28
    1298:	1f 91       	pop	r17
    129a:	0f 91       	pop	r16
    129c:	ff 90       	pop	r15
    129e:	ef 90       	pop	r14
    12a0:	08 95       	ret

000012a2 <SendStringUint>:
	//End of line:
	SendEnter();
}

void SendStringUint(char string[], uint16_t number)
{
    12a2:	cf 93       	push	r28
    12a4:	df 93       	push	r29
    12a6:	eb 01       	movw	r28, r22
	SendString(string);
    12a8:	0e 94 7c 07 	call	0xef8	; 0xef8 <SendString>
	SendUint(number);
    12ac:	ce 01       	movw	r24, r28
    12ae:	0e 94 a2 08 	call	0x1144	; 0x1144 <SendUint>
	SendEnter();
    12b2:	0e 94 92 07 	call	0xf24	; 0xf24 <SendEnter>
}
    12b6:	df 91       	pop	r29
    12b8:	cf 91       	pop	r28
    12ba:	08 95       	ret

000012bc <CheckRxBuffor>:
		string[pozycja] = 0;
		SendString(string);
}

void CheckRxBuffor(void)
{
    12bc:	cf 93       	push	r28
	if (RxHead != RxTail)	//Check if buffer is not empty
    12be:	90 91 b0 01 	lds	r25, 0x01B0	; 0x8001b0 <RxHead>
    12c2:	80 91 b1 01 	lds	r24, 0x01B1	; 0x8001b1 <RxTail>
    12c6:	98 17       	cp	r25, r24
    12c8:	29 f1       	breq	.+74     	; 0x1314 <CheckRxBuffor+0x58>
	{
		uint8_t i = RxTail;
    12ca:	c0 91 b1 01 	lds	r28, 0x01B1	; 0x8001b1 <RxTail>

		while(i != RxHead)	//search for end of line
    12ce:	80 91 b0 01 	lds	r24, 0x01B0	; 0x8001b0 <RxHead>
    12d2:	c8 17       	cp	r28, r24
    12d4:	f9 f0       	breq	.+62     	; 0x1314 <CheckRxBuffor+0x58>
		{
			//If end of line process Command
			
			if (RxBuffor[i] == 13)
    12d6:	ec 2f       	mov	r30, r28
    12d8:	f0 e0       	ldi	r31, 0x00	; 0
    12da:	e9 5a       	subi	r30, 0xA9	; 169
    12dc:	fd 4f       	sbci	r31, 0xFD	; 253
    12de:	80 81       	ld	r24, Z
    12e0:	8d 30       	cpi	r24, 0x0D	; 13
    12e2:	91 f4       	brne	.+36     	; 0x1308 <CheckRxBuffor+0x4c>
    12e4:	07 c0       	rjmp	.+14     	; 0x12f4 <CheckRxBuffor+0x38>
    12e6:	ec 2f       	mov	r30, r28
    12e8:	f0 e0       	ldi	r31, 0x00	; 0
    12ea:	e9 5a       	subi	r30, 0xA9	; 169
    12ec:	fd 4f       	sbci	r31, 0xFD	; 253
    12ee:	80 81       	ld	r24, Z
    12f0:	8d 30       	cpi	r24, 0x0D	; 13
    12f2:	51 f4       	brne	.+20     	; 0x1308 <CheckRxBuffor+0x4c>
			{
				ProcessString(RxTail, i);
    12f4:	80 91 b1 01 	lds	r24, 0x01B1	; 0x8001b1 <RxTail>
    12f8:	6c 2f       	mov	r22, r28
    12fa:	0e 94 d8 04 	call	0x9b0	; 0x9b0 <ProcessString>
				i = (i+1) & RX_SIZE_BIN;
    12fe:	cf 5f       	subi	r28, 0xFF	; 255
    1300:	cf 71       	andi	r28, 0x1F	; 31
				RxTail = i;
    1302:	c0 93 b1 01 	sts	0x01B1, r28	; 0x8001b1 <RxTail>
				break;
    1306:	06 c0       	rjmp	.+12     	; 0x1314 <CheckRxBuffor+0x58>
			}

			i = (i+1) & RX_SIZE_BIN;
    1308:	cf 5f       	subi	r28, 0xFF	; 255
    130a:	cf 71       	andi	r28, 0x1F	; 31
{
	if (RxHead != RxTail)	//Check if buffer is not empty
	{
		uint8_t i = RxTail;

		while(i != RxHead)	//search for end of line
    130c:	80 91 b0 01 	lds	r24, 0x01B0	; 0x8001b0 <RxHead>
    1310:	8c 13       	cpse	r24, r28
    1312:	e9 cf       	rjmp	.-46     	; 0x12e6 <CheckRxBuffor+0x2a>
			}

			i = (i+1) & RX_SIZE_BIN;
		}
	}
    1314:	cf 91       	pop	r28
    1316:	08 95       	ret

00001318 <InitUartCOM_HW>:


	UBRR0 = 9;	//100k at 16MHz clock

	//Init COM Uart
	UCSR0B = (1<<RXEN0) | (1<<RXCIE0) |
    1318:	83 e0       	ldi	r24, 0x03	; 3
    131a:	90 e0       	ldi	r25, 0x00	; 0
    131c:	90 93 c5 00 	sts	0x00C5, r25	; 0x8000c5 <__TEXT_REGION_LENGTH__+0x7e00c5>
    1320:	80 93 c4 00 	sts	0x00C4, r24	; 0x8000c4 <__TEXT_REGION_LENGTH__+0x7e00c4>
    1324:	88 ed       	ldi	r24, 0xD8	; 216
    1326:	80 93 c1 00 	sts	0x00C1, r24	; 0x8000c1 <__TEXT_REGION_LENGTH__+0x7e00c1>
    132a:	08 95       	ret

0000132c <PutCharToBuffor>:
}


void PutCharToBuffor(uint8_t x)
{
	if ((UCSR0A & (1<<UDRE0)) && (TxHead == TxTail))	//check if can put next char
    132c:	90 91 c0 00 	lds	r25, 0x00C0	; 0x8000c0 <__TEXT_REGION_LENGTH__+0x7e00c0>
    1330:	95 ff       	sbrs	r25, 5
    1332:	09 c0       	rjmp	.+18     	; 0x1346 <PutCharToBuffor+0x1a>
    1334:	20 91 ae 01 	lds	r18, 0x01AE	; 0x8001ae <__data_end>
    1338:	90 91 af 01 	lds	r25, 0x01AF	; 0x8001af <TxTail>
    133c:	29 13       	cpse	r18, r25
    133e:	03 c0       	rjmp	.+6      	; 0x1346 <PutCharToBuffor+0x1a>
	{
		UDR0 = x;		
    1340:	80 93 c6 00 	sts	0x00C6, r24	; 0x8000c6 <__TEXT_REGION_LENGTH__+0x7e00c6>
    1344:	08 95       	ret
	}
	else	//if not ready put char to sending queue
	{
		TxBuffor[TxHead] = x;
    1346:	e0 91 ae 01 	lds	r30, 0x01AE	; 0x8001ae <__data_end>
    134a:	f0 e0       	ldi	r31, 0x00	; 0
    134c:	e9 58       	subi	r30, 0x89	; 137
    134e:	fd 4f       	sbci	r31, 0xFD	; 253
    1350:	80 83       	st	Z, r24
		TxHead = (TxHead+1) & TX_SIZE_BIN;
    1352:	80 91 ae 01 	lds	r24, 0x01AE	; 0x8001ae <__data_end>
    1356:	8f 5f       	subi	r24, 0xFF	; 255
    1358:	8f 77       	andi	r24, 0x7F	; 127
    135a:	80 93 ae 01 	sts	0x01AE, r24	; 0x8001ae <__data_end>
    135e:	08 95       	ret

00001360 <__vector_20>:
	}
}


ISR (USART0_TX_vect)
{
    1360:	1f 92       	push	r1
    1362:	0f 92       	push	r0
    1364:	0f b6       	in	r0, 0x3f	; 63
    1366:	0f 92       	push	r0
    1368:	11 24       	eor	r1, r1
    136a:	8f 93       	push	r24
    136c:	9f 93       	push	r25
    136e:	ef 93       	push	r30
    1370:	ff 93       	push	r31
	if (TxTail == TxHead)
    1372:	90 91 af 01 	lds	r25, 0x01AF	; 0x8001af <TxTail>
    1376:	80 91 ae 01 	lds	r24, 0x01AE	; 0x8001ae <__data_end>
    137a:	98 13       	cpse	r25, r24
    137c:	03 c0       	rjmp	.+6      	; 0x1384 <__vector_20+0x24>
	{
		uint8_t x = UDR0;
    137e:	80 91 c6 00 	lds	r24, 0x00C6	; 0x8000c6 <__TEXT_REGION_LENGTH__+0x7e00c6>
    1382:	0e c0       	rjmp	.+28     	; 0x13a0 <__vector_20+0x40>
	}

	else
	{
		UDR0 = TxBuffor[TxTail];
    1384:	e0 91 af 01 	lds	r30, 0x01AF	; 0x8001af <TxTail>
    1388:	f0 e0       	ldi	r31, 0x00	; 0
    138a:	e9 58       	subi	r30, 0x89	; 137
    138c:	fd 4f       	sbci	r31, 0xFD	; 253
    138e:	80 81       	ld	r24, Z
    1390:	80 93 c6 00 	sts	0x00C6, r24	; 0x8000c6 <__TEXT_REGION_LENGTH__+0x7e00c6>
		TxTail = (TxTail+1) & TX_SIZE_BIN;
    1394:	80 91 af 01 	lds	r24, 0x01AF	; 0x8001af <TxTail>
    1398:	8f 5f       	subi	r24, 0xFF	; 255
    139a:	8f 77       	andi	r24, 0x7F	; 127
    139c:	80 93 af 01 	sts	0x01AF, r24	; 0x8001af <TxTail>
	}
}
    13a0:	ff 91       	pop	r31
    13a2:	ef 91       	pop	r30
    13a4:	9f 91       	pop	r25
    13a6:	8f 91       	pop	r24
    13a8:	0f 90       	pop	r0
    13aa:	0f be       	out	0x3f, r0	; 63
    13ac:	0f 90       	pop	r0
    13ae:	1f 90       	pop	r1
    13b0:	18 95       	reti

000013b2 <__vector_18>:

ISR (USART0_RX_vect)	//COM Rx
{
    13b2:	1f 92       	push	r1
    13b4:	0f 92       	push	r0
    13b6:	0f b6       	in	r0, 0x3f	; 63
    13b8:	0f 92       	push	r0
    13ba:	11 24       	eor	r1, r1
    13bc:	2f 93       	push	r18
    13be:	3f 93       	push	r19
    13c0:	4f 93       	push	r20
    13c2:	5f 93       	push	r21
    13c4:	6f 93       	push	r22
    13c6:	7f 93       	push	r23
    13c8:	8f 93       	push	r24
    13ca:	9f 93       	push	r25
    13cc:	af 93       	push	r26
    13ce:	bf 93       	push	r27
    13d0:	ef 93       	push	r30
    13d2:	ff 93       	push	r31
// 	uint8_t x = UDR0;
// 	ReceiveChar(x);
// 	PutCharToBuffor(x);
	ReceiveChar(UDR0);
    13d4:	80 91 c6 00 	lds	r24, 0x00C6	; 0x8000c6 <__TEXT_REGION_LENGTH__+0x7e00c6>
    13d8:	0e 94 67 07 	call	0xece	; 0xece <ReceiveChar>
    13dc:	ff 91       	pop	r31
    13de:	ef 91       	pop	r30
    13e0:	bf 91       	pop	r27
    13e2:	af 91       	pop	r26
    13e4:	9f 91       	pop	r25
    13e6:	8f 91       	pop	r24
    13e8:	7f 91       	pop	r23
    13ea:	6f 91       	pop	r22
    13ec:	5f 91       	pop	r21
    13ee:	4f 91       	pop	r20
    13f0:	3f 91       	pop	r19
    13f2:	2f 91       	pop	r18
    13f4:	0f 90       	pop	r0
    13f6:	0f be       	out	0x3f, r0	; 63
    13f8:	0f 90       	pop	r0
    13fa:	1f 90       	pop	r1
    13fc:	18 95       	reti

000013fe <__divsf3>:
    13fe:	0e 94 13 0a 	call	0x1426	; 0x1426 <__divsf3x>
    1402:	0c 94 c5 0a 	jmp	0x158a	; 0x158a <__fp_round>
    1406:	0e 94 be 0a 	call	0x157c	; 0x157c <__fp_pscB>
    140a:	58 f0       	brcs	.+22     	; 0x1422 <__divsf3+0x24>
    140c:	0e 94 b7 0a 	call	0x156e	; 0x156e <__fp_pscA>
    1410:	40 f0       	brcs	.+16     	; 0x1422 <__divsf3+0x24>
    1412:	29 f4       	brne	.+10     	; 0x141e <__divsf3+0x20>
    1414:	5f 3f       	cpi	r21, 0xFF	; 255
    1416:	29 f0       	breq	.+10     	; 0x1422 <__divsf3+0x24>
    1418:	0c 94 ae 0a 	jmp	0x155c	; 0x155c <__fp_inf>
    141c:	51 11       	cpse	r21, r1
    141e:	0c 94 f9 0a 	jmp	0x15f2	; 0x15f2 <__fp_szero>
    1422:	0c 94 b4 0a 	jmp	0x1568	; 0x1568 <__fp_nan>

00001426 <__divsf3x>:
    1426:	0e 94 d6 0a 	call	0x15ac	; 0x15ac <__fp_split3>
    142a:	68 f3       	brcs	.-38     	; 0x1406 <__divsf3+0x8>

0000142c <__divsf3_pse>:
    142c:	99 23       	and	r25, r25
    142e:	b1 f3       	breq	.-20     	; 0x141c <__divsf3+0x1e>
    1430:	55 23       	and	r21, r21
    1432:	91 f3       	breq	.-28     	; 0x1418 <__divsf3+0x1a>
    1434:	95 1b       	sub	r25, r21
    1436:	55 0b       	sbc	r21, r21
    1438:	bb 27       	eor	r27, r27
    143a:	aa 27       	eor	r26, r26
    143c:	62 17       	cp	r22, r18
    143e:	73 07       	cpc	r23, r19
    1440:	84 07       	cpc	r24, r20
    1442:	38 f0       	brcs	.+14     	; 0x1452 <__divsf3_pse+0x26>
    1444:	9f 5f       	subi	r25, 0xFF	; 255
    1446:	5f 4f       	sbci	r21, 0xFF	; 255
    1448:	22 0f       	add	r18, r18
    144a:	33 1f       	adc	r19, r19
    144c:	44 1f       	adc	r20, r20
    144e:	aa 1f       	adc	r26, r26
    1450:	a9 f3       	breq	.-22     	; 0x143c <__divsf3_pse+0x10>
    1452:	35 d0       	rcall	.+106    	; 0x14be <__divsf3_pse+0x92>
    1454:	0e 2e       	mov	r0, r30
    1456:	3a f0       	brmi	.+14     	; 0x1466 <__divsf3_pse+0x3a>
    1458:	e0 e8       	ldi	r30, 0x80	; 128
    145a:	32 d0       	rcall	.+100    	; 0x14c0 <__divsf3_pse+0x94>
    145c:	91 50       	subi	r25, 0x01	; 1
    145e:	50 40       	sbci	r21, 0x00	; 0
    1460:	e6 95       	lsr	r30
    1462:	00 1c       	adc	r0, r0
    1464:	ca f7       	brpl	.-14     	; 0x1458 <__divsf3_pse+0x2c>
    1466:	2b d0       	rcall	.+86     	; 0x14be <__divsf3_pse+0x92>
    1468:	fe 2f       	mov	r31, r30
    146a:	29 d0       	rcall	.+82     	; 0x14be <__divsf3_pse+0x92>
    146c:	66 0f       	add	r22, r22
    146e:	77 1f       	adc	r23, r23
    1470:	88 1f       	adc	r24, r24
    1472:	bb 1f       	adc	r27, r27
    1474:	26 17       	cp	r18, r22
    1476:	37 07       	cpc	r19, r23
    1478:	48 07       	cpc	r20, r24
    147a:	ab 07       	cpc	r26, r27
    147c:	b0 e8       	ldi	r27, 0x80	; 128
    147e:	09 f0       	breq	.+2      	; 0x1482 <__divsf3_pse+0x56>
    1480:	bb 0b       	sbc	r27, r27
    1482:	80 2d       	mov	r24, r0
    1484:	bf 01       	movw	r22, r30
    1486:	ff 27       	eor	r31, r31
    1488:	93 58       	subi	r25, 0x83	; 131
    148a:	5f 4f       	sbci	r21, 0xFF	; 255
    148c:	3a f0       	brmi	.+14     	; 0x149c <__divsf3_pse+0x70>
    148e:	9e 3f       	cpi	r25, 0xFE	; 254
    1490:	51 05       	cpc	r21, r1
    1492:	78 f0       	brcs	.+30     	; 0x14b2 <__divsf3_pse+0x86>
    1494:	0c 94 ae 0a 	jmp	0x155c	; 0x155c <__fp_inf>
    1498:	0c 94 f9 0a 	jmp	0x15f2	; 0x15f2 <__fp_szero>
    149c:	5f 3f       	cpi	r21, 0xFF	; 255
    149e:	e4 f3       	brlt	.-8      	; 0x1498 <__divsf3_pse+0x6c>
    14a0:	98 3e       	cpi	r25, 0xE8	; 232
    14a2:	d4 f3       	brlt	.-12     	; 0x1498 <__divsf3_pse+0x6c>
    14a4:	86 95       	lsr	r24
    14a6:	77 95       	ror	r23
    14a8:	67 95       	ror	r22
    14aa:	b7 95       	ror	r27
    14ac:	f7 95       	ror	r31
    14ae:	9f 5f       	subi	r25, 0xFF	; 255
    14b0:	c9 f7       	brne	.-14     	; 0x14a4 <__divsf3_pse+0x78>
    14b2:	88 0f       	add	r24, r24
    14b4:	91 1d       	adc	r25, r1
    14b6:	96 95       	lsr	r25
    14b8:	87 95       	ror	r24
    14ba:	97 f9       	bld	r25, 7
    14bc:	08 95       	ret
    14be:	e1 e0       	ldi	r30, 0x01	; 1
    14c0:	66 0f       	add	r22, r22
    14c2:	77 1f       	adc	r23, r23
    14c4:	88 1f       	adc	r24, r24
    14c6:	bb 1f       	adc	r27, r27
    14c8:	62 17       	cp	r22, r18
    14ca:	73 07       	cpc	r23, r19
    14cc:	84 07       	cpc	r24, r20
    14ce:	ba 07       	cpc	r27, r26
    14d0:	20 f0       	brcs	.+8      	; 0x14da <__divsf3_pse+0xae>
    14d2:	62 1b       	sub	r22, r18
    14d4:	73 0b       	sbc	r23, r19
    14d6:	84 0b       	sbc	r24, r20
    14d8:	ba 0b       	sbc	r27, r26
    14da:	ee 1f       	adc	r30, r30
    14dc:	88 f7       	brcc	.-30     	; 0x14c0 <__divsf3_pse+0x94>
    14de:	e0 95       	com	r30
    14e0:	08 95       	ret

000014e2 <__floatunsisf>:
    14e2:	e8 94       	clt
    14e4:	09 c0       	rjmp	.+18     	; 0x14f8 <__floatsisf+0x12>

000014e6 <__floatsisf>:
    14e6:	97 fb       	bst	r25, 7
    14e8:	3e f4       	brtc	.+14     	; 0x14f8 <__floatsisf+0x12>
    14ea:	90 95       	com	r25
    14ec:	80 95       	com	r24
    14ee:	70 95       	com	r23
    14f0:	61 95       	neg	r22
    14f2:	7f 4f       	sbci	r23, 0xFF	; 255
    14f4:	8f 4f       	sbci	r24, 0xFF	; 255
    14f6:	9f 4f       	sbci	r25, 0xFF	; 255
    14f8:	99 23       	and	r25, r25
    14fa:	a9 f0       	breq	.+42     	; 0x1526 <__floatsisf+0x40>
    14fc:	f9 2f       	mov	r31, r25
    14fe:	96 e9       	ldi	r25, 0x96	; 150
    1500:	bb 27       	eor	r27, r27
    1502:	93 95       	inc	r25
    1504:	f6 95       	lsr	r31
    1506:	87 95       	ror	r24
    1508:	77 95       	ror	r23
    150a:	67 95       	ror	r22
    150c:	b7 95       	ror	r27
    150e:	f1 11       	cpse	r31, r1
    1510:	f8 cf       	rjmp	.-16     	; 0x1502 <__floatsisf+0x1c>
    1512:	fa f4       	brpl	.+62     	; 0x1552 <__floatsisf+0x6c>
    1514:	bb 0f       	add	r27, r27
    1516:	11 f4       	brne	.+4      	; 0x151c <__floatsisf+0x36>
    1518:	60 ff       	sbrs	r22, 0
    151a:	1b c0       	rjmp	.+54     	; 0x1552 <__floatsisf+0x6c>
    151c:	6f 5f       	subi	r22, 0xFF	; 255
    151e:	7f 4f       	sbci	r23, 0xFF	; 255
    1520:	8f 4f       	sbci	r24, 0xFF	; 255
    1522:	9f 4f       	sbci	r25, 0xFF	; 255
    1524:	16 c0       	rjmp	.+44     	; 0x1552 <__floatsisf+0x6c>
    1526:	88 23       	and	r24, r24
    1528:	11 f0       	breq	.+4      	; 0x152e <__floatsisf+0x48>
    152a:	96 e9       	ldi	r25, 0x96	; 150
    152c:	11 c0       	rjmp	.+34     	; 0x1550 <__floatsisf+0x6a>
    152e:	77 23       	and	r23, r23
    1530:	21 f0       	breq	.+8      	; 0x153a <__floatsisf+0x54>
    1532:	9e e8       	ldi	r25, 0x8E	; 142
    1534:	87 2f       	mov	r24, r23
    1536:	76 2f       	mov	r23, r22
    1538:	05 c0       	rjmp	.+10     	; 0x1544 <__floatsisf+0x5e>
    153a:	66 23       	and	r22, r22
    153c:	71 f0       	breq	.+28     	; 0x155a <__floatsisf+0x74>
    153e:	96 e8       	ldi	r25, 0x86	; 134
    1540:	86 2f       	mov	r24, r22
    1542:	70 e0       	ldi	r23, 0x00	; 0
    1544:	60 e0       	ldi	r22, 0x00	; 0
    1546:	2a f0       	brmi	.+10     	; 0x1552 <__floatsisf+0x6c>
    1548:	9a 95       	dec	r25
    154a:	66 0f       	add	r22, r22
    154c:	77 1f       	adc	r23, r23
    154e:	88 1f       	adc	r24, r24
    1550:	da f7       	brpl	.-10     	; 0x1548 <__floatsisf+0x62>
    1552:	88 0f       	add	r24, r24
    1554:	96 95       	lsr	r25
    1556:	87 95       	ror	r24
    1558:	97 f9       	bld	r25, 7
    155a:	08 95       	ret

0000155c <__fp_inf>:
    155c:	97 f9       	bld	r25, 7
    155e:	9f 67       	ori	r25, 0x7F	; 127
    1560:	80 e8       	ldi	r24, 0x80	; 128
    1562:	70 e0       	ldi	r23, 0x00	; 0
    1564:	60 e0       	ldi	r22, 0x00	; 0
    1566:	08 95       	ret

00001568 <__fp_nan>:
    1568:	9f ef       	ldi	r25, 0xFF	; 255
    156a:	80 ec       	ldi	r24, 0xC0	; 192
    156c:	08 95       	ret

0000156e <__fp_pscA>:
    156e:	00 24       	eor	r0, r0
    1570:	0a 94       	dec	r0
    1572:	16 16       	cp	r1, r22
    1574:	17 06       	cpc	r1, r23
    1576:	18 06       	cpc	r1, r24
    1578:	09 06       	cpc	r0, r25
    157a:	08 95       	ret

0000157c <__fp_pscB>:
    157c:	00 24       	eor	r0, r0
    157e:	0a 94       	dec	r0
    1580:	12 16       	cp	r1, r18
    1582:	13 06       	cpc	r1, r19
    1584:	14 06       	cpc	r1, r20
    1586:	05 06       	cpc	r0, r21
    1588:	08 95       	ret

0000158a <__fp_round>:
    158a:	09 2e       	mov	r0, r25
    158c:	03 94       	inc	r0
    158e:	00 0c       	add	r0, r0
    1590:	11 f4       	brne	.+4      	; 0x1596 <__fp_round+0xc>
    1592:	88 23       	and	r24, r24
    1594:	52 f0       	brmi	.+20     	; 0x15aa <__fp_round+0x20>
    1596:	bb 0f       	add	r27, r27
    1598:	40 f4       	brcc	.+16     	; 0x15aa <__fp_round+0x20>
    159a:	bf 2b       	or	r27, r31
    159c:	11 f4       	brne	.+4      	; 0x15a2 <__fp_round+0x18>
    159e:	60 ff       	sbrs	r22, 0
    15a0:	04 c0       	rjmp	.+8      	; 0x15aa <__fp_round+0x20>
    15a2:	6f 5f       	subi	r22, 0xFF	; 255
    15a4:	7f 4f       	sbci	r23, 0xFF	; 255
    15a6:	8f 4f       	sbci	r24, 0xFF	; 255
    15a8:	9f 4f       	sbci	r25, 0xFF	; 255
    15aa:	08 95       	ret

000015ac <__fp_split3>:
    15ac:	57 fd       	sbrc	r21, 7
    15ae:	90 58       	subi	r25, 0x80	; 128
    15b0:	44 0f       	add	r20, r20
    15b2:	55 1f       	adc	r21, r21
    15b4:	59 f0       	breq	.+22     	; 0x15cc <__fp_splitA+0x10>
    15b6:	5f 3f       	cpi	r21, 0xFF	; 255
    15b8:	71 f0       	breq	.+28     	; 0x15d6 <__fp_splitA+0x1a>
    15ba:	47 95       	ror	r20

000015bc <__fp_splitA>:
    15bc:	88 0f       	add	r24, r24
    15be:	97 fb       	bst	r25, 7
    15c0:	99 1f       	adc	r25, r25
    15c2:	61 f0       	breq	.+24     	; 0x15dc <__fp_splitA+0x20>
    15c4:	9f 3f       	cpi	r25, 0xFF	; 255
    15c6:	79 f0       	breq	.+30     	; 0x15e6 <__fp_splitA+0x2a>
    15c8:	87 95       	ror	r24
    15ca:	08 95       	ret
    15cc:	12 16       	cp	r1, r18
    15ce:	13 06       	cpc	r1, r19
    15d0:	14 06       	cpc	r1, r20
    15d2:	55 1f       	adc	r21, r21
    15d4:	f2 cf       	rjmp	.-28     	; 0x15ba <__fp_split3+0xe>
    15d6:	46 95       	lsr	r20
    15d8:	f1 df       	rcall	.-30     	; 0x15bc <__fp_splitA>
    15da:	08 c0       	rjmp	.+16     	; 0x15ec <__fp_splitA+0x30>
    15dc:	16 16       	cp	r1, r22
    15de:	17 06       	cpc	r1, r23
    15e0:	18 06       	cpc	r1, r24
    15e2:	99 1f       	adc	r25, r25
    15e4:	f1 cf       	rjmp	.-30     	; 0x15c8 <__fp_splitA+0xc>
    15e6:	86 95       	lsr	r24
    15e8:	71 05       	cpc	r23, r1
    15ea:	61 05       	cpc	r22, r1
    15ec:	08 94       	sec
    15ee:	08 95       	ret

000015f0 <__fp_zero>:
    15f0:	e8 94       	clt

000015f2 <__fp_szero>:
    15f2:	bb 27       	eor	r27, r27
    15f4:	66 27       	eor	r22, r22
    15f6:	77 27       	eor	r23, r23
    15f8:	cb 01       	movw	r24, r22
    15fa:	97 f9       	bld	r25, 7
    15fc:	08 95       	ret

000015fe <__mulsf3>:
    15fe:	0e 94 12 0b 	call	0x1624	; 0x1624 <__mulsf3x>
    1602:	0c 94 c5 0a 	jmp	0x158a	; 0x158a <__fp_round>
    1606:	0e 94 b7 0a 	call	0x156e	; 0x156e <__fp_pscA>
    160a:	38 f0       	brcs	.+14     	; 0x161a <__mulsf3+0x1c>
    160c:	0e 94 be 0a 	call	0x157c	; 0x157c <__fp_pscB>
    1610:	20 f0       	brcs	.+8      	; 0x161a <__mulsf3+0x1c>
    1612:	95 23       	and	r25, r21
    1614:	11 f0       	breq	.+4      	; 0x161a <__mulsf3+0x1c>
    1616:	0c 94 ae 0a 	jmp	0x155c	; 0x155c <__fp_inf>
    161a:	0c 94 b4 0a 	jmp	0x1568	; 0x1568 <__fp_nan>
    161e:	11 24       	eor	r1, r1
    1620:	0c 94 f9 0a 	jmp	0x15f2	; 0x15f2 <__fp_szero>

00001624 <__mulsf3x>:
    1624:	0e 94 d6 0a 	call	0x15ac	; 0x15ac <__fp_split3>
    1628:	70 f3       	brcs	.-36     	; 0x1606 <__mulsf3+0x8>

0000162a <__mulsf3_pse>:
    162a:	95 9f       	mul	r25, r21
    162c:	c1 f3       	breq	.-16     	; 0x161e <__mulsf3+0x20>
    162e:	95 0f       	add	r25, r21
    1630:	50 e0       	ldi	r21, 0x00	; 0
    1632:	55 1f       	adc	r21, r21
    1634:	62 9f       	mul	r22, r18
    1636:	f0 01       	movw	r30, r0
    1638:	72 9f       	mul	r23, r18
    163a:	bb 27       	eor	r27, r27
    163c:	f0 0d       	add	r31, r0
    163e:	b1 1d       	adc	r27, r1
    1640:	63 9f       	mul	r22, r19
    1642:	aa 27       	eor	r26, r26
    1644:	f0 0d       	add	r31, r0
    1646:	b1 1d       	adc	r27, r1
    1648:	aa 1f       	adc	r26, r26
    164a:	64 9f       	mul	r22, r20
    164c:	66 27       	eor	r22, r22
    164e:	b0 0d       	add	r27, r0
    1650:	a1 1d       	adc	r26, r1
    1652:	66 1f       	adc	r22, r22
    1654:	82 9f       	mul	r24, r18
    1656:	22 27       	eor	r18, r18
    1658:	b0 0d       	add	r27, r0
    165a:	a1 1d       	adc	r26, r1
    165c:	62 1f       	adc	r22, r18
    165e:	73 9f       	mul	r23, r19
    1660:	b0 0d       	add	r27, r0
    1662:	a1 1d       	adc	r26, r1
    1664:	62 1f       	adc	r22, r18
    1666:	83 9f       	mul	r24, r19
    1668:	a0 0d       	add	r26, r0
    166a:	61 1d       	adc	r22, r1
    166c:	22 1f       	adc	r18, r18
    166e:	74 9f       	mul	r23, r20
    1670:	33 27       	eor	r19, r19
    1672:	a0 0d       	add	r26, r0
    1674:	61 1d       	adc	r22, r1
    1676:	23 1f       	adc	r18, r19
    1678:	84 9f       	mul	r24, r20
    167a:	60 0d       	add	r22, r0
    167c:	21 1d       	adc	r18, r1
    167e:	82 2f       	mov	r24, r18
    1680:	76 2f       	mov	r23, r22
    1682:	6a 2f       	mov	r22, r26
    1684:	11 24       	eor	r1, r1
    1686:	9f 57       	subi	r25, 0x7F	; 127
    1688:	50 40       	sbci	r21, 0x00	; 0
    168a:	9a f0       	brmi	.+38     	; 0x16b2 <__mulsf3_pse+0x88>
    168c:	f1 f0       	breq	.+60     	; 0x16ca <__mulsf3_pse+0xa0>
    168e:	88 23       	and	r24, r24
    1690:	4a f0       	brmi	.+18     	; 0x16a4 <__mulsf3_pse+0x7a>
    1692:	ee 0f       	add	r30, r30
    1694:	ff 1f       	adc	r31, r31
    1696:	bb 1f       	adc	r27, r27
    1698:	66 1f       	adc	r22, r22
    169a:	77 1f       	adc	r23, r23
    169c:	88 1f       	adc	r24, r24
    169e:	91 50       	subi	r25, 0x01	; 1
    16a0:	50 40       	sbci	r21, 0x00	; 0
    16a2:	a9 f7       	brne	.-22     	; 0x168e <__mulsf3_pse+0x64>
    16a4:	9e 3f       	cpi	r25, 0xFE	; 254
    16a6:	51 05       	cpc	r21, r1
    16a8:	80 f0       	brcs	.+32     	; 0x16ca <__mulsf3_pse+0xa0>
    16aa:	0c 94 ae 0a 	jmp	0x155c	; 0x155c <__fp_inf>
    16ae:	0c 94 f9 0a 	jmp	0x15f2	; 0x15f2 <__fp_szero>
    16b2:	5f 3f       	cpi	r21, 0xFF	; 255
    16b4:	e4 f3       	brlt	.-8      	; 0x16ae <__mulsf3_pse+0x84>
    16b6:	98 3e       	cpi	r25, 0xE8	; 232
    16b8:	d4 f3       	brlt	.-12     	; 0x16ae <__mulsf3_pse+0x84>
    16ba:	86 95       	lsr	r24
    16bc:	77 95       	ror	r23
    16be:	67 95       	ror	r22
    16c0:	b7 95       	ror	r27
    16c2:	f7 95       	ror	r31
    16c4:	e7 95       	ror	r30
    16c6:	9f 5f       	subi	r25, 0xFF	; 255
    16c8:	c1 f7       	brne	.-16     	; 0x16ba <__mulsf3_pse+0x90>
    16ca:	fe 2b       	or	r31, r30
    16cc:	88 0f       	add	r24, r24
    16ce:	91 1d       	adc	r25, r1
    16d0:	96 95       	lsr	r25
    16d2:	87 95       	ror	r24
    16d4:	97 f9       	bld	r25, 7
    16d6:	08 95       	ret

000016d8 <__divmodsi4>:
    16d8:	05 2e       	mov	r0, r21
    16da:	97 fb       	bst	r25, 7
    16dc:	1e f4       	brtc	.+6      	; 0x16e4 <__divmodsi4+0xc>
    16de:	00 94       	com	r0
    16e0:	0e 94 83 0b 	call	0x1706	; 0x1706 <__negsi2>
    16e4:	57 fd       	sbrc	r21, 7
    16e6:	07 d0       	rcall	.+14     	; 0x16f6 <__divmodsi4_neg2>
    16e8:	0e 94 a0 0b 	call	0x1740	; 0x1740 <__udivmodsi4>
    16ec:	07 fc       	sbrc	r0, 7
    16ee:	03 d0       	rcall	.+6      	; 0x16f6 <__divmodsi4_neg2>
    16f0:	4e f4       	brtc	.+18     	; 0x1704 <__divmodsi4_exit>
    16f2:	0c 94 83 0b 	jmp	0x1706	; 0x1706 <__negsi2>

000016f6 <__divmodsi4_neg2>:
    16f6:	50 95       	com	r21
    16f8:	40 95       	com	r20
    16fa:	30 95       	com	r19
    16fc:	21 95       	neg	r18
    16fe:	3f 4f       	sbci	r19, 0xFF	; 255
    1700:	4f 4f       	sbci	r20, 0xFF	; 255
    1702:	5f 4f       	sbci	r21, 0xFF	; 255

00001704 <__divmodsi4_exit>:
    1704:	08 95       	ret

00001706 <__negsi2>:
    1706:	90 95       	com	r25
    1708:	80 95       	com	r24
    170a:	70 95       	com	r23
    170c:	61 95       	neg	r22
    170e:	7f 4f       	sbci	r23, 0xFF	; 255
    1710:	8f 4f       	sbci	r24, 0xFF	; 255
    1712:	9f 4f       	sbci	r25, 0xFF	; 255
    1714:	08 95       	ret

00001716 <__tablejump2__>:
    1716:	ee 0f       	add	r30, r30
    1718:	ff 1f       	adc	r31, r31
    171a:	05 90       	lpm	r0, Z+
    171c:	f4 91       	lpm	r31, Z
    171e:	e0 2d       	mov	r30, r0
    1720:	09 94       	ijmp

00001722 <__umulhisi3>:
    1722:	a2 9f       	mul	r26, r18
    1724:	b0 01       	movw	r22, r0
    1726:	b3 9f       	mul	r27, r19
    1728:	c0 01       	movw	r24, r0
    172a:	a3 9f       	mul	r26, r19
    172c:	70 0d       	add	r23, r0
    172e:	81 1d       	adc	r24, r1
    1730:	11 24       	eor	r1, r1
    1732:	91 1d       	adc	r25, r1
    1734:	b2 9f       	mul	r27, r18
    1736:	70 0d       	add	r23, r0
    1738:	81 1d       	adc	r24, r1
    173a:	11 24       	eor	r1, r1
    173c:	91 1d       	adc	r25, r1
    173e:	08 95       	ret

00001740 <__udivmodsi4>:
    1740:	a1 e2       	ldi	r26, 0x21	; 33
    1742:	1a 2e       	mov	r1, r26
    1744:	aa 1b       	sub	r26, r26
    1746:	bb 1b       	sub	r27, r27
    1748:	fd 01       	movw	r30, r26
    174a:	0d c0       	rjmp	.+26     	; 0x1766 <__udivmodsi4_ep>

0000174c <__udivmodsi4_loop>:
    174c:	aa 1f       	adc	r26, r26
    174e:	bb 1f       	adc	r27, r27
    1750:	ee 1f       	adc	r30, r30
    1752:	ff 1f       	adc	r31, r31
    1754:	a2 17       	cp	r26, r18
    1756:	b3 07       	cpc	r27, r19
    1758:	e4 07       	cpc	r30, r20
    175a:	f5 07       	cpc	r31, r21
    175c:	20 f0       	brcs	.+8      	; 0x1766 <__udivmodsi4_ep>
    175e:	a2 1b       	sub	r26, r18
    1760:	b3 0b       	sbc	r27, r19
    1762:	e4 0b       	sbc	r30, r20
    1764:	f5 0b       	sbc	r31, r21

00001766 <__udivmodsi4_ep>:
    1766:	66 1f       	adc	r22, r22
    1768:	77 1f       	adc	r23, r23
    176a:	88 1f       	adc	r24, r24
    176c:	99 1f       	adc	r25, r25
    176e:	1a 94       	dec	r1
    1770:	69 f7       	brne	.-38     	; 0x174c <__udivmodsi4_loop>
    1772:	60 95       	com	r22
    1774:	70 95       	com	r23
    1776:	80 95       	com	r24
    1778:	90 95       	com	r25
    177a:	9b 01       	movw	r18, r22
    177c:	ac 01       	movw	r20, r24
    177e:	bd 01       	movw	r22, r26
    1780:	cf 01       	movw	r24, r30
    1782:	08 95       	ret

00001784 <__strlen_P>:
    1784:	fc 01       	movw	r30, r24
    1786:	05 90       	lpm	r0, Z+
    1788:	00 20       	and	r0, r0
    178a:	e9 f7       	brne	.-6      	; 0x1786 <__strlen_P+0x2>
    178c:	80 95       	com	r24
    178e:	90 95       	com	r25
    1790:	8e 0f       	add	r24, r30
    1792:	9f 1f       	adc	r25, r31
    1794:	08 95       	ret

00001796 <strncasecmp_P>:
    1796:	fb 01       	movw	r30, r22
    1798:	dc 01       	movw	r26, r24
    179a:	41 50       	subi	r20, 0x01	; 1
    179c:	50 40       	sbci	r21, 0x00	; 0
    179e:	88 f0       	brcs	.+34     	; 0x17c2 <strncasecmp_P+0x2c>
    17a0:	8d 91       	ld	r24, X+
    17a2:	81 34       	cpi	r24, 0x41	; 65
    17a4:	1c f0       	brlt	.+6      	; 0x17ac <strncasecmp_P+0x16>
    17a6:	8b 35       	cpi	r24, 0x5B	; 91
    17a8:	0c f4       	brge	.+2      	; 0x17ac <strncasecmp_P+0x16>
    17aa:	80 5e       	subi	r24, 0xE0	; 224
    17ac:	65 91       	lpm	r22, Z+
    17ae:	61 34       	cpi	r22, 0x41	; 65
    17b0:	1c f0       	brlt	.+6      	; 0x17b8 <strncasecmp_P+0x22>
    17b2:	6b 35       	cpi	r22, 0x5B	; 91
    17b4:	0c f4       	brge	.+2      	; 0x17b8 <strncasecmp_P+0x22>
    17b6:	60 5e       	subi	r22, 0xE0	; 224
    17b8:	86 1b       	sub	r24, r22
    17ba:	61 11       	cpse	r22, r1
    17bc:	71 f3       	breq	.-36     	; 0x179a <strncasecmp_P+0x4>
    17be:	99 0b       	sbc	r25, r25
    17c0:	08 95       	ret
    17c2:	88 1b       	sub	r24, r24
    17c4:	fc cf       	rjmp	.-8      	; 0x17be <strncasecmp_P+0x28>

000017c6 <strtok_r>:
    17c6:	fa 01       	movw	r30, r20
    17c8:	a1 91       	ld	r26, Z+
    17ca:	b0 81       	ld	r27, Z
    17cc:	00 97       	sbiw	r24, 0x00	; 0
    17ce:	19 f4       	brne	.+6      	; 0x17d6 <strtok_r+0x10>
    17d0:	10 97       	sbiw	r26, 0x00	; 0
    17d2:	e1 f0       	breq	.+56     	; 0x180c <strtok_r+0x46>
    17d4:	cd 01       	movw	r24, r26
    17d6:	dc 01       	movw	r26, r24
    17d8:	cd 01       	movw	r24, r26
    17da:	0d 90       	ld	r0, X+
    17dc:	00 20       	and	r0, r0
    17de:	11 f4       	brne	.+4      	; 0x17e4 <strtok_r+0x1e>
    17e0:	c0 01       	movw	r24, r0
    17e2:	13 c0       	rjmp	.+38     	; 0x180a <strtok_r+0x44>
    17e4:	fb 01       	movw	r30, r22
    17e6:	21 91       	ld	r18, Z+
    17e8:	22 23       	and	r18, r18
    17ea:	19 f0       	breq	.+6      	; 0x17f2 <strtok_r+0x2c>
    17ec:	20 15       	cp	r18, r0
    17ee:	d9 f7       	brne	.-10     	; 0x17e6 <strtok_r+0x20>
    17f0:	f3 cf       	rjmp	.-26     	; 0x17d8 <strtok_r+0x12>
    17f2:	fb 01       	movw	r30, r22
    17f4:	21 91       	ld	r18, Z+
    17f6:	20 15       	cp	r18, r0
    17f8:	19 f4       	brne	.+6      	; 0x1800 <strtok_r+0x3a>
    17fa:	1e 92       	st	-X, r1
    17fc:	11 96       	adiw	r26, 0x01	; 1
    17fe:	06 c0       	rjmp	.+12     	; 0x180c <strtok_r+0x46>
    1800:	22 23       	and	r18, r18
    1802:	c1 f7       	brne	.-16     	; 0x17f4 <strtok_r+0x2e>
    1804:	0d 90       	ld	r0, X+
    1806:	00 20       	and	r0, r0
    1808:	a1 f7       	brne	.-24     	; 0x17f2 <strtok_r+0x2c>
    180a:	d0 01       	movw	r26, r0
    180c:	fa 01       	movw	r30, r20
    180e:	a1 93       	st	Z+, r26
    1810:	b0 83       	st	Z, r27
    1812:	08 95       	ret

00001814 <_exit>:
    1814:	f8 94       	cli

00001816 <__stop_program>:
    1816:	ff cf       	rjmp	.-2      	; 0x1816 <__stop_program>
