
Flight assistant.elf:     file format elf32-avr

Sections:
Idx Name          Size      VMA       LMA       File off  Algn
  0 .data         00000116  00800100  00003466  000034fa  2**0
                  CONTENTS, ALLOC, LOAD, DATA
  1 .text         00003466  00000000  00000000  00000094  2**1
                  CONTENTS, ALLOC, LOAD, READONLY, CODE
  2 .bss          000002e6  00800216  00800216  00003610  2**0
                  ALLOC
  3 .comment      0000005c  00000000  00000000  00003610  2**0
                  CONTENTS, READONLY
  4 .note.gnu.avr.deviceinfo 00000040  00000000  00000000  0000366c  2**2
                  CONTENTS, READONLY
  5 .debug_aranges 00000478  00000000  00000000  000036b0  2**3
                  CONTENTS, READONLY, DEBUGGING
  6 .debug_info   000057c6  00000000  00000000  00003b28  2**0
                  CONTENTS, READONLY, DEBUGGING
  7 .debug_abbrev 00001fde  00000000  00000000  000092ee  2**0
                  CONTENTS, READONLY, DEBUGGING
  8 .debug_line   0000296a  00000000  00000000  0000b2cc  2**0
                  CONTENTS, READONLY, DEBUGGING
  9 .debug_frame  00000d3c  00000000  00000000  0000dc38  2**2
                  CONTENTS, READONLY, DEBUGGING
 10 .debug_str    000010d3  00000000  00000000  0000e974  2**0
                  CONTENTS, READONLY, DEBUGGING
 11 .debug_loc    00003df6  00000000  00000000  0000fa47  2**0
                  CONTENTS, READONLY, DEBUGGING
 12 .debug_ranges 000003c0  00000000  00000000  0001383d  2**0
                  CONTENTS, READONLY, DEBUGGING

Disassembly of section .text:

00000000 <__vectors>:
       0:	0c 94 b1 00 	jmp	0x162	; 0x162 <__ctors_end>
       4:	0c 94 ce 00 	jmp	0x19c	; 0x19c <__bad_interrupt>
       8:	0c 94 ce 00 	jmp	0x19c	; 0x19c <__bad_interrupt>
       c:	0c 94 ce 00 	jmp	0x19c	; 0x19c <__bad_interrupt>
      10:	0c 94 ce 00 	jmp	0x19c	; 0x19c <__bad_interrupt>
      14:	0c 94 ce 00 	jmp	0x19c	; 0x19c <__bad_interrupt>
      18:	0c 94 ce 00 	jmp	0x19c	; 0x19c <__bad_interrupt>
      1c:	0c 94 ce 00 	jmp	0x19c	; 0x19c <__bad_interrupt>
      20:	0c 94 ce 00 	jmp	0x19c	; 0x19c <__bad_interrupt>
      24:	0c 94 ce 00 	jmp	0x19c	; 0x19c <__bad_interrupt>
      28:	0c 94 ce 00 	jmp	0x19c	; 0x19c <__bad_interrupt>
      2c:	0c 94 ce 00 	jmp	0x19c	; 0x19c <__bad_interrupt>
      30:	0c 94 ce 00 	jmp	0x19c	; 0x19c <__bad_interrupt>
      34:	0c 94 ce 00 	jmp	0x19c	; 0x19c <__bad_interrupt>
      38:	0c 94 ce 00 	jmp	0x19c	; 0x19c <__bad_interrupt>
      3c:	0c 94 ce 00 	jmp	0x19c	; 0x19c <__bad_interrupt>
      40:	0c 94 9d 0c 	jmp	0x193a	; 0x193a <__vector_16>
      44:	0c 94 ce 00 	jmp	0x19c	; 0x19c <__bad_interrupt>
      48:	0c 94 d9 13 	jmp	0x27b2	; 0x27b2 <__vector_18>
      4c:	0c 94 ce 00 	jmp	0x19c	; 0x19c <__bad_interrupt>
      50:	0c 94 b0 13 	jmp	0x2760	; 0x2760 <__vector_20>
      54:	0c 94 ce 00 	jmp	0x19c	; 0x19c <__bad_interrupt>
      58:	0c 94 ce 00 	jmp	0x19c	; 0x19c <__bad_interrupt>
      5c:	0c 94 ce 00 	jmp	0x19c	; 0x19c <__bad_interrupt>
      60:	0c 94 d5 0d 	jmp	0x1baa	; 0x1baa <__vector_24>
      64:	0c 94 ce 00 	jmp	0x19c	; 0x19c <__bad_interrupt>
      68:	0c 94 ce 00 	jmp	0x19c	; 0x19c <__bad_interrupt>
      6c:	0c 94 ce 00 	jmp	0x19c	; 0x19c <__bad_interrupt>
      70:	0c 94 e1 0a 	jmp	0x15c2	; 0x15c2 <__vector_28>
      74:	0c 94 ce 00 	jmp	0x19c	; 0x19c <__bad_interrupt>
      78:	0c 94 ce 00 	jmp	0x19c	; 0x19c <__bad_interrupt>
      7c:	0c 94 ce 00 	jmp	0x19c	; 0x19c <__bad_interrupt>
      80:	0c 94 ce 00 	jmp	0x19c	; 0x19c <__bad_interrupt>
      84:	0c 94 fb 0c 	jmp	0x19f6	; 0x19f6 <__vector_33>
      88:	0c 94 16 0d 	jmp	0x1a2c	; 0x1a2c <__vector_34>
      8c:	0c 94 ce 00 	jmp	0x19c	; 0x19c <__bad_interrupt>
      90:	0c 94 ce 00 	jmp	0x19c	; 0x19c <__bad_interrupt>
      94:	0c 94 ce 00 	jmp	0x19c	; 0x19c <__bad_interrupt>
      98:	0c 94 ce 00 	jmp	0x19c	; 0x19c <__bad_interrupt>
      9c:	0c 94 ce 00 	jmp	0x19c	; 0x19c <__bad_interrupt>
      a0:	0c 94 ce 00 	jmp	0x19c	; 0x19c <__bad_interrupt>
      a4:	0c 94 ce 00 	jmp	0x19c	; 0x19c <__bad_interrupt>
      a8:	0c 94 af 0d 	jmp	0x1b5e	; 0x1b5e <__vector_42>
      ac:	0c 94 ce 00 	jmp	0x19c	; 0x19c <__bad_interrupt>
      b0:	0c 94 ce 00 	jmp	0x19c	; 0x19c <__bad_interrupt>
      b4:	02 0e       	add	r0, r18
      b6:	16 0e       	add	r1, r22
      b8:	32 0e       	add	r3, r18
      ba:	a2 0e       	add	r10, r18
      bc:	b8 0e       	add	r11, r24
      be:	f6 0e       	add	r15, r22
      c0:	49 0f       	add	r20, r25
      c2:	7b 0f       	add	r23, r27
      c4:	ce 0f       	add	r28, r30
      c6:	08 4a       	sbci	r16, 0xA8	; 168
      c8:	d7 3b       	cpi	r29, 0xB7	; 183
      ca:	3b ce       	rjmp	.-906    	; 0xfffffd42 <__eeprom_end+0xff7efd42>
      cc:	01 6e       	ori	r16, 0xE1	; 225
      ce:	84 bc       	out	0x24, r8	; 36
      d0:	bf fd       	.word	0xfdbf	; ????
      d2:	c1 2f       	mov	r28, r17
      d4:	3d 6c       	ori	r19, 0xCD	; 205
      d6:	74 31       	cpi	r23, 0x14	; 20
      d8:	9a bd       	out	0x2a, r25	; 42
      da:	56 83       	std	Z+6, r21	; 0x06
      dc:	3d da       	rcall	.-2950   	; 0xfffff558 <__eeprom_end+0xff7ef558>
      de:	3d 00       	.word	0x003d	; ????
      e0:	c7 7f       	andi	r28, 0xF7	; 247
      e2:	11 be       	out	0x31, r1	; 49
      e4:	d9 e4       	ldi	r29, 0x49	; 73
      e6:	bb 4c       	sbci	r27, 0xCB	; 203
      e8:	3e 91       	ld	r19, -X
      ea:	6b aa       	std	Y+51, r6	; 0x33
      ec:	aa be       	out	0x3a, r10	; 58
      ee:	00 00       	nop
      f0:	00 80       	ld	r0, Z
      f2:	3f 00       	.word	0x003f	; ????

000000f4 <ER_commands>:
      f4:	45 52 00 00 00 00 00 00 00 00 00 00 00 00 00 00     ER..............
     104:	00 00 00 00 f1 0f 45 52 5f 52 45 41 44 00 00 00     ......ER_READ...
	...
     11c:	00 00 f7 0f 45 52 5f 42 55 46 00 00 00 00 00 00     ....ER_BUF......
	...
     134:	4f 10 45 52 5f 44 42 47 00 00 00 00 00 00 00 00     O.ER_DBG........
     144:	00 00 00 00 00 00 ac 10 45 52 5f 53 42 55 53 00     ........ER_SBUS.
	...
     160:	af 10                                               ..

00000162 <__ctors_end>:
     162:	11 24       	eor	r1, r1
     164:	1f be       	out	0x3f, r1	; 63
     166:	cf ef       	ldi	r28, 0xFF	; 255
     168:	d8 e0       	ldi	r29, 0x08	; 8
     16a:	de bf       	out	0x3e, r29	; 62
     16c:	cd bf       	out	0x3d, r28	; 61

0000016e <__do_copy_data>:
     16e:	12 e0       	ldi	r17, 0x02	; 2
     170:	a0 e0       	ldi	r26, 0x00	; 0
     172:	b1 e0       	ldi	r27, 0x01	; 1
     174:	e6 e6       	ldi	r30, 0x66	; 102
     176:	f4 e3       	ldi	r31, 0x34	; 52
     178:	02 c0       	rjmp	.+4      	; 0x17e <__do_copy_data+0x10>
     17a:	05 90       	lpm	r0, Z+
     17c:	0d 92       	st	X+, r0
     17e:	a6 31       	cpi	r26, 0x16	; 22
     180:	b1 07       	cpc	r27, r17
     182:	d9 f7       	brne	.-10     	; 0x17a <__do_copy_data+0xc>

00000184 <__do_clear_bss>:
     184:	24 e0       	ldi	r18, 0x04	; 4
     186:	a6 e1       	ldi	r26, 0x16	; 22
     188:	b2 e0       	ldi	r27, 0x02	; 2
     18a:	01 c0       	rjmp	.+2      	; 0x18e <.do_clear_bss_start>

0000018c <.do_clear_bss_loop>:
     18c:	1d 92       	st	X+, r1

0000018e <.do_clear_bss_start>:
     18e:	ac 3f       	cpi	r26, 0xFC	; 252
     190:	b2 07       	cpc	r27, r18
     192:	e1 f7       	brne	.-8      	; 0x18c <.do_clear_bss_loop>
     194:	0e 94 96 04 	call	0x92c	; 0x92c <main>
     198:	0c 94 31 1a 	jmp	0x3462	; 0x3462 <_exit>

0000019c <__bad_interrupt>:
     19c:	0c 94 00 00 	jmp	0	; 0x0 <__vectors>

000001a0 <PlaceInGyroBuffor>:
void Events(void)
{
	if (events.flag.process_PWMs == 1)
	{
		ProcessPWMs();
		events.flag.process_PWMs = 0;
     1a0:	fc 01       	movw	r30, r24
     1a2:	90 91 19 02 	lds	r25, 0x0219	; 0x800219 <gyro_head>
     1a6:	29 2f       	mov	r18, r25
     1a8:	30 e0       	ldi	r19, 0x00	; 0
     1aa:	40 81       	ld	r20, Z
     1ac:	51 81       	ldd	r21, Z+1	; 0x01
     1ae:	22 0f       	add	r18, r18
     1b0:	33 1f       	adc	r19, r19
     1b2:	d9 01       	movw	r26, r18
     1b4:	a2 5e       	subi	r26, 0xE2	; 226
     1b6:	bd 4f       	sbci	r27, 0xFD	; 253
     1b8:	4d 93       	st	X+, r20
     1ba:	5c 93       	st	X, r21
     1bc:	42 81       	ldd	r20, Z+2	; 0x02
     1be:	53 81       	ldd	r21, Z+3	; 0x03
     1c0:	d9 01       	movw	r26, r18
     1c2:	a6 5b       	subi	r26, 0xB6	; 182
     1c4:	bd 4f       	sbci	r27, 0xFD	; 253
     1c6:	4d 93       	st	X+, r20
     1c8:	5c 93       	st	X, r21
     1ca:	44 81       	ldd	r20, Z+4	; 0x04
     1cc:	55 81       	ldd	r21, Z+5	; 0x05
     1ce:	f9 01       	movw	r30, r18
     1d0:	e4 5f       	subi	r30, 0xF4	; 244
     1d2:	fc 4f       	sbci	r31, 0xFC	; 252
     1d4:	51 83       	std	Z+1, r21	; 0x01
     1d6:	40 83       	st	Z, r20
     1d8:	9f 5f       	subi	r25, 0xFF	; 255
     1da:	95 31       	cpi	r25, 0x15	; 21
     1dc:	19 f0       	breq	.+6      	; 0x1e4 <PlaceInGyroBuffor+0x44>
     1de:	90 93 19 02 	sts	0x0219, r25	; 0x800219 <gyro_head>
     1e2:	02 c0       	rjmp	.+4      	; 0x1e8 <PlaceInGyroBuffor+0x48>
     1e4:	10 92 19 02 	sts	0x0219, r1	; 0x800219 <gyro_head>
     1e8:	80 91 19 02 	lds	r24, 0x0219	; 0x800219 <gyro_head>
     1ec:	90 91 18 02 	lds	r25, 0x0218	; 0x800218 <gyro_tail>
     1f0:	89 13       	cpse	r24, r25
     1f2:	03 c0       	rjmp	.+6      	; 0x1fa <PlaceInGyroBuffor+0x5a>
     1f4:	8f 5f       	subi	r24, 0xFF	; 255
     1f6:	80 93 18 02 	sts	0x0218, r24	; 0x800218 <gyro_tail>
     1fa:	80 91 18 02 	lds	r24, 0x0218	; 0x800218 <gyro_tail>
     1fe:	85 31       	cpi	r24, 0x15	; 21
     200:	11 f4       	brne	.+4      	; 0x206 <PlaceInGyroBuffor+0x66>
     202:	10 92 18 02 	sts	0x0218, r1	; 0x800218 <gyro_tail>
     206:	08 95       	ret

00000208 <PlaceInAccBuffor>:
     208:	fc 01       	movw	r30, r24
     20a:	90 91 17 02 	lds	r25, 0x0217	; 0x800217 <acc_head>
     20e:	29 2f       	mov	r18, r25
     210:	30 e0       	ldi	r19, 0x00	; 0
     212:	40 81       	ld	r20, Z
     214:	51 81       	ldd	r21, Z+1	; 0x01
     216:	22 0f       	add	r18, r18
     218:	33 1f       	adc	r19, r19
     21a:	d9 01       	movw	r26, r18
     21c:	a2 56       	subi	r26, 0x62	; 98
     21e:	bd 4f       	sbci	r27, 0xFD	; 253
     220:	4d 93       	st	X+, r20
     222:	5c 93       	st	X, r21
     224:	42 81       	ldd	r20, Z+2	; 0x02
     226:	53 81       	ldd	r21, Z+3	; 0x03
     228:	d9 01       	movw	r26, r18
     22a:	a1 52       	subi	r26, 0x21	; 33
     22c:	bd 4f       	sbci	r27, 0xFD	; 253
     22e:	4d 93       	st	X+, r20
     230:	5c 93       	st	X, r21
     232:	44 81       	ldd	r20, Z+4	; 0x04
     234:	55 81       	ldd	r21, Z+5	; 0x05
     236:	f9 01       	movw	r30, r18
     238:	ec 58       	subi	r30, 0x8C	; 140
     23a:	fd 4f       	sbci	r31, 0xFD	; 253
     23c:	51 83       	std	Z+1, r21	; 0x01
     23e:	40 83       	st	Z, r20
     240:	9f 5f       	subi	r25, 0xFF	; 255
     242:	95 31       	cpi	r25, 0x15	; 21
     244:	19 f0       	breq	.+6      	; 0x24c <PlaceInAccBuffor+0x44>
     246:	90 93 17 02 	sts	0x0217, r25	; 0x800217 <acc_head>
     24a:	02 c0       	rjmp	.+4      	; 0x250 <PlaceInAccBuffor+0x48>
     24c:	10 92 17 02 	sts	0x0217, r1	; 0x800217 <acc_head>
     250:	80 91 17 02 	lds	r24, 0x0217	; 0x800217 <acc_head>
     254:	90 91 16 02 	lds	r25, 0x0216	; 0x800216 <__data_end>
     258:	89 13       	cpse	r24, r25
     25a:	03 c0       	rjmp	.+6      	; 0x262 <PlaceInAccBuffor+0x5a>
     25c:	8f 5f       	subi	r24, 0xFF	; 255
     25e:	80 93 16 02 	sts	0x0216, r24	; 0x800216 <__data_end>
     262:	80 91 16 02 	lds	r24, 0x0216	; 0x800216 <__data_end>
     266:	85 31       	cpi	r24, 0x15	; 21
     268:	11 f4       	brne	.+4      	; 0x26e <PlaceInAccBuffor+0x66>
     26a:	10 92 16 02 	sts	0x0216, r1	; 0x800216 <__data_end>
     26e:	08 95       	ret

00000270 <ReadGyroSample>:
     270:	dc 01       	movw	r26, r24
     272:	e0 91 18 02 	lds	r30, 0x0218	; 0x800218 <gyro_tail>
     276:	f0 e0       	ldi	r31, 0x00	; 0
     278:	ee 0f       	add	r30, r30
     27a:	ff 1f       	adc	r31, r31
     27c:	e2 5e       	subi	r30, 0xE2	; 226
     27e:	fd 4f       	sbci	r31, 0xFD	; 253
     280:	80 81       	ld	r24, Z
     282:	91 81       	ldd	r25, Z+1	; 0x01
     284:	11 96       	adiw	r26, 0x01	; 1
     286:	9c 93       	st	X, r25
     288:	8e 93       	st	-X, r24
     28a:	90 91 18 02 	lds	r25, 0x0218	; 0x800218 <gyro_tail>
     28e:	29 2f       	mov	r18, r25
     290:	30 e0       	ldi	r19, 0x00	; 0
     292:	22 0f       	add	r18, r18
     294:	33 1f       	adc	r19, r19
     296:	f9 01       	movw	r30, r18
     298:	e6 5b       	subi	r30, 0xB6	; 182
     29a:	fd 4f       	sbci	r31, 0xFD	; 253
     29c:	40 81       	ld	r20, Z
     29e:	51 81       	ldd	r21, Z+1	; 0x01
     2a0:	13 96       	adiw	r26, 0x03	; 3
     2a2:	5c 93       	st	X, r21
     2a4:	4e 93       	st	-X, r20
     2a6:	12 97       	sbiw	r26, 0x02	; 2
     2a8:	f9 01       	movw	r30, r18
     2aa:	e4 5f       	subi	r30, 0xF4	; 244
     2ac:	fc 4f       	sbci	r31, 0xFC	; 252
     2ae:	20 81       	ld	r18, Z
     2b0:	31 81       	ldd	r19, Z+1	; 0x01
     2b2:	15 96       	adiw	r26, 0x05	; 5
     2b4:	3c 93       	st	X, r19
     2b6:	2e 93       	st	-X, r18
     2b8:	14 97       	sbiw	r26, 0x04	; 4
     2ba:	9f 5f       	subi	r25, 0xFF	; 255
     2bc:	95 31       	cpi	r25, 0x15	; 21
     2be:	19 f0       	breq	.+6      	; 0x2c6 <ReadGyroSample+0x56>
     2c0:	90 93 18 02 	sts	0x0218, r25	; 0x800218 <gyro_tail>
     2c4:	08 95       	ret
     2c6:	10 92 18 02 	sts	0x0218, r1	; 0x800218 <gyro_tail>
     2ca:	08 95       	ret

000002cc <ReadAccSample>:
     2cc:	dc 01       	movw	r26, r24
     2ce:	e0 91 16 02 	lds	r30, 0x0216	; 0x800216 <__data_end>
     2d2:	f0 e0       	ldi	r31, 0x00	; 0
     2d4:	ee 0f       	add	r30, r30
     2d6:	ff 1f       	adc	r31, r31
     2d8:	e2 56       	subi	r30, 0x62	; 98
     2da:	fd 4f       	sbci	r31, 0xFD	; 253
     2dc:	80 81       	ld	r24, Z
     2de:	91 81       	ldd	r25, Z+1	; 0x01
     2e0:	11 96       	adiw	r26, 0x01	; 1
     2e2:	9c 93       	st	X, r25
     2e4:	8e 93       	st	-X, r24
     2e6:	90 91 16 02 	lds	r25, 0x0216	; 0x800216 <__data_end>
     2ea:	29 2f       	mov	r18, r25
     2ec:	30 e0       	ldi	r19, 0x00	; 0
     2ee:	22 0f       	add	r18, r18
     2f0:	33 1f       	adc	r19, r19
     2f2:	f9 01       	movw	r30, r18
     2f4:	e1 52       	subi	r30, 0x21	; 33
     2f6:	fd 4f       	sbci	r31, 0xFD	; 253
     2f8:	40 81       	ld	r20, Z
     2fa:	51 81       	ldd	r21, Z+1	; 0x01
     2fc:	13 96       	adiw	r26, 0x03	; 3
     2fe:	5c 93       	st	X, r21
     300:	4e 93       	st	-X, r20
     302:	12 97       	sbiw	r26, 0x02	; 2
     304:	f9 01       	movw	r30, r18
     306:	ec 58       	subi	r30, 0x8C	; 140
     308:	fd 4f       	sbci	r31, 0xFD	; 253
     30a:	20 81       	ld	r18, Z
     30c:	31 81       	ldd	r19, Z+1	; 0x01
     30e:	15 96       	adiw	r26, 0x05	; 5
     310:	3c 93       	st	X, r19
     312:	2e 93       	st	-X, r18
     314:	14 97       	sbiw	r26, 0x04	; 4
     316:	9f 5f       	subi	r25, 0xFF	; 255
     318:	95 31       	cpi	r25, 0x15	; 21
     31a:	19 f0       	breq	.+6      	; 0x322 <ReadAccSample+0x56>
     31c:	90 93 16 02 	sts	0x0216, r25	; 0x800216 <__data_end>
     320:	08 95       	ret
     322:	10 92 16 02 	sts	0x0216, r1	; 0x800216 <__data_end>
     326:	08 95       	ret

00000328 <ReadGyroSample_ViewOnly>:
     328:	fc 01       	movw	r30, r24
     32a:	20 91 19 02 	lds	r18, 0x0219	; 0x800219 <gyro_head>
     32e:	21 50       	subi	r18, 0x01	; 1
     330:	08 f4       	brcc	.+2      	; 0x334 <ReadGyroSample_ViewOnly+0xc>
     332:	24 e1       	ldi	r18, 0x14	; 20
     334:	30 e0       	ldi	r19, 0x00	; 0
     336:	22 0f       	add	r18, r18
     338:	33 1f       	adc	r19, r19
     33a:	d9 01       	movw	r26, r18
     33c:	a2 5e       	subi	r26, 0xE2	; 226
     33e:	bd 4f       	sbci	r27, 0xFD	; 253
     340:	8d 91       	ld	r24, X+
     342:	9c 91       	ld	r25, X
     344:	91 83       	std	Z+1, r25	; 0x01
     346:	80 83       	st	Z, r24
     348:	d9 01       	movw	r26, r18
     34a:	a6 5b       	subi	r26, 0xB6	; 182
     34c:	bd 4f       	sbci	r27, 0xFD	; 253
     34e:	8d 91       	ld	r24, X+
     350:	9c 91       	ld	r25, X
     352:	93 83       	std	Z+3, r25	; 0x03
     354:	82 83       	std	Z+2, r24	; 0x02
     356:	d9 01       	movw	r26, r18
     358:	a4 5f       	subi	r26, 0xF4	; 244
     35a:	bc 4f       	sbci	r27, 0xFC	; 252
     35c:	8d 91       	ld	r24, X+
     35e:	9c 91       	ld	r25, X
     360:	95 83       	std	Z+5, r25	; 0x05
     362:	84 83       	std	Z+4, r24	; 0x04
     364:	08 95       	ret

00000366 <ReadAccSample_ViewOnly>:
     366:	fc 01       	movw	r30, r24
     368:	20 91 17 02 	lds	r18, 0x0217	; 0x800217 <acc_head>
     36c:	21 50       	subi	r18, 0x01	; 1
     36e:	08 f4       	brcc	.+2      	; 0x372 <ReadAccSample_ViewOnly+0xc>
     370:	24 e1       	ldi	r18, 0x14	; 20
     372:	30 e0       	ldi	r19, 0x00	; 0
     374:	22 0f       	add	r18, r18
     376:	33 1f       	adc	r19, r19
     378:	d9 01       	movw	r26, r18
     37a:	a2 56       	subi	r26, 0x62	; 98
     37c:	bd 4f       	sbci	r27, 0xFD	; 253
     37e:	8d 91       	ld	r24, X+
     380:	9c 91       	ld	r25, X
     382:	91 83       	std	Z+1, r25	; 0x01
     384:	80 83       	st	Z, r24
     386:	d9 01       	movw	r26, r18
     388:	a1 52       	subi	r26, 0x21	; 33
     38a:	bd 4f       	sbci	r27, 0xFD	; 253
     38c:	8d 91       	ld	r24, X+
     38e:	9c 91       	ld	r25, X
     390:	93 83       	std	Z+3, r25	; 0x03
     392:	82 83       	std	Z+2, r24	; 0x02
     394:	d9 01       	movw	r26, r18
     396:	ac 58       	subi	r26, 0x8C	; 140
     398:	bd 4f       	sbci	r27, 0xFD	; 253
     39a:	8d 91       	ld	r24, X+
     39c:	9c 91       	ld	r25, X
     39e:	95 83       	std	Z+5, r25	; 0x05
     3a0:	84 83       	std	Z+4, r24	; 0x04
     3a2:	08 95       	ret

000003a4 <SamplesGyroBuf>:
     3a4:	80 91 19 02 	lds	r24, 0x0219	; 0x800219 <gyro_head>
     3a8:	90 91 18 02 	lds	r25, 0x0218	; 0x800218 <gyro_tail>
     3ac:	89 1b       	sub	r24, r25
     3ae:	85 31       	cpi	r24, 0x15	; 21
     3b0:	08 f0       	brcs	.+2      	; 0x3b4 <SamplesGyroBuf+0x10>
     3b2:	8b 5e       	subi	r24, 0xEB	; 235
     3b4:	08 95       	ret

000003b6 <SamplesAccBuf>:
     3b6:	80 91 17 02 	lds	r24, 0x0217	; 0x800217 <acc_head>
     3ba:	90 91 16 02 	lds	r25, 0x0216	; 0x800216 <__data_end>
     3be:	89 1b       	sub	r24, r25
     3c0:	85 31       	cpi	r24, 0x15	; 21
     3c2:	08 f0       	brcs	.+2      	; 0x3c6 <SamplesAccBuf+0x10>
     3c4:	8b 5e       	subi	r24, 0xEB	; 235
     3c6:	08 95       	ret

000003c8 <ReadGyroBuf>:
     3c8:	cf 92       	push	r12
     3ca:	df 92       	push	r13
     3cc:	ef 92       	push	r14
     3ce:	ff 92       	push	r15
     3d0:	0f 93       	push	r16
     3d2:	1f 93       	push	r17
     3d4:	cf 93       	push	r28
     3d6:	df 93       	push	r29
     3d8:	00 d0       	rcall	.+0      	; 0x3da <ReadGyroBuf+0x12>
     3da:	00 d0       	rcall	.+0      	; 0x3dc <ReadGyroBuf+0x14>
     3dc:	00 d0       	rcall	.+0      	; 0x3de <ReadGyroBuf+0x16>
     3de:	cd b7       	in	r28, 0x3d	; 61
     3e0:	de b7       	in	r29, 0x3e	; 62
     3e2:	66 23       	and	r22, r22
     3e4:	29 f1       	breq	.+74     	; 0x430 <__LOCK_REGION_LENGTH__+0x30>
     3e6:	6c 01       	movw	r12, r24
     3e8:	7c 01       	movw	r14, r24
     3ea:	8c 01       	movw	r16, r24
     3ec:	08 5d       	subi	r16, 0xD8	; 216
     3ee:	1f 4f       	sbci	r17, 0xFF	; 255
     3f0:	61 50       	subi	r22, 0x01	; 1
     3f2:	26 2f       	mov	r18, r22
     3f4:	30 e0       	ldi	r19, 0x00	; 0
     3f6:	2f 5f       	subi	r18, 0xFF	; 255
     3f8:	3f 4f       	sbci	r19, 0xFF	; 255
     3fa:	22 0f       	add	r18, r18
     3fc:	33 1f       	adc	r19, r19
     3fe:	c2 0e       	add	r12, r18
     400:	d3 1e       	adc	r13, r19
     402:	ce 01       	movw	r24, r28
     404:	01 96       	adiw	r24, 0x01	; 1
     406:	0e 94 38 01 	call	0x270	; 0x270 <ReadGyroSample>
     40a:	89 81       	ldd	r24, Y+1	; 0x01
     40c:	9a 81       	ldd	r25, Y+2	; 0x02
     40e:	f7 01       	movw	r30, r14
     410:	81 93       	st	Z+, r24
     412:	91 93       	st	Z+, r25
     414:	7f 01       	movw	r14, r30
     416:	2b 81       	ldd	r18, Y+3	; 0x03
     418:	3c 81       	ldd	r19, Y+4	; 0x04
     41a:	f8 01       	movw	r30, r16
     41c:	21 93       	st	Z+, r18
     41e:	31 93       	st	Z+, r19
     420:	8f 01       	movw	r16, r30
     422:	2d 81       	ldd	r18, Y+5	; 0x05
     424:	3e 81       	ldd	r19, Y+6	; 0x06
     426:	37 a3       	std	Z+39, r19	; 0x27
     428:	26 a3       	std	Z+38, r18	; 0x26
     42a:	ec 14       	cp	r14, r12
     42c:	fd 04       	cpc	r15, r13
     42e:	49 f7       	brne	.-46     	; 0x402 <__LOCK_REGION_LENGTH__+0x2>
     430:	26 96       	adiw	r28, 0x06	; 6
     432:	0f b6       	in	r0, 0x3f	; 63
     434:	f8 94       	cli
     436:	de bf       	out	0x3e, r29	; 62
     438:	0f be       	out	0x3f, r0	; 63
     43a:	cd bf       	out	0x3d, r28	; 61
     43c:	df 91       	pop	r29
     43e:	cf 91       	pop	r28
     440:	1f 91       	pop	r17
     442:	0f 91       	pop	r16
     444:	ff 90       	pop	r15
     446:	ef 90       	pop	r14
     448:	df 90       	pop	r13
     44a:	cf 90       	pop	r12
     44c:	08 95       	ret

0000044e <ReadAccBuf>:
     44e:	cf 92       	push	r12
     450:	df 92       	push	r13
     452:	ef 92       	push	r14
     454:	ff 92       	push	r15
     456:	0f 93       	push	r16
     458:	1f 93       	push	r17
     45a:	cf 93       	push	r28
     45c:	df 93       	push	r29
     45e:	00 d0       	rcall	.+0      	; 0x460 <ReadAccBuf+0x12>
     460:	00 d0       	rcall	.+0      	; 0x462 <ReadAccBuf+0x14>
     462:	00 d0       	rcall	.+0      	; 0x464 <ReadAccBuf+0x16>
     464:	cd b7       	in	r28, 0x3d	; 61
     466:	de b7       	in	r29, 0x3e	; 62
     468:	66 23       	and	r22, r22
     46a:	29 f1       	breq	.+74     	; 0x4b6 <ReadAccBuf+0x68>
     46c:	6c 01       	movw	r12, r24
     46e:	7c 01       	movw	r14, r24
     470:	8c 01       	movw	r16, r24
     472:	08 5d       	subi	r16, 0xD8	; 216
     474:	1f 4f       	sbci	r17, 0xFF	; 255
     476:	61 50       	subi	r22, 0x01	; 1
     478:	26 2f       	mov	r18, r22
     47a:	30 e0       	ldi	r19, 0x00	; 0
     47c:	2f 5f       	subi	r18, 0xFF	; 255
     47e:	3f 4f       	sbci	r19, 0xFF	; 255
     480:	22 0f       	add	r18, r18
     482:	33 1f       	adc	r19, r19
     484:	c2 0e       	add	r12, r18
     486:	d3 1e       	adc	r13, r19
     488:	ce 01       	movw	r24, r28
     48a:	01 96       	adiw	r24, 0x01	; 1
     48c:	0e 94 66 01 	call	0x2cc	; 0x2cc <ReadAccSample>
     490:	89 81       	ldd	r24, Y+1	; 0x01
     492:	9a 81       	ldd	r25, Y+2	; 0x02
     494:	f7 01       	movw	r30, r14
     496:	81 93       	st	Z+, r24
     498:	91 93       	st	Z+, r25
     49a:	7f 01       	movw	r14, r30
     49c:	2b 81       	ldd	r18, Y+3	; 0x03
     49e:	3c 81       	ldd	r19, Y+4	; 0x04
     4a0:	f8 01       	movw	r30, r16
     4a2:	21 93       	st	Z+, r18
     4a4:	31 93       	st	Z+, r19
     4a6:	8f 01       	movw	r16, r30
     4a8:	2d 81       	ldd	r18, Y+5	; 0x05
     4aa:	3e 81       	ldd	r19, Y+6	; 0x06
     4ac:	37 a3       	std	Z+39, r19	; 0x27
     4ae:	26 a3       	std	Z+38, r18	; 0x26
     4b0:	ec 14       	cp	r14, r12
     4b2:	fd 04       	cpc	r15, r13
     4b4:	49 f7       	brne	.-46     	; 0x488 <ReadAccBuf+0x3a>
     4b6:	26 96       	adiw	r28, 0x06	; 6
     4b8:	0f b6       	in	r0, 0x3f	; 63
     4ba:	f8 94       	cli
     4bc:	de bf       	out	0x3e, r29	; 62
     4be:	0f be       	out	0x3f, r0	; 63
     4c0:	cd bf       	out	0x3d, r28	; 61
     4c2:	df 91       	pop	r29
     4c4:	cf 91       	pop	r28
     4c6:	1f 91       	pop	r17
     4c8:	0f 91       	pop	r16
     4ca:	ff 90       	pop	r15
     4cc:	ef 90       	pop	r14
     4ce:	df 90       	pop	r13
     4d0:	cf 90       	pop	r12
     4d2:	08 95       	ret

000004d4 <AveragingLinearMPU6050>:
     4d4:	4f 92       	push	r4
     4d6:	5f 92       	push	r5
     4d8:	6f 92       	push	r6
     4da:	7f 92       	push	r7
     4dc:	8f 92       	push	r8
     4de:	9f 92       	push	r9
     4e0:	af 92       	push	r10
     4e2:	bf 92       	push	r11
     4e4:	cf 92       	push	r12
     4e6:	df 92       	push	r13
     4e8:	ef 92       	push	r14
     4ea:	ff 92       	push	r15
     4ec:	0f 93       	push	r16
     4ee:	1f 93       	push	r17
     4f0:	cf 93       	push	r28
     4f2:	df 93       	push	r29
     4f4:	ea 01       	movw	r28, r20
     4f6:	66 23       	and	r22, r22
     4f8:	b9 f1       	breq	.+110    	; 0x568 <AveragingLinearMPU6050+0x94>
     4fa:	dc 01       	movw	r26, r24
     4fc:	fc 01       	movw	r30, r24
     4fe:	b8 96       	adiw	r30, 0x28	; 40
     500:	2f ef       	ldi	r18, 0xFF	; 255
     502:	26 0f       	add	r18, r22
     504:	30 e0       	ldi	r19, 0x00	; 0
     506:	2f 5f       	subi	r18, 0xFF	; 255
     508:	3f 4f       	sbci	r19, 0xFF	; 255
     50a:	22 0f       	add	r18, r18
     50c:	33 1f       	adc	r19, r19
     50e:	82 0f       	add	r24, r18
     510:	93 1f       	adc	r25, r19
     512:	00 e0       	ldi	r16, 0x00	; 0
     514:	10 e0       	ldi	r17, 0x00	; 0
     516:	98 01       	movw	r18, r16
     518:	81 2c       	mov	r8, r1
     51a:	91 2c       	mov	r9, r1
     51c:	54 01       	movw	r10, r8
     51e:	c1 2c       	mov	r12, r1
     520:	d1 2c       	mov	r13, r1
     522:	76 01       	movw	r14, r12
     524:	4d 91       	ld	r20, X+
     526:	5d 91       	ld	r21, X+
     528:	2a 01       	movw	r4, r20
     52a:	55 0f       	add	r21, r21
     52c:	66 08       	sbc	r6, r6
     52e:	77 08       	sbc	r7, r7
     530:	04 0d       	add	r16, r4
     532:	15 1d       	adc	r17, r5
     534:	26 1d       	adc	r18, r6
     536:	37 1d       	adc	r19, r7
     538:	41 91       	ld	r20, Z+
     53a:	51 91       	ld	r21, Z+
     53c:	2a 01       	movw	r4, r20
     53e:	55 0f       	add	r21, r21
     540:	66 08       	sbc	r6, r6
     542:	77 08       	sbc	r7, r7
     544:	84 0c       	add	r8, r4
     546:	95 1c       	adc	r9, r5
     548:	a6 1c       	adc	r10, r6
     54a:	b7 1c       	adc	r11, r7
     54c:	46 a1       	ldd	r20, Z+38	; 0x26
     54e:	57 a1       	ldd	r21, Z+39	; 0x27
     550:	2a 01       	movw	r4, r20
     552:	55 0f       	add	r21, r21
     554:	66 08       	sbc	r6, r6
     556:	77 08       	sbc	r7, r7
     558:	c4 0c       	add	r12, r4
     55a:	d5 1c       	adc	r13, r5
     55c:	e6 1c       	adc	r14, r6
     55e:	f7 1c       	adc	r15, r7
     560:	a8 17       	cp	r26, r24
     562:	b9 07       	cpc	r27, r25
     564:	f9 f6       	brne	.-66     	; 0x524 <AveragingLinearMPU6050+0x50>
     566:	09 c0       	rjmp	.+18     	; 0x57a <AveragingLinearMPU6050+0xa6>
     568:	00 e0       	ldi	r16, 0x00	; 0
     56a:	10 e0       	ldi	r17, 0x00	; 0
     56c:	98 01       	movw	r18, r16
     56e:	81 2c       	mov	r8, r1
     570:	91 2c       	mov	r9, r1
     572:	54 01       	movw	r10, r8
     574:	c1 2c       	mov	r12, r1
     576:	d1 2c       	mov	r13, r1
     578:	76 01       	movw	r14, r12
     57a:	46 2e       	mov	r4, r22
     57c:	51 2c       	mov	r5, r1
     57e:	61 2c       	mov	r6, r1
     580:	71 2c       	mov	r7, r1
     582:	c9 01       	movw	r24, r18
     584:	b8 01       	movw	r22, r16
     586:	a3 01       	movw	r20, r6
     588:	92 01       	movw	r18, r4
     58a:	0e 94 81 16 	call	0x2d02	; 0x2d02 <__divmodsi4>
     58e:	39 83       	std	Y+1, r19	; 0x01
     590:	28 83       	st	Y, r18
     592:	c5 01       	movw	r24, r10
     594:	b4 01       	movw	r22, r8
     596:	a3 01       	movw	r20, r6
     598:	92 01       	movw	r18, r4
     59a:	0e 94 81 16 	call	0x2d02	; 0x2d02 <__divmodsi4>
     59e:	3b 83       	std	Y+3, r19	; 0x03
     5a0:	2a 83       	std	Y+2, r18	; 0x02
     5a2:	c7 01       	movw	r24, r14
     5a4:	b6 01       	movw	r22, r12
     5a6:	a3 01       	movw	r20, r6
     5a8:	92 01       	movw	r18, r4
     5aa:	0e 94 81 16 	call	0x2d02	; 0x2d02 <__divmodsi4>
     5ae:	3d 83       	std	Y+5, r19	; 0x05
     5b0:	2c 83       	std	Y+4, r18	; 0x04
     5b2:	df 91       	pop	r29
     5b4:	cf 91       	pop	r28
     5b6:	1f 91       	pop	r17
     5b8:	0f 91       	pop	r16
     5ba:	ff 90       	pop	r15
     5bc:	ef 90       	pop	r14
     5be:	df 90       	pop	r13
     5c0:	cf 90       	pop	r12
     5c2:	bf 90       	pop	r11
     5c4:	af 90       	pop	r10
     5c6:	9f 90       	pop	r9
     5c8:	8f 90       	pop	r8
     5ca:	7f 90       	pop	r7
     5cc:	6f 90       	pop	r6
     5ce:	5f 90       	pop	r5
     5d0:	4f 90       	pop	r4
     5d2:	08 95       	ret

000005d4 <ReadGyroBufAveraged>:
     5d4:	ef 92       	push	r14
     5d6:	ff 92       	push	r15
     5d8:	1f 93       	push	r17
     5da:	cf 93       	push	r28
     5dc:	df 93       	push	r29
     5de:	cd b7       	in	r28, 0x3d	; 61
     5e0:	de b7       	in	r29, 0x3e	; 62
     5e2:	c8 57       	subi	r28, 0x78	; 120
     5e4:	d1 09       	sbc	r29, r1
     5e6:	0f b6       	in	r0, 0x3f	; 63
     5e8:	f8 94       	cli
     5ea:	de bf       	out	0x3e, r29	; 62
     5ec:	0f be       	out	0x3f, r0	; 63
     5ee:	cd bf       	out	0x3d, r28	; 61
     5f0:	7c 01       	movw	r14, r24
     5f2:	0e 94 d2 01 	call	0x3a4	; 0x3a4 <SamplesGyroBuf>
     5f6:	18 2f       	mov	r17, r24
     5f8:	68 2f       	mov	r22, r24
     5fa:	ce 01       	movw	r24, r28
     5fc:	01 96       	adiw	r24, 0x01	; 1
     5fe:	0e 94 e4 01 	call	0x3c8	; 0x3c8 <ReadGyroBuf>
     602:	a7 01       	movw	r20, r14
     604:	61 2f       	mov	r22, r17
     606:	ce 01       	movw	r24, r28
     608:	01 96       	adiw	r24, 0x01	; 1
     60a:	0e 94 6a 02 	call	0x4d4	; 0x4d4 <AveragingLinearMPU6050>
     60e:	c8 58       	subi	r28, 0x88	; 136
     610:	df 4f       	sbci	r29, 0xFF	; 255
     612:	0f b6       	in	r0, 0x3f	; 63
     614:	f8 94       	cli
     616:	de bf       	out	0x3e, r29	; 62
     618:	0f be       	out	0x3f, r0	; 63
     61a:	cd bf       	out	0x3d, r28	; 61
     61c:	df 91       	pop	r29
     61e:	cf 91       	pop	r28
     620:	1f 91       	pop	r17
     622:	ff 90       	pop	r15
     624:	ef 90       	pop	r14
     626:	08 95       	ret

00000628 <AveragingWeightingMPU6050>:
     628:	2f 92       	push	r2
     62a:	3f 92       	push	r3
     62c:	4f 92       	push	r4
     62e:	5f 92       	push	r5
     630:	6f 92       	push	r6
     632:	7f 92       	push	r7
     634:	8f 92       	push	r8
     636:	9f 92       	push	r9
     638:	af 92       	push	r10
     63a:	bf 92       	push	r11
     63c:	cf 92       	push	r12
     63e:	df 92       	push	r13
     640:	ef 92       	push	r14
     642:	ff 92       	push	r15
     644:	0f 93       	push	r16
     646:	1f 93       	push	r17
     648:	cf 93       	push	r28
     64a:	df 93       	push	r29
     64c:	cd b7       	in	r28, 0x3d	; 61
     64e:	de b7       	in	r29, 0x3e	; 62
     650:	27 97       	sbiw	r28, 0x07	; 7
     652:	0f b6       	in	r0, 0x3f	; 63
     654:	f8 94       	cli
     656:	de bf       	out	0x3e, r29	; 62
     658:	0f be       	out	0x3f, r0	; 63
     65a:	cd bf       	out	0x3d, r28	; 61
     65c:	5e 83       	std	Y+6, r21	; 0x06
     65e:	4d 83       	std	Y+5, r20	; 0x05
     660:	66 23       	and	r22, r22
     662:	09 f4       	brne	.+2      	; 0x666 <AveragingWeightingMPU6050+0x3e>
     664:	66 c0       	rjmp	.+204    	; 0x732 <AveragingWeightingMPU6050+0x10a>
     666:	8c 01       	movw	r16, r24
     668:	fc 01       	movw	r30, r24
     66a:	b8 96       	adiw	r30, 0x28	; 40
     66c:	61 50       	subi	r22, 0x01	; 1
     66e:	26 2e       	mov	r2, r22
     670:	31 2c       	mov	r3, r1
     672:	25 e1       	ldi	r18, 0x15	; 21
     674:	22 0e       	add	r2, r18
     676:	31 1c       	adc	r3, r1
     678:	22 0c       	add	r2, r2
     67a:	33 1c       	adc	r3, r3
     67c:	28 0e       	add	r2, r24
     67e:	39 1e       	adc	r3, r25
     680:	c1 2c       	mov	r12, r1
     682:	d1 2c       	mov	r13, r1
     684:	76 01       	movw	r14, r12
     686:	c3 94       	inc	r12
     688:	19 82       	std	Y+1, r1	; 0x01
     68a:	1a 82       	std	Y+2, r1	; 0x02
     68c:	1b 82       	std	Y+3, r1	; 0x03
     68e:	1c 82       	std	Y+4, r1	; 0x04
     690:	41 2c       	mov	r4, r1
     692:	51 2c       	mov	r5, r1
     694:	32 01       	movw	r6, r4
     696:	81 2c       	mov	r8, r1
     698:	91 2c       	mov	r9, r1
     69a:	54 01       	movw	r10, r8
     69c:	1f 82       	std	Y+7, r1	; 0x07
     69e:	4f 81       	ldd	r20, Y+7	; 0x07
     6a0:	cc 9c       	mul	r12, r12
     6a2:	40 0d       	add	r20, r0
     6a4:	11 24       	eor	r1, r1
     6a6:	4f 83       	std	Y+7, r20	; 0x07
     6a8:	d8 01       	movw	r26, r16
     6aa:	8d 91       	ld	r24, X+
     6ac:	9d 91       	ld	r25, X+
     6ae:	8d 01       	movw	r16, r26
     6b0:	dc 01       	movw	r26, r24
     6b2:	a7 01       	movw	r20, r14
     6b4:	96 01       	movw	r18, r12
     6b6:	0e 94 cf 16 	call	0x2d9e	; 0x2d9e <__mulshisi3>
     6ba:	9b 01       	movw	r18, r22
     6bc:	ac 01       	movw	r20, r24
     6be:	c7 01       	movw	r24, r14
     6c0:	b6 01       	movw	r22, r12
     6c2:	0e 94 71 16 	call	0x2ce2	; 0x2ce2 <__mulsi3>
     6c6:	29 81       	ldd	r18, Y+1	; 0x01
     6c8:	3a 81       	ldd	r19, Y+2	; 0x02
     6ca:	4b 81       	ldd	r20, Y+3	; 0x03
     6cc:	5c 81       	ldd	r21, Y+4	; 0x04
     6ce:	26 0f       	add	r18, r22
     6d0:	37 1f       	adc	r19, r23
     6d2:	48 1f       	adc	r20, r24
     6d4:	59 1f       	adc	r21, r25
     6d6:	29 83       	std	Y+1, r18	; 0x01
     6d8:	3a 83       	std	Y+2, r19	; 0x02
     6da:	4b 83       	std	Y+3, r20	; 0x03
     6dc:	5c 83       	std	Y+4, r21	; 0x04
     6de:	a1 91       	ld	r26, Z+
     6e0:	b1 91       	ld	r27, Z+
     6e2:	a7 01       	movw	r20, r14
     6e4:	96 01       	movw	r18, r12
     6e6:	0e 94 cf 16 	call	0x2d9e	; 0x2d9e <__mulshisi3>
     6ea:	9b 01       	movw	r18, r22
     6ec:	ac 01       	movw	r20, r24
     6ee:	c7 01       	movw	r24, r14
     6f0:	b6 01       	movw	r22, r12
     6f2:	0e 94 71 16 	call	0x2ce2	; 0x2ce2 <__mulsi3>
     6f6:	46 0e       	add	r4, r22
     6f8:	57 1e       	adc	r5, r23
     6fa:	68 1e       	adc	r6, r24
     6fc:	79 1e       	adc	r7, r25
     6fe:	a6 a1       	ldd	r26, Z+38	; 0x26
     700:	b7 a1       	ldd	r27, Z+39	; 0x27
     702:	a7 01       	movw	r20, r14
     704:	96 01       	movw	r18, r12
     706:	0e 94 cf 16 	call	0x2d9e	; 0x2d9e <__mulshisi3>
     70a:	9b 01       	movw	r18, r22
     70c:	ac 01       	movw	r20, r24
     70e:	c7 01       	movw	r24, r14
     710:	b6 01       	movw	r22, r12
     712:	0e 94 71 16 	call	0x2ce2	; 0x2ce2 <__mulsi3>
     716:	86 0e       	add	r8, r22
     718:	97 1e       	adc	r9, r23
     71a:	a8 1e       	adc	r10, r24
     71c:	b9 1e       	adc	r11, r25
     71e:	3f ef       	ldi	r19, 0xFF	; 255
     720:	c3 1a       	sub	r12, r19
     722:	d3 0a       	sbc	r13, r19
     724:	e3 0a       	sbc	r14, r19
     726:	f3 0a       	sbc	r15, r19
     728:	e2 15       	cp	r30, r2
     72a:	f3 05       	cpc	r31, r3
     72c:	09 f0       	breq	.+2      	; 0x730 <AveragingWeightingMPU6050+0x108>
     72e:	b7 cf       	rjmp	.-146    	; 0x69e <AveragingWeightingMPU6050+0x76>
     730:	0b c0       	rjmp	.+22     	; 0x748 <AveragingWeightingMPU6050+0x120>
     732:	19 82       	std	Y+1, r1	; 0x01
     734:	1a 82       	std	Y+2, r1	; 0x02
     736:	1b 82       	std	Y+3, r1	; 0x03
     738:	1c 82       	std	Y+4, r1	; 0x04
     73a:	41 2c       	mov	r4, r1
     73c:	51 2c       	mov	r5, r1
     73e:	32 01       	movw	r6, r4
     740:	81 2c       	mov	r8, r1
     742:	91 2c       	mov	r9, r1
     744:	54 01       	movw	r10, r8
     746:	1f 82       	std	Y+7, r1	; 0x07
     748:	ff 81       	ldd	r31, Y+7	; 0x07
     74a:	cf 2e       	mov	r12, r31
     74c:	d1 2c       	mov	r13, r1
     74e:	e1 2c       	mov	r14, r1
     750:	f1 2c       	mov	r15, r1
     752:	69 81       	ldd	r22, Y+1	; 0x01
     754:	7a 81       	ldd	r23, Y+2	; 0x02
     756:	8b 81       	ldd	r24, Y+3	; 0x03
     758:	9c 81       	ldd	r25, Y+4	; 0x04
     75a:	a7 01       	movw	r20, r14
     75c:	96 01       	movw	r18, r12
     75e:	0e 94 81 16 	call	0x2d02	; 0x2d02 <__divmodsi4>
     762:	ad 81       	ldd	r26, Y+5	; 0x05
     764:	be 81       	ldd	r27, Y+6	; 0x06
     766:	2d 93       	st	X+, r18
     768:	3c 93       	st	X, r19
     76a:	c3 01       	movw	r24, r6
     76c:	b2 01       	movw	r22, r4
     76e:	a7 01       	movw	r20, r14
     770:	96 01       	movw	r18, r12
     772:	0e 94 81 16 	call	0x2d02	; 0x2d02 <__divmodsi4>
     776:	ed 81       	ldd	r30, Y+5	; 0x05
     778:	fe 81       	ldd	r31, Y+6	; 0x06
     77a:	33 83       	std	Z+3, r19	; 0x03
     77c:	22 83       	std	Z+2, r18	; 0x02
     77e:	c5 01       	movw	r24, r10
     780:	b4 01       	movw	r22, r8
     782:	a7 01       	movw	r20, r14
     784:	96 01       	movw	r18, r12
     786:	0e 94 81 16 	call	0x2d02	; 0x2d02 <__divmodsi4>
     78a:	ad 81       	ldd	r26, Y+5	; 0x05
     78c:	be 81       	ldd	r27, Y+6	; 0x06
     78e:	15 96       	adiw	r26, 0x05	; 5
     790:	3c 93       	st	X, r19
     792:	2e 93       	st	-X, r18
     794:	14 97       	sbiw	r26, 0x04	; 4
     796:	27 96       	adiw	r28, 0x07	; 7
     798:	0f b6       	in	r0, 0x3f	; 63
     79a:	f8 94       	cli
     79c:	de bf       	out	0x3e, r29	; 62
     79e:	0f be       	out	0x3f, r0	; 63
     7a0:	cd bf       	out	0x3d, r28	; 61
     7a2:	df 91       	pop	r29
     7a4:	cf 91       	pop	r28
     7a6:	1f 91       	pop	r17
     7a8:	0f 91       	pop	r16
     7aa:	ff 90       	pop	r15
     7ac:	ef 90       	pop	r14
     7ae:	df 90       	pop	r13
     7b0:	cf 90       	pop	r12
     7b2:	bf 90       	pop	r11
     7b4:	af 90       	pop	r10
     7b6:	9f 90       	pop	r9
     7b8:	8f 90       	pop	r8
     7ba:	7f 90       	pop	r7
     7bc:	6f 90       	pop	r6
     7be:	5f 90       	pop	r5
     7c0:	4f 90       	pop	r4
     7c2:	3f 90       	pop	r3
     7c4:	2f 90       	pop	r2
     7c6:	08 95       	ret

000007c8 <ReadAccBufAveraged>:
     7c8:	ef 92       	push	r14
     7ca:	ff 92       	push	r15
     7cc:	1f 93       	push	r17
     7ce:	cf 93       	push	r28
     7d0:	df 93       	push	r29
     7d2:	cd b7       	in	r28, 0x3d	; 61
     7d4:	de b7       	in	r29, 0x3e	; 62
     7d6:	c8 57       	subi	r28, 0x78	; 120
     7d8:	d1 09       	sbc	r29, r1
     7da:	0f b6       	in	r0, 0x3f	; 63
     7dc:	f8 94       	cli
     7de:	de bf       	out	0x3e, r29	; 62
     7e0:	0f be       	out	0x3f, r0	; 63
     7e2:	cd bf       	out	0x3d, r28	; 61
     7e4:	7c 01       	movw	r14, r24
     7e6:	0e 94 db 01 	call	0x3b6	; 0x3b6 <SamplesAccBuf>
     7ea:	18 2f       	mov	r17, r24
     7ec:	68 2f       	mov	r22, r24
     7ee:	ce 01       	movw	r24, r28
     7f0:	01 96       	adiw	r24, 0x01	; 1
     7f2:	0e 94 27 02 	call	0x44e	; 0x44e <ReadAccBuf>
     7f6:	a7 01       	movw	r20, r14
     7f8:	61 2f       	mov	r22, r17
     7fa:	ce 01       	movw	r24, r28
     7fc:	01 96       	adiw	r24, 0x01	; 1
     7fe:	0e 94 14 03 	call	0x628	; 0x628 <AveragingWeightingMPU6050>
     802:	c8 58       	subi	r28, 0x88	; 136
     804:	df 4f       	sbci	r29, 0xFF	; 255
     806:	0f b6       	in	r0, 0x3f	; 63
     808:	f8 94       	cli
     80a:	de bf       	out	0x3e, r29	; 62
     80c:	0f be       	out	0x3f, r0	; 63
     80e:	cd bf       	out	0x3d, r28	; 61
     810:	df 91       	pop	r29
     812:	cf 91       	pop	r28
     814:	1f 91       	pop	r17
     816:	ff 90       	pop	r15
     818:	ef 90       	pop	r14
     81a:	08 95       	ret

0000081c <EnableDebug>:
}

/*Serial debug is enabled for 10 sec*/
void EnableDebug(void)
{
	dbg_counter = 10000;
     81c:	80 e1       	ldi	r24, 0x10	; 16
     81e:	97 e2       	ldi	r25, 0x27	; 39
     820:	90 93 19 01 	sts	0x0119, r25	; 0x800119 <dbg_counter+0x1>
     824:	80 93 18 01 	sts	0x0118, r24	; 0x800118 <dbg_counter>
	flag1.serial_dbg = 1;
     828:	80 91 ce 02 	lds	r24, 0x02CE	; 0x8002ce <flag1>
     82c:	81 60       	ori	r24, 0x01	; 1
     82e:	80 93 ce 02 	sts	0x02CE, r24	; 0x8002ce <flag1>
     832:	08 95       	ret

00000834 <I2C_start>:
	I2C_start();
	I2C_write(SLA + 1);
	byte = I2C_read(NACK);
	I2C_stop();
	return byte;
}
     834:	84 ea       	ldi	r24, 0xA4	; 164
     836:	80 93 bc 00 	sts	0x00BC, r24	; 0x8000bc <__TEXT_REGION_LENGTH__+0x7e00bc>
     83a:	ec eb       	ldi	r30, 0xBC	; 188
     83c:	f0 e0       	ldi	r31, 0x00	; 0
     83e:	80 81       	ld	r24, Z
     840:	88 23       	and	r24, r24
     842:	ec f7       	brge	.-6      	; 0x83e <I2C_start+0xa>
     844:	08 95       	ret

00000846 <I2C_stop>:
     846:	84 e9       	ldi	r24, 0x94	; 148
     848:	80 93 bc 00 	sts	0x00BC, r24	; 0x8000bc <__TEXT_REGION_LENGTH__+0x7e00bc>
     84c:	ec eb       	ldi	r30, 0xBC	; 188
     84e:	f0 e0       	ldi	r31, 0x00	; 0
     850:	80 81       	ld	r24, Z
     852:	84 fd       	sbrc	r24, 4
     854:	fd cf       	rjmp	.-6      	; 0x850 <I2C_stop+0xa>
     856:	08 95       	ret

00000858 <I2C_write>:
     858:	80 93 bb 00 	sts	0x00BB, r24	; 0x8000bb <__TEXT_REGION_LENGTH__+0x7e00bb>
     85c:	84 e8       	ldi	r24, 0x84	; 132
     85e:	80 93 bc 00 	sts	0x00BC, r24	; 0x8000bc <__TEXT_REGION_LENGTH__+0x7e00bc>
     862:	ec eb       	ldi	r30, 0xBC	; 188
     864:	f0 e0       	ldi	r31, 0x00	; 0
     866:	80 81       	ld	r24, Z
     868:	88 23       	and	r24, r24
     86a:	ec f7       	brge	.-6      	; 0x866 <I2C_write+0xe>
     86c:	08 95       	ret

0000086e <I2C_read>:
     86e:	20 e4       	ldi	r18, 0x40	; 64
     870:	82 9f       	mul	r24, r18
     872:	c0 01       	movw	r24, r0
     874:	11 24       	eor	r1, r1
     876:	84 68       	ori	r24, 0x84	; 132
     878:	80 93 bc 00 	sts	0x00BC, r24	; 0x8000bc <__TEXT_REGION_LENGTH__+0x7e00bc>
     87c:	ec eb       	ldi	r30, 0xBC	; 188
     87e:	f0 e0       	ldi	r31, 0x00	; 0
     880:	80 81       	ld	r24, Z
     882:	88 23       	and	r24, r24
     884:	ec f7       	brge	.-6      	; 0x880 <I2C_read+0x12>
     886:	80 91 bb 00 	lds	r24, 0x00BB	; 0x8000bb <__TEXT_REGION_LENGTH__+0x7e00bb>
     88a:	08 95       	ret

0000088c <I2C_write_byte>:
     88c:	1f 93       	push	r17
     88e:	cf 93       	push	r28
     890:	df 93       	push	r29
     892:	18 2f       	mov	r17, r24
     894:	d6 2f       	mov	r29, r22
     896:	c4 2f       	mov	r28, r20
     898:	0e 94 1a 04 	call	0x834	; 0x834 <I2C_start>
     89c:	81 2f       	mov	r24, r17
     89e:	88 0f       	add	r24, r24
     8a0:	0e 94 2c 04 	call	0x858	; 0x858 <I2C_write>
     8a4:	8d 2f       	mov	r24, r29
     8a6:	0e 94 2c 04 	call	0x858	; 0x858 <I2C_write>
     8aa:	8c 2f       	mov	r24, r28
     8ac:	0e 94 2c 04 	call	0x858	; 0x858 <I2C_write>
     8b0:	0e 94 23 04 	call	0x846	; 0x846 <I2C_stop>
     8b4:	df 91       	pop	r29
     8b6:	cf 91       	pop	r28
     8b8:	1f 91       	pop	r17
     8ba:	08 95       	ret

000008bc <I2C_read_buf>:


void I2C_read_buf(uint8_t SLA, uint8_t adr, uint8_t len, uint8_t *buf) {
     8bc:	ef 92       	push	r14
     8be:	ff 92       	push	r15
     8c0:	0f 93       	push	r16
     8c2:	1f 93       	push	r17
     8c4:	cf 93       	push	r28
     8c6:	df 93       	push	r29
     8c8:	16 2f       	mov	r17, r22
     8ca:	d4 2f       	mov	r29, r20
     8cc:	e2 2e       	mov	r14, r18
     8ce:	f3 2e       	mov	r15, r19
	SLA = (SLA<<1);
     8d0:	c8 2f       	mov	r28, r24
     8d2:	cc 0f       	add	r28, r28
	I2C_start();
     8d4:	0e 94 1a 04 	call	0x834	; 0x834 <I2C_start>
	I2C_write(SLA);
     8d8:	8c 2f       	mov	r24, r28
     8da:	0e 94 2c 04 	call	0x858	; 0x858 <I2C_write>
	I2C_write(adr);
     8de:	81 2f       	mov	r24, r17
     8e0:	0e 94 2c 04 	call	0x858	; 0x858 <I2C_write>
	I2C_start();
     8e4:	0e 94 1a 04 	call	0x834	; 0x834 <I2C_start>
	I2C_write(SLA + 1);
     8e8:	81 e0       	ldi	r24, 0x01	; 1
     8ea:	8c 0f       	add	r24, r28
     8ec:	0e 94 2c 04 	call	0x858	; 0x858 <I2C_write>
	while (len--) *buf++ = I2C_read( len ? ACK : NACK );
     8f0:	cf ef       	ldi	r28, 0xFF	; 255
     8f2:	cd 0f       	add	r28, r29
     8f4:	dd 23       	and	r29, r29
     8f6:	89 f0       	breq	.+34     	; 0x91a <__stack+0x1b>
     8f8:	0e 2d       	mov	r16, r14
     8fa:	1f 2d       	mov	r17, r15
     8fc:	d1 e0       	ldi	r29, 0x01	; 1
     8fe:	f1 2c       	mov	r15, r1
     900:	8d 2f       	mov	r24, r29
     902:	c1 11       	cpse	r28, r1
     904:	01 c0       	rjmp	.+2      	; 0x908 <__stack+0x9>
     906:	8f 2d       	mov	r24, r15
     908:	0e 94 37 04 	call	0x86e	; 0x86e <I2C_read>
     90c:	f8 01       	movw	r30, r16
     90e:	81 93       	st	Z+, r24
     910:	8f 01       	movw	r16, r30
     912:	8c 2f       	mov	r24, r28
     914:	c1 50       	subi	r28, 0x01	; 1
     916:	81 11       	cpse	r24, r1
     918:	f3 cf       	rjmp	.-26     	; 0x900 <__stack+0x1>
	I2C_stop();
     91a:	0e 94 23 04 	call	0x846	; 0x846 <I2C_stop>
}
     91e:	df 91       	pop	r29
     920:	cf 91       	pop	r28
     922:	1f 91       	pop	r17
     924:	0f 91       	pop	r16
     926:	ff 90       	pop	r15
     928:	ef 90       	pop	r14
     92a:	08 95       	ret

0000092c <main>:
#define LED_OFF PORTB &= ~(1<<PB5)
#define LED_TGL PORTB ^=  (1<<PB5)

int main(void)
{
	flag1.bytes = 0;
     92c:	10 92 ce 02 	sts	0x02CE, r1	; 0x8002ce <flag1>
	flag1.serial_dbg = 1;
     930:	80 91 ce 02 	lds	r24, 0x02CE	; 0x8002ce <flag1>
     934:	81 60       	ori	r24, 0x01	; 1
     936:	80 93 ce 02 	sts	0x02CE, r24	; 0x8002ce <flag1>
	pos_x = 0;
     93a:	10 92 db 02 	sts	0x02DB, r1	; 0x8002db <pos_x>
     93e:	10 92 dc 02 	sts	0x02DC, r1	; 0x8002dc <pos_x+0x1>
     942:	10 92 dd 02 	sts	0x02DD, r1	; 0x8002dd <pos_x+0x2>
     946:	10 92 de 02 	sts	0x02DE, r1	; 0x8002de <pos_x+0x3>
	pos_y = 0;
     94a:	10 92 cf 02 	sts	0x02CF, r1	; 0x8002cf <pos_y>
     94e:	10 92 d0 02 	sts	0x02D0, r1	; 0x8002d0 <pos_y+0x1>
     952:	10 92 d1 02 	sts	0x02D1, r1	; 0x8002d1 <pos_y+0x2>
     956:	10 92 d2 02 	sts	0x02D2, r1	; 0x8002d2 <pos_y+0x3>
//	InitTWI();
	DDRB = (1<<PB5);
     95a:	80 e2       	ldi	r24, 0x20	; 32
     95c:	84 b9       	out	0x04, r24	; 4
	TWSR0 = 0x00;
     95e:	10 92 b9 00 	sts	0x00B9, r1	; 0x8000b9 <__TEXT_REGION_LENGTH__+0x7e00b9>
	TWBR0 = 0x0C;
     962:	8c e0       	ldi	r24, 0x0C	; 12
     964:	80 93 b8 00 	sts	0x00B8, r24	; 0x8000b8 <__TEXT_REGION_LENGTH__+0x7e00b8>
	TWCR0 = (1<<TWEN);	//enable TWI
     968:	84 e0       	ldi	r24, 0x04	; 4
     96a:	80 93 bc 00 	sts	0x00BC, r24	; 0x8000bc <__TEXT_REGION_LENGTH__+0x7e00bc>

	InitUartCOM();
     96e:	0e 94 64 11 	call	0x22c8	; 0x22c8 <InitUartCOM>
	InitPWMTimers();
     972:	0e 94 7e 0c 	call	0x18fc	; 0x18fc <InitPWMTimers>
	sei();
     976:	78 94       	sei
	SendLine("Uart dziala");
     978:	8a e1       	ldi	r24, 0x1A	; 26
     97a:	91 e0       	ldi	r25, 0x01	; 1
     97c:	0e 94 99 11 	call	0x2332	; 0x2332 <SendLine>

	calculate_position_counter = 200;
     980:	88 ec       	ldi	r24, 0xC8	; 200
     982:	90 e0       	ldi	r25, 0x00	; 0
     984:	90 93 49 02 	sts	0x0249, r25	; 0x800249 <calculate_position_counter+0x1>
     988:	80 93 48 02 	sts	0x0248, r24	; 0x800248 <calculate_position_counter>

	CalibrateMPU6050(gyro_offset, acc_offset);
     98c:	68 ec       	ldi	r22, 0xC8	; 200
     98e:	72 e0       	ldi	r23, 0x02	; 2
     990:	85 ed       	ldi	r24, 0xD5	; 213
     992:	92 e0       	ldi	r25, 0x02	; 2
     994:	0e 94 7e 06 	call	0xcfc	; 0xcfc <CalibrateMPU6050>
     998:	8a e0       	ldi	r24, 0x0A	; 10

	for (uint8_t i=0; i<10; i++){
		LED_TGL;
     99a:	20 e2       	ldi	r18, 0x20	; 32
     99c:	95 b1       	in	r25, 0x05	; 5
     99e:	92 27       	eor	r25, r18
     9a0:	95 b9       	out	0x05, r25	; 5
	#else
		//round up by default
		__ticks_dc = (uint32_t)(ceil(fabs(__tmp)));
	#endif

	__builtin_avr_delay_cycles(__ticks_dc);
     9a2:	3f ef       	ldi	r19, 0xFF	; 255
     9a4:	41 ee       	ldi	r20, 0xE1	; 225
     9a6:	94 e0       	ldi	r25, 0x04	; 4
     9a8:	31 50       	subi	r19, 0x01	; 1
     9aa:	40 40       	sbci	r20, 0x00	; 0
     9ac:	90 40       	sbci	r25, 0x00	; 0
     9ae:	e1 f7       	brne	.-8      	; 0x9a8 <main+0x7c>
     9b0:	00 c0       	rjmp	.+0      	; 0x9b2 <main+0x86>
     9b2:	00 00       	nop
     9b4:	81 50       	subi	r24, 0x01	; 1

	calculate_position_counter = 200;

	CalibrateMPU6050(gyro_offset, acc_offset);

	for (uint8_t i=0; i<10; i++){
     9b6:	91 f7       	brne	.-28     	; 0x99c <main+0x70>
		LED_TGL;
		_delay_ms(100);
	}

	InitMPU6050();
     9b8:	0e 94 7a 08 	call	0x10f4	; 0x10f4 <InitMPU6050>
	InitCommonTimer();
     9bc:	0e 94 75 0c 	call	0x18ea	; 0x18ea <InitCommonTimer>
	InitTrimming();
     9c0:	0e 94 2d 0b 	call	0x165a	; 0x165a <InitTrimming>
	InitUartSBUS();
     9c4:	0e 94 ce 0a 	call	0x159c	; 0x159c <InitUartSBUS>

    while (1) 
    {
		CheckRxBuffor();
     9c8:	0e 94 5e 13 	call	0x26bc	; 0x26bc <CheckRxBuffor>
		ReadMPU6050();
     9cc:	0e 94 de 08 	call	0x11bc	; 0x11bc <ReadMPU6050>
		CheckCommonTimer();
     9d0:	0e 94 83 0c 	call	0x1906	; 0x1906 <CheckCommonTimer>
     9d4:	f9 cf       	rjmp	.-14     	; 0x9c8 <main+0x9c>

000009d6 <ProcessAngle>:

int32_t CalculateNewPos(double pos_acc, int32_t pos_gyro, int32_t pos_total, uint32_t total_g);


double ProcessAngle(int16_t width, int16_t high)
{
     9d6:	cf 92       	push	r12
     9d8:	df 92       	push	r13
     9da:	ef 92       	push	r14
     9dc:	ff 92       	push	r15
     9de:	cf 93       	push	r28
     9e0:	df 93       	push	r29
	double angle = 0;
	if (width != 0)	//for 0 width atan can be 0 or 180, but should be 0
     9e2:	00 97       	sbiw	r24, 0x00	; 0
     9e4:	c1 f1       	breq	.+112    	; 0xa56 <ProcessAngle+0x80>
     9e6:	ec 01       	movw	r28, r24
	{
		angle = atan((double)high / (double)width);
     9e8:	07 2e       	mov	r0, r23
     9ea:	00 0c       	add	r0, r0
     9ec:	88 0b       	sbc	r24, r24
     9ee:	99 0b       	sbc	r25, r25
     9f0:	0e 94 45 15 	call	0x2a8a	; 0x2a8a <__floatsisf>
     9f4:	6b 01       	movw	r12, r22
     9f6:	7c 01       	movw	r14, r24
     9f8:	be 01       	movw	r22, r28
     9fa:	0d 2e       	mov	r0, r29
     9fc:	00 0c       	add	r0, r0
     9fe:	88 0b       	sbc	r24, r24
     a00:	99 0b       	sbc	r25, r25
     a02:	0e 94 45 15 	call	0x2a8a	; 0x2a8a <__floatsisf>
     a06:	9b 01       	movw	r18, r22
     a08:	ac 01       	movw	r20, r24
     a0a:	c7 01       	movw	r24, r14
     a0c:	b6 01       	movw	r22, r12
     a0e:	0e 94 9b 14 	call	0x2936	; 0x2936 <__divsf3>
     a12:	0e 94 6c 14 	call	0x28d8	; 0x28d8 <atan>
		/* Process to correct angles */
		if (width > 0)
     a16:	1c 16       	cp	r1, r28
     a18:	1d 06       	cpc	r1, r29
     a1a:	4c f4       	brge	.+18     	; 0xa2e <ProcessAngle+0x58>
			angle = M_PI_2 - angle;
     a1c:	9b 01       	movw	r18, r22
     a1e:	ac 01       	movw	r20, r24
     a20:	6b ed       	ldi	r22, 0xDB	; 219
     a22:	7f e0       	ldi	r23, 0x0F	; 15
     a24:	89 ec       	ldi	r24, 0xC9	; 201
     a26:	9f e3       	ldi	r25, 0x3F	; 63
     a28:	0e 94 ff 13 	call	0x27fe	; 0x27fe <__subsf3>
     a2c:	07 c0       	rjmp	.+14     	; 0xa3c <ProcessAngle+0x66>
		else
			angle = (M_PI_2 + angle) * (-1);
     a2e:	2b ed       	ldi	r18, 0xDB	; 219
     a30:	3f e0       	ldi	r19, 0x0F	; 15
     a32:	49 ec       	ldi	r20, 0xC9	; 201
     a34:	5f e3       	ldi	r21, 0x3F	; 63
     a36:	0e 94 00 14 	call	0x2800	; 0x2800 <__addsf3>
     a3a:	90 58       	subi	r25, 0x80	; 128

		angle = (angle * 180) / M_PI;
     a3c:	20 e0       	ldi	r18, 0x00	; 0
     a3e:	30 e0       	ldi	r19, 0x00	; 0
     a40:	44 e3       	ldi	r20, 0x34	; 52
     a42:	53 e4       	ldi	r21, 0x43	; 67
     a44:	0e 94 00 16 	call	0x2c00	; 0x2c00 <__mulsf3>
     a48:	2b ed       	ldi	r18, 0xDB	; 219
     a4a:	3f e0       	ldi	r19, 0x0F	; 15
     a4c:	49 e4       	ldi	r20, 0x49	; 73
     a4e:	50 e4       	ldi	r21, 0x40	; 64
     a50:	0e 94 9b 14 	call	0x2936	; 0x2936 <__divsf3>
     a54:	03 c0       	rjmp	.+6      	; 0xa5c <ProcessAngle+0x86>
int32_t CalculateNewPos(double pos_acc, int32_t pos_gyro, int32_t pos_total, uint32_t total_g);


double ProcessAngle(int16_t width, int16_t high)
{
	double angle = 0;
     a56:	60 e0       	ldi	r22, 0x00	; 0
     a58:	70 e0       	ldi	r23, 0x00	; 0
     a5a:	cb 01       	movw	r24, r22
			angle = (M_PI_2 + angle) * (-1);

		angle = (angle * 180) / M_PI;
	}
	return angle;
}
     a5c:	df 91       	pop	r29
     a5e:	cf 91       	pop	r28
     a60:	ff 90       	pop	r15
     a62:	ef 90       	pop	r14
     a64:	df 90       	pop	r13
     a66:	cf 90       	pop	r12
     a68:	08 95       	ret

00000a6a <CheckTotalG>:
	pos_x = CalculateNewPos(x_pos_acc, x_pos_gyro, pos_x, total_g);
	pos_y = CalculateNewPos(y_pos_acc, y_pos_gyro, pos_y, total_g);
}

uint32_t CheckTotalG(int16_t acc_vector[3])
{
     a6a:	8f 92       	push	r8
     a6c:	9f 92       	push	r9
     a6e:	af 92       	push	r10
     a70:	bf 92       	push	r11
     a72:	cf 92       	push	r12
     a74:	df 92       	push	r13
     a76:	ef 92       	push	r14
     a78:	ff 92       	push	r15
     a7a:	fc 01       	movw	r30, r24
	uint32_t value;
	value =	(uint32_t)acc_vector[X_AXIS] * (uint32_t)acc_vector[X_AXIS] +
     a7c:	a0 81       	ld	r26, Z
     a7e:	b1 81       	ldd	r27, Z+1	; 0x01
			(uint32_t)acc_vector[Y_AXIS] * (uint32_t)acc_vector[Y_AXIS] +
     a80:	e2 80       	ldd	r14, Z+2	; 0x02
     a82:	f3 80       	ldd	r15, Z+3	; 0x03
			(uint32_t)acc_vector[Z_AXIS] * (uint32_t)acc_vector[Z_AXIS];
     a84:	44 81       	ldd	r20, Z+4	; 0x04
     a86:	55 81       	ldd	r21, Z+5	; 0x05

	return value;
     a88:	9d 01       	movw	r18, r26
     a8a:	0e 94 a6 16 	call	0x2d4c	; 0x2d4c <__mulhisi3>
     a8e:	4b 01       	movw	r8, r22
     a90:	5c 01       	movw	r10, r24
     a92:	97 01       	movw	r18, r14
     a94:	d7 01       	movw	r26, r14
     a96:	0e 94 a6 16 	call	0x2d4c	; 0x2d4c <__mulhisi3>
     a9a:	75 01       	movw	r14, r10
     a9c:	64 01       	movw	r12, r8
     a9e:	c6 0e       	add	r12, r22
     aa0:	d7 1e       	adc	r13, r23
     aa2:	e8 1e       	adc	r14, r24
     aa4:	f9 1e       	adc	r15, r25
     aa6:	9a 01       	movw	r18, r20
     aa8:	da 01       	movw	r26, r20
     aaa:	0e 94 a6 16 	call	0x2d4c	; 0x2d4c <__mulhisi3>
     aae:	6c 0d       	add	r22, r12
     ab0:	7d 1d       	adc	r23, r13
     ab2:	8e 1d       	adc	r24, r14
     ab4:	9f 1d       	adc	r25, r15
}
     ab6:	ff 90       	pop	r15
     ab8:	ef 90       	pop	r14
     aba:	df 90       	pop	r13
     abc:	cf 90       	pop	r12
     abe:	bf 90       	pop	r11
     ac0:	af 90       	pop	r10
     ac2:	9f 90       	pop	r9
     ac4:	8f 90       	pop	r8
     ac6:	08 95       	ret

00000ac8 <CalculateNewPos>:

int32_t CalculateNewPos(double pos_acc, int32_t pos_gyro, int32_t pos_total, uint32_t total_g)
{
     ac8:	4f 92       	push	r4
     aca:	5f 92       	push	r5
     acc:	6f 92       	push	r6
     ace:	7f 92       	push	r7
     ad0:	8f 92       	push	r8
     ad2:	9f 92       	push	r9
     ad4:	af 92       	push	r10
     ad6:	bf 92       	push	r11
     ad8:	cf 92       	push	r12
     ada:	df 92       	push	r13
     adc:	ef 92       	push	r14
     ade:	ff 92       	push	r15
     ae0:	0f 93       	push	r16
     ae2:	1f 93       	push	r17
     ae4:	2b 01       	movw	r4, r22
     ae6:	3c 01       	movw	r6, r24
	int32_t pos_acc_calc, temporary;

	if (total_g > G_SPECIAL_MAX || total_g < G_SPECIAL_MIN)
     ae8:	d6 01       	movw	r26, r12
     aea:	c5 01       	movw	r24, r10
     aec:	8c 5c       	subi	r24, 0xCC	; 204
     aee:	9c 4c       	sbci	r25, 0xCC	; 204
     af0:	ac 4c       	sbci	r26, 0xCC	; 204
     af2:	bc 40       	sbci	r27, 0x0C	; 12
     af4:	88 36       	cpi	r24, 0x68	; 104
     af6:	96 46       	sbci	r25, 0x66	; 102
     af8:	a6 46       	sbci	r26, 0x66	; 102
     afa:	b6 40       	sbci	r27, 0x06	; 6
     afc:	f8 f0       	brcs	.+62     	; 0xb3c <CalculateNewPos+0x74>
	{
		pos_acc *= ACC_SPECIAL;
		pos_acc_calc = (int32_t)pos_acc;
		temporary = pos_total + pos_gyro;
     afe:	2e 0d       	add	r18, r14
     b00:	3f 1d       	adc	r19, r15
     b02:	40 1f       	adc	r20, r16
     b04:	51 1f       	adc	r21, r17
		temporary *= GYRO_SPECIAL;
     b06:	a3 e6       	ldi	r26, 0x63	; 99
     b08:	b0 e0       	ldi	r27, 0x00	; 0
     b0a:	0e 94 c4 16 	call	0x2d88	; 0x2d88 <__muluhisi3>
     b0e:	4b 01       	movw	r8, r22
     b10:	5c 01       	movw	r10, r24
		temporary /= 100;
		return pos_acc_calc + temporary;
     b12:	c3 01       	movw	r24, r6
     b14:	b2 01       	movw	r22, r4
     b16:	0e 94 0d 15 	call	0x2a1a	; 0x2a1a <__fixsfsi>
     b1a:	6b 01       	movw	r12, r22
     b1c:	7c 01       	movw	r14, r24
     b1e:	c5 01       	movw	r24, r10
     b20:	b4 01       	movw	r22, r8
     b22:	24 e6       	ldi	r18, 0x64	; 100
     b24:	30 e0       	ldi	r19, 0x00	; 0
     b26:	40 e0       	ldi	r20, 0x00	; 0
     b28:	50 e0       	ldi	r21, 0x00	; 0
     b2a:	0e 94 81 16 	call	0x2d02	; 0x2d02 <__divmodsi4>
     b2e:	c7 01       	movw	r24, r14
     b30:	b6 01       	movw	r22, r12
     b32:	62 0f       	add	r22, r18
     b34:	73 1f       	adc	r23, r19
     b36:	84 1f       	adc	r24, r20
     b38:	95 1f       	adc	r25, r21
     b3a:	24 c0       	rjmp	.+72     	; 0xb84 <CalculateNewPos+0xbc>
	}
	else
	{
		pos_acc *= ACC_NORMAL;
		pos_acc_calc = (int32_t)pos_acc;
		temporary = pos_total + pos_gyro;
     b3c:	2e 0d       	add	r18, r14
     b3e:	3f 1d       	adc	r19, r15
     b40:	40 1f       	adc	r20, r16
     b42:	51 1f       	adc	r21, r17
		temporary *= GYRO_NORMAL;
     b44:	af e5       	ldi	r26, 0x5F	; 95
     b46:	b0 e0       	ldi	r27, 0x00	; 0
     b48:	0e 94 c4 16 	call	0x2d88	; 0x2d88 <__muluhisi3>
     b4c:	4b 01       	movw	r8, r22
     b4e:	5c 01       	movw	r10, r24
		temporary /= 100;
		return pos_acc_calc + temporary;
     b50:	20 e0       	ldi	r18, 0x00	; 0
     b52:	30 e0       	ldi	r19, 0x00	; 0
     b54:	40 ea       	ldi	r20, 0xA0	; 160
     b56:	50 e4       	ldi	r21, 0x40	; 64
     b58:	c3 01       	movw	r24, r6
     b5a:	b2 01       	movw	r22, r4
     b5c:	0e 94 00 16 	call	0x2c00	; 0x2c00 <__mulsf3>
     b60:	0e 94 0d 15 	call	0x2a1a	; 0x2a1a <__fixsfsi>
     b64:	6b 01       	movw	r12, r22
     b66:	7c 01       	movw	r14, r24
     b68:	c5 01       	movw	r24, r10
     b6a:	b4 01       	movw	r22, r8
     b6c:	24 e6       	ldi	r18, 0x64	; 100
     b6e:	30 e0       	ldi	r19, 0x00	; 0
     b70:	40 e0       	ldi	r20, 0x00	; 0
     b72:	50 e0       	ldi	r21, 0x00	; 0
     b74:	0e 94 81 16 	call	0x2d02	; 0x2d02 <__divmodsi4>
     b78:	c7 01       	movw	r24, r14
     b7a:	b6 01       	movw	r22, r12
     b7c:	62 0f       	add	r22, r18
     b7e:	73 1f       	adc	r23, r19
     b80:	84 1f       	adc	r24, r20
     b82:	95 1f       	adc	r25, r21
	}
     b84:	1f 91       	pop	r17
     b86:	0f 91       	pop	r16
     b88:	ff 90       	pop	r15
     b8a:	ef 90       	pop	r14
     b8c:	df 90       	pop	r13
     b8e:	cf 90       	pop	r12
     b90:	bf 90       	pop	r11
     b92:	af 90       	pop	r10
     b94:	9f 90       	pop	r9
     b96:	8f 90       	pop	r8
     b98:	7f 90       	pop	r7
     b9a:	6f 90       	pop	r6
     b9c:	5f 90       	pop	r5
     b9e:	4f 90       	pop	r4
     ba0:	08 95       	ret

00000ba2 <ProcessPosition>:
	}
	return angle;
}

void ProcessPosition(int16_t gyro[3], int16_t acc[3])
{
     ba2:	2f 92       	push	r2
     ba4:	3f 92       	push	r3
     ba6:	4f 92       	push	r4
     ba8:	5f 92       	push	r5
     baa:	6f 92       	push	r6
     bac:	7f 92       	push	r7
     bae:	8f 92       	push	r8
     bb0:	9f 92       	push	r9
     bb2:	af 92       	push	r10
     bb4:	bf 92       	push	r11
     bb6:	cf 92       	push	r12
     bb8:	df 92       	push	r13
     bba:	ef 92       	push	r14
     bbc:	ff 92       	push	r15
     bbe:	0f 93       	push	r16
     bc0:	1f 93       	push	r17
     bc2:	cf 93       	push	r28
     bc4:	df 93       	push	r29
     bc6:	cd b7       	in	r28, 0x3d	; 61
     bc8:	de b7       	in	r29, 0x3e	; 62
     bca:	60 97       	sbiw	r28, 0x10	; 16
     bcc:	0f b6       	in	r0, 0x3f	; 63
     bce:	f8 94       	cli
     bd0:	de bf       	out	0x3e, r29	; 62
     bd2:	0f be       	out	0x3f, r0	; 63
     bd4:	cd bf       	out	0x3d, r28	; 61
     bd6:	3c 01       	movw	r6, r24
     bd8:	7a 83       	std	Y+2, r23	; 0x02
     bda:	69 83       	std	Y+1, r22	; 0x01
	int32_t pomocnicza, pos_acc;
	double x_pos_acc = ProcessAngle(acc[Y_AXIS], acc[Z_AXIS]);
     bdc:	fb 01       	movw	r30, r22
     bde:	44 80       	ldd	r4, Z+4	; 0x04
     be0:	55 80       	ldd	r5, Z+5	; 0x05
     be2:	b2 01       	movw	r22, r4
     be4:	82 81       	ldd	r24, Z+2	; 0x02
     be6:	93 81       	ldd	r25, Z+3	; 0x03
     be8:	0e 94 eb 04 	call	0x9d6	; 0x9d6 <ProcessAngle>
     bec:	6d 83       	std	Y+5, r22	; 0x05
     bee:	7e 83       	std	Y+6, r23	; 0x06
     bf0:	8f 83       	std	Y+7, r24	; 0x07
     bf2:	98 87       	std	Y+8, r25	; 0x08
	double y_pos_acc = (ProcessAngle(acc[X_AXIS], acc[Z_AXIS]) * (-1));	
     bf4:	b2 01       	movw	r22, r4
     bf6:	e9 81       	ldd	r30, Y+1	; 0x01
     bf8:	fa 81       	ldd	r31, Y+2	; 0x02
     bfa:	80 81       	ld	r24, Z
     bfc:	91 81       	ldd	r25, Z+1	; 0x01
     bfe:	0e 94 eb 04 	call	0x9d6	; 0x9d6 <ProcessAngle>
     c02:	1b 01       	movw	r2, r22
     c04:	2c 01       	movw	r4, r24

	uint32_t total_g = CheckTotalG(acc);
     c06:	89 81       	ldd	r24, Y+1	; 0x01
     c08:	9a 81       	ldd	r25, Y+2	; 0x02
     c0a:	0e 94 35 05 	call	0xa6a	; 0xa6a <CheckTotalG>
     c0e:	69 83       	std	Y+1, r22	; 0x01
     c10:	7a 83       	std	Y+2, r23	; 0x02
     c12:	8b 83       	std	Y+3, r24	; 0x03
     c14:	9c 83       	std	Y+4, r25	; 0x04

	/* by default all values stored in _pos are in degrees*100*/
	int32_t x_pos_gyro = (int32_t)gyro[X_AXIS] * 100;
     c16:	f3 01       	movw	r30, r6
     c18:	a0 81       	ld	r26, Z
     c1a:	b1 81       	ldd	r27, Z+1	; 0x01
     c1c:	24 e6       	ldi	r18, 0x64	; 100
     c1e:	30 e0       	ldi	r19, 0x00	; 0
     c20:	0e 94 bd 16 	call	0x2d7a	; 0x2d7a <__usmulhisi3>
     c24:	69 87       	std	Y+9, r22	; 0x09
     c26:	7a 87       	std	Y+10, r23	; 0x0a
     c28:	8b 87       	std	Y+11, r24	; 0x0b
     c2a:	9c 87       	std	Y+12, r25	; 0x0c
	int32_t y_pos_gyro = (int32_t)gyro[Y_AXIS] * 100;
     c2c:	a2 81       	ldd	r26, Z+2	; 0x02
     c2e:	b3 81       	ldd	r27, Z+3	; 0x03
     c30:	0e 94 bd 16 	call	0x2d7a	; 0x2d7a <__usmulhisi3>
     c34:	6d 87       	std	Y+13, r22	; 0x0d
     c36:	7e 87       	std	Y+14, r23	; 0x0e
     c38:	8f 87       	std	Y+15, r24	; 0x0f
     c3a:	98 8b       	std	Y+16, r25	; 0x10

	x_pos_gyro = x_pos_gyro / GYRO_DIV;
	y_pos_gyro = y_pos_gyro / GYRO_DIV;

	pos_x = CalculateNewPos(x_pos_acc, x_pos_gyro, pos_x, total_g);
     c3c:	e0 90 db 02 	lds	r14, 0x02DB	; 0x8002db <pos_x>
     c40:	f0 90 dc 02 	lds	r15, 0x02DC	; 0x8002dc <pos_x+0x1>
     c44:	00 91 dd 02 	lds	r16, 0x02DD	; 0x8002dd <pos_x+0x2>
     c48:	10 91 de 02 	lds	r17, 0x02DE	; 0x8002de <pos_x+0x3>
     c4c:	0f 2e       	mov	r0, r31
     c4e:	f2 eb       	ldi	r31, 0xB2	; 178
     c50:	6f 2e       	mov	r6, r31
     c52:	fc e0       	ldi	r31, 0x0C	; 12
     c54:	7f 2e       	mov	r7, r31
     c56:	81 2c       	mov	r8, r1
     c58:	91 2c       	mov	r9, r1
     c5a:	f0 2d       	mov	r31, r0
     c5c:	69 85       	ldd	r22, Y+9	; 0x09
     c5e:	7a 85       	ldd	r23, Y+10	; 0x0a
     c60:	8b 85       	ldd	r24, Y+11	; 0x0b
     c62:	9c 85       	ldd	r25, Y+12	; 0x0c
     c64:	a4 01       	movw	r20, r8
     c66:	93 01       	movw	r18, r6
     c68:	0e 94 81 16 	call	0x2d02	; 0x2d02 <__divmodsi4>
     c6c:	a9 80       	ldd	r10, Y+1	; 0x01
     c6e:	ba 80       	ldd	r11, Y+2	; 0x02
     c70:	cb 80       	ldd	r12, Y+3	; 0x03
     c72:	dc 80       	ldd	r13, Y+4	; 0x04
     c74:	6d 81       	ldd	r22, Y+5	; 0x05
     c76:	7e 81       	ldd	r23, Y+6	; 0x06
     c78:	8f 81       	ldd	r24, Y+7	; 0x07
     c7a:	98 85       	ldd	r25, Y+8	; 0x08
     c7c:	0e 94 64 05 	call	0xac8	; 0xac8 <CalculateNewPos>
     c80:	60 93 db 02 	sts	0x02DB, r22	; 0x8002db <pos_x>
     c84:	70 93 dc 02 	sts	0x02DC, r23	; 0x8002dc <pos_x+0x1>
     c88:	80 93 dd 02 	sts	0x02DD, r24	; 0x8002dd <pos_x+0x2>
     c8c:	90 93 de 02 	sts	0x02DE, r25	; 0x8002de <pos_x+0x3>
	pos_y = CalculateNewPos(y_pos_acc, y_pos_gyro, pos_y, total_g);
     c90:	e0 90 cf 02 	lds	r14, 0x02CF	; 0x8002cf <pos_y>
     c94:	f0 90 d0 02 	lds	r15, 0x02D0	; 0x8002d0 <pos_y+0x1>
     c98:	00 91 d1 02 	lds	r16, 0x02D1	; 0x8002d1 <pos_y+0x2>
     c9c:	10 91 d2 02 	lds	r17, 0x02D2	; 0x8002d2 <pos_y+0x3>
     ca0:	6d 85       	ldd	r22, Y+13	; 0x0d
     ca2:	7e 85       	ldd	r23, Y+14	; 0x0e
     ca4:	8f 85       	ldd	r24, Y+15	; 0x0f
     ca6:	98 89       	ldd	r25, Y+16	; 0x10
     ca8:	a4 01       	movw	r20, r8
     caa:	93 01       	movw	r18, r6
     cac:	0e 94 81 16 	call	0x2d02	; 0x2d02 <__divmodsi4>
     cb0:	c2 01       	movw	r24, r4
     cb2:	b1 01       	movw	r22, r2
     cb4:	90 58       	subi	r25, 0x80	; 128
     cb6:	0e 94 64 05 	call	0xac8	; 0xac8 <CalculateNewPos>
     cba:	60 93 cf 02 	sts	0x02CF, r22	; 0x8002cf <pos_y>
     cbe:	70 93 d0 02 	sts	0x02D0, r23	; 0x8002d0 <pos_y+0x1>
     cc2:	80 93 d1 02 	sts	0x02D1, r24	; 0x8002d1 <pos_y+0x2>
     cc6:	90 93 d2 02 	sts	0x02D2, r25	; 0x8002d2 <pos_y+0x3>
}
     cca:	60 96       	adiw	r28, 0x10	; 16
     ccc:	0f b6       	in	r0, 0x3f	; 63
     cce:	f8 94       	cli
     cd0:	de bf       	out	0x3e, r29	; 62
     cd2:	0f be       	out	0x3f, r0	; 63
     cd4:	cd bf       	out	0x3d, r28	; 61
     cd6:	df 91       	pop	r29
     cd8:	cf 91       	pop	r28
     cda:	1f 91       	pop	r17
     cdc:	0f 91       	pop	r16
     cde:	ff 90       	pop	r15
     ce0:	ef 90       	pop	r14
     ce2:	df 90       	pop	r13
     ce4:	cf 90       	pop	r12
     ce6:	bf 90       	pop	r11
     ce8:	af 90       	pop	r10
     cea:	9f 90       	pop	r9
     cec:	8f 90       	pop	r8
     cee:	7f 90       	pop	r7
     cf0:	6f 90       	pop	r6
     cf2:	5f 90       	pop	r5
     cf4:	4f 90       	pop	r4
     cf6:	3f 90       	pop	r3
     cf8:	2f 90       	pop	r2
     cfa:	08 95       	ret

00000cfc <CalibrateMPU6050>:
#include "Uart.h"
#include "Common.h"
#include "i2c_twi.h"

void CalibrateMPU6050(int16_t gyro_offset[], int16_t acc_offset[])
{
     cfc:	2f 92       	push	r2
     cfe:	3f 92       	push	r3
     d00:	4f 92       	push	r4
     d02:	5f 92       	push	r5
     d04:	6f 92       	push	r6
     d06:	7f 92       	push	r7
     d08:	8f 92       	push	r8
     d0a:	9f 92       	push	r9
     d0c:	af 92       	push	r10
     d0e:	bf 92       	push	r11
     d10:	cf 92       	push	r12
     d12:	df 92       	push	r13
     d14:	ef 92       	push	r14
     d16:	ff 92       	push	r15
     d18:	0f 93       	push	r16
     d1a:	1f 93       	push	r17
     d1c:	cf 93       	push	r28
     d1e:	df 93       	push	r29
     d20:	cd b7       	in	r28, 0x3d	; 61
     d22:	de b7       	in	r29, 0x3e	; 62
     d24:	a4 97       	sbiw	r28, 0x24	; 36
     d26:	0f b6       	in	r0, 0x3f	; 63
     d28:	f8 94       	cli
     d2a:	de bf       	out	0x3e, r29	; 62
     d2c:	0f be       	out	0x3f, r0	; 63
     d2e:	cd bf       	out	0x3d, r28	; 61
     d30:	9a a3       	std	Y+34, r25	; 0x22
     d32:	89 a3       	std	Y+33, r24	; 0x21
     d34:	7c a3       	std	Y+36, r23	; 0x24
     d36:	6b a3       	std	Y+35, r22	; 0x23
	int32_t gyro_bias[3] = {0, 0, 0};
	int32_t accel_bias[3] = {0, 0, 0};
	packet_total = 0;

	// reset device, reset all registers, clear gyro and accelerometer bias registers
	I2C_write_byte(MPU6050_ADDRESS, PWR_MGMT_1, 0x80); // Write a one to bit 7 reset bit; toggle reset device
     d38:	40 e8       	ldi	r20, 0x80	; 128
     d3a:	6b e6       	ldi	r22, 0x6B	; 107
     d3c:	88 e6       	ldi	r24, 0x68	; 104
     d3e:	0e 94 46 04 	call	0x88c	; 0x88c <I2C_write_byte>
     d42:	2f ef       	ldi	r18, 0xFF	; 255
     d44:	31 ee       	ldi	r19, 0xE1	; 225
     d46:	44 e0       	ldi	r20, 0x04	; 4
     d48:	21 50       	subi	r18, 0x01	; 1
     d4a:	30 40       	sbci	r19, 0x00	; 0
     d4c:	40 40       	sbci	r20, 0x00	; 0
     d4e:	e1 f7       	brne	.-8      	; 0xd48 <CalibrateMPU6050+0x4c>
     d50:	00 c0       	rjmp	.+0      	; 0xd52 <CalibrateMPU6050+0x56>
     d52:	00 00       	nop
	_delay_ms(100);

	// get stable time source
	// Set clock source to be PLL with x-axis gyroscope reference, bits 2:0 = 001
	I2C_write_byte(MPU6050_ADDRESS, PWR_MGMT_1, 0x01);
     d54:	41 e0       	ldi	r20, 0x01	; 1
     d56:	6b e6       	ldi	r22, 0x6B	; 107
     d58:	88 e6       	ldi	r24, 0x68	; 104
     d5a:	0e 94 46 04 	call	0x88c	; 0x88c <I2C_write_byte>
	I2C_write_byte(MPU6050_ADDRESS, PWR_MGMT_2, 0x00);
     d5e:	40 e0       	ldi	r20, 0x00	; 0
     d60:	6c e6       	ldi	r22, 0x6C	; 108
     d62:	88 e6       	ldi	r24, 0x68	; 104
     d64:	0e 94 46 04 	call	0x88c	; 0x88c <I2C_write_byte>
     d68:	5f ef       	ldi	r21, 0xFF	; 255
     d6a:	63 ec       	ldi	r22, 0xC3	; 195
     d6c:	79 e0       	ldi	r23, 0x09	; 9
     d6e:	51 50       	subi	r21, 0x01	; 1
     d70:	60 40       	sbci	r22, 0x00	; 0
     d72:	70 40       	sbci	r23, 0x00	; 0
     d74:	e1 f7       	brne	.-8      	; 0xd6e <CalibrateMPU6050+0x72>
     d76:	00 c0       	rjmp	.+0      	; 0xd78 <CalibrateMPU6050+0x7c>
     d78:	00 00       	nop
	_delay_ms(200);

	// Configure device for bias calculation
	I2C_write_byte(MPU6050_ADDRESS, INT_ENABLE, 0x00);   // Disable all interrupts
     d7a:	40 e0       	ldi	r20, 0x00	; 0
     d7c:	68 e3       	ldi	r22, 0x38	; 56
     d7e:	88 e6       	ldi	r24, 0x68	; 104
     d80:	0e 94 46 04 	call	0x88c	; 0x88c <I2C_write_byte>
	I2C_write_byte(MPU6050_ADDRESS, FIFO_EN, 0x00);      // Disable FIFO
     d84:	40 e0       	ldi	r20, 0x00	; 0
     d86:	63 e2       	ldi	r22, 0x23	; 35
     d88:	88 e6       	ldi	r24, 0x68	; 104
     d8a:	0e 94 46 04 	call	0x88c	; 0x88c <I2C_write_byte>
	I2C_write_byte(MPU6050_ADDRESS, PWR_MGMT_1, 0x00);   // Turn on internal clock source
     d8e:	40 e0       	ldi	r20, 0x00	; 0
     d90:	6b e6       	ldi	r22, 0x6B	; 107
     d92:	88 e6       	ldi	r24, 0x68	; 104
     d94:	0e 94 46 04 	call	0x88c	; 0x88c <I2C_write_byte>
	I2C_write_byte(MPU6050_ADDRESS, I2C_MST_CTRL, 0x00); // Disable I2C master
     d98:	40 e0       	ldi	r20, 0x00	; 0
     d9a:	64 e2       	ldi	r22, 0x24	; 36
     d9c:	88 e6       	ldi	r24, 0x68	; 104
     d9e:	0e 94 46 04 	call	0x88c	; 0x88c <I2C_write_byte>
	I2C_write_byte(MPU6050_ADDRESS, USER_CTRL, 0x00);    // Disable FIFO and I2C master modes
     da2:	40 e0       	ldi	r20, 0x00	; 0
     da4:	6a e6       	ldi	r22, 0x6A	; 106
     da6:	88 e6       	ldi	r24, 0x68	; 104
     da8:	0e 94 46 04 	call	0x88c	; 0x88c <I2C_write_byte>
	I2C_write_byte(MPU6050_ADDRESS, USER_CTRL, 0x0C);    // Reset FIFO and DMP
     dac:	4c e0       	ldi	r20, 0x0C	; 12
     dae:	6a e6       	ldi	r22, 0x6A	; 106
     db0:	88 e6       	ldi	r24, 0x68	; 104
     db2:	0e 94 46 04 	call	0x88c	; 0x88c <I2C_write_byte>
     db6:	8f e5       	ldi	r24, 0x5F	; 95
     db8:	9a ee       	ldi	r25, 0xEA	; 234
     dba:	01 97       	sbiw	r24, 0x01	; 1
     dbc:	f1 f7       	brne	.-4      	; 0xdba <CalibrateMPU6050+0xbe>
     dbe:	00 c0       	rjmp	.+0      	; 0xdc0 <CalibrateMPU6050+0xc4>
     dc0:	00 00       	nop
	_delay_ms(15);

	// Configure MPU6050 gyro and accelerometer for bias calculation
	I2C_write_byte(MPU6050_ADDRESS, CONFIG, 0x01);      // Set low-pass filter to 188 Hz
     dc2:	41 e0       	ldi	r20, 0x01	; 1
     dc4:	6a e1       	ldi	r22, 0x1A	; 26
     dc6:	88 e6       	ldi	r24, 0x68	; 104
     dc8:	0e 94 46 04 	call	0x88c	; 0x88c <I2C_write_byte>
	I2C_write_byte(MPU6050_ADDRESS, SMPLRT_DIV, 0x00);  // Set sample rate to 1 kHz
     dcc:	40 e0       	ldi	r20, 0x00	; 0
     dce:	69 e1       	ldi	r22, 0x19	; 25
     dd0:	88 e6       	ldi	r24, 0x68	; 104
     dd2:	0e 94 46 04 	call	0x88c	; 0x88c <I2C_write_byte>
	I2C_write_byte(MPU6050_ADDRESS, GYRO_CONFIG, 0x00);  // Set gyro full-scale to 250 degrees per second, maximum sensitivity
     dd6:	40 e0       	ldi	r20, 0x00	; 0
     dd8:	6b e1       	ldi	r22, 0x1B	; 27
     dda:	88 e6       	ldi	r24, 0x68	; 104
     ddc:	0e 94 46 04 	call	0x88c	; 0x88c <I2C_write_byte>
	I2C_write_byte(MPU6050_ADDRESS, ACCEL_CONFIG, 0x00); // Set accelerometer full-scale to 2 g, maximum sensitivity
     de0:	40 e0       	ldi	r20, 0x00	; 0
     de2:	6c e1       	ldi	r22, 0x1C	; 28
     de4:	88 e6       	ldi	r24, 0x68	; 104
     de6:	0e 94 46 04 	call	0x88c	; 0x88c <I2C_write_byte>

	uint16_t  gyrosensitivity  = 131;   // = 131 LSB/degrees/sec
	uint16_t  accelsensitivity = 16384;  // = 16384 LSB/g

	// Configure FIFO to capture accelerometer and gyro data for bias calculation
	I2C_write_byte(MPU6050_ADDRESS, USER_CTRL, 0x40);   // Enable FIFO
     dea:	40 e4       	ldi	r20, 0x40	; 64
     dec:	6a e6       	ldi	r22, 0x6A	; 106
     dee:	88 e6       	ldi	r24, 0x68	; 104
     df0:	0e 94 46 04 	call	0x88c	; 0x88c <I2C_write_byte>
	I2C_write_byte(MPU6050_ADDRESS, FIFO_EN, 0x78);     // Enable gyro and accelerometer sensors for FIFO  (max size 1024 bytes in MPU-6050)
     df4:	48 e7       	ldi	r20, 0x78	; 120
     df6:	63 e2       	ldi	r22, 0x23	; 35
     df8:	88 e6       	ldi	r24, 0x68	; 104
     dfa:	0e 94 46 04 	call	0x88c	; 0x88c <I2C_write_byte>
     dfe:	af e1       	ldi	r26, 0x1F	; 31
     e00:	be e4       	ldi	r27, 0x4E	; 78
     e02:	11 97       	sbiw	r26, 0x01	; 1
     e04:	f1 f7       	brne	.-4      	; 0xe02 <CalibrateMPU6050+0x106>
     e06:	00 c0       	rjmp	.+0      	; 0xe08 <CalibrateMPU6050+0x10c>
     e08:	00 00       	nop
     e0a:	bf ef       	ldi	r27, 0xFF	; 255
     e0c:	ef e8       	ldi	r30, 0x8F	; 143
     e0e:	f1 e0       	ldi	r31, 0x01	; 1
     e10:	b1 50       	subi	r27, 0x01	; 1
     e12:	e0 40       	sbci	r30, 0x00	; 0
     e14:	f0 40       	sbci	r31, 0x00	; 0
     e16:	e1 f7       	brne	.-8      	; 0xe10 <CalibrateMPU6050+0x114>
     e18:	00 c0       	rjmp	.+0      	; 0xe1a <CalibrateMPU6050+0x11e>
     e1a:	00 00       	nop

void CalibrateMPU6050(int16_t gyro_offset[], int16_t acc_offset[])
{
	uint8_t data[12]; // data array to hold accelerometer and gyro x, y, z, data
	uint16_t ii, jj, packet_count, packet_total, fifo_count;
	int32_t gyro_bias[3] = {0, 0, 0};
     e1c:	19 8e       	std	Y+25, r1	; 0x19
     e1e:	1a 8e       	std	Y+26, r1	; 0x1a
     e20:	1b 8e       	std	Y+27, r1	; 0x1b
     e22:	1c 8e       	std	Y+28, r1	; 0x1c
     e24:	41 2c       	mov	r4, r1
     e26:	51 2c       	mov	r5, r1
     e28:	32 01       	movw	r6, r4
     e2a:	81 2c       	mov	r8, r1
     e2c:	91 2c       	mov	r9, r1
     e2e:	54 01       	movw	r10, r8
	int32_t accel_bias[3] = {0, 0, 0};
     e30:	1d 8a       	std	Y+21, r1	; 0x15
     e32:	1e 8a       	std	Y+22, r1	; 0x16
     e34:	1f 8a       	std	Y+23, r1	; 0x17
     e36:	18 8e       	std	Y+24, r1	; 0x18
     e38:	19 8a       	std	Y+17, r1	; 0x11
     e3a:	1a 8a       	std	Y+18, r1	; 0x12
     e3c:	1b 8a       	std	Y+19, r1	; 0x13
     e3e:	1c 8a       	std	Y+20, r1	; 0x14
     e40:	1d 86       	std	Y+13, r1	; 0x0d
     e42:	1e 86       	std	Y+14, r1	; 0x0e
     e44:	1f 86       	std	Y+15, r1	; 0x0f
     e46:	18 8a       	std	Y+16, r1	; 0x10
	packet_total = 0;
     e48:	c1 2c       	mov	r12, r1
     e4a:	d1 2c       	mov	r13, r1
	// Configure FIFO to capture accelerometer and gyro data for bias calculation
	I2C_write_byte(MPU6050_ADDRESS, USER_CTRL, 0x40);   // Enable FIFO
	I2C_write_byte(MPU6050_ADDRESS, FIFO_EN, 0x78);     // Enable gyro and accelerometer sensors for FIFO  (max size 1024 bytes in MPU-6050)
	_delay_ms(5);

	for (jj = 0; jj < 20; jj++)	//read samples for 1 second
     e4c:	21 2c       	mov	r2, r1
     e4e:	31 2c       	mov	r3, r1
     e50:	12 c0       	rjmp	.+36     	; 0xe76 <CalibrateMPU6050+0x17a>
     e52:	2f ef       	ldi	r18, 0xFF	; 255
     e54:	3f e8       	ldi	r19, 0x8F	; 143
     e56:	41 e0       	ldi	r20, 0x01	; 1
     e58:	21 50       	subi	r18, 0x01	; 1
     e5a:	30 40       	sbci	r19, 0x00	; 0
     e5c:	40 40       	sbci	r20, 0x00	; 0
     e5e:	e1 f7       	brne	.-8      	; 0xe58 <CalibrateMPU6050+0x15c>
     e60:	00 c0       	rjmp	.+0      	; 0xe62 <CalibrateMPU6050+0x166>
     e62:	00 00       	nop
	{
		_delay_ms(32); // accumulate 50 samples in 50 milliseconds = 600 bytes
		// At end of sample accumulation, turn off FIFO sensor read
		if (jj == 19)	// Disable gyro and accelerometer sensors for FIFO
     e64:	53 e1       	ldi	r21, 0x13	; 19
     e66:	25 16       	cp	r2, r21
     e68:	31 04       	cpc	r3, r1
     e6a:	29 f4       	brne	.+10     	; 0xe76 <CalibrateMPU6050+0x17a>
			I2C_write_byte(MPU6050_ADDRESS, FIFO_EN, 0x00);
     e6c:	40 e0       	ldi	r20, 0x00	; 0
     e6e:	63 e2       	ldi	r22, 0x23	; 35
     e70:	88 e6       	ldi	r24, 0x68	; 104
     e72:	0e 94 46 04 	call	0x88c	; 0x88c <I2C_write_byte>
		I2C_read_buf(MPU6050_ADDRESS, FIFO_COUNTH, 2, &data[0]); // read FIFO sample count
     e76:	9e 01       	movw	r18, r28
     e78:	2f 5f       	subi	r18, 0xFF	; 255
     e7a:	3f 4f       	sbci	r19, 0xFF	; 255
     e7c:	42 e0       	ldi	r20, 0x02	; 2
     e7e:	62 e7       	ldi	r22, 0x72	; 114
     e80:	88 e6       	ldi	r24, 0x68	; 104
     e82:	0e 94 5e 04 	call	0x8bc	; 0x8bc <I2C_read_buf>
		fifo_count = ((uint16_t)data[0] << 8) | data[1];

		packet_count = fifo_count/12;// How many sets of full gyro and accelerometer data for averaging
     e86:	29 81       	ldd	r18, Y+1	; 0x01
     e88:	30 e0       	ldi	r19, 0x00	; 0
     e8a:	32 2f       	mov	r19, r18
     e8c:	22 27       	eor	r18, r18
     e8e:	8a 81       	ldd	r24, Y+2	; 0x02
     e90:	28 2b       	or	r18, r24
     e92:	ab ea       	ldi	r26, 0xAB	; 171
     e94:	ba ea       	ldi	r27, 0xAA	; 170
     e96:	0e 94 ae 16 	call	0x2d5c	; 0x2d5c <__umulhisi3>
     e9a:	7c 01       	movw	r14, r24
     e9c:	f6 94       	lsr	r15
     e9e:	e7 94       	ror	r14
     ea0:	f6 94       	lsr	r15
     ea2:	e7 94       	ror	r14
     ea4:	f6 94       	lsr	r15
     ea6:	e7 94       	ror	r14

		for (ii = 0; ii < packet_count; ii++) 
     ea8:	e1 14       	cp	r14, r1
     eaa:	f1 04       	cpc	r15, r1
     eac:	09 f4       	brne	.+2      	; 0xeb0 <CalibrateMPU6050+0x1b4>
     eae:	8c c0       	rjmp	.+280    	; 0xfc8 <CalibrateMPU6050+0x2cc>
     eb0:	00 e0       	ldi	r16, 0x00	; 0
     eb2:	10 e0       	ldi	r17, 0x00	; 0
		{
			int16_t accel_temp[3] = {0, 0, 0}, gyro_temp[3] = {0, 0, 0};
			I2C_read_buf(MPU6050_ADDRESS, FIFO_R_W, 12, &data[0]); // read data for averaging
     eb4:	9e 01       	movw	r18, r28
     eb6:	2f 5f       	subi	r18, 0xFF	; 255
     eb8:	3f 4f       	sbci	r19, 0xFF	; 255
     eba:	4c e0       	ldi	r20, 0x0C	; 12
     ebc:	64 e7       	ldi	r22, 0x74	; 116
     ebe:	88 e6       	ldi	r24, 0x68	; 104
     ec0:	0e 94 5e 04 	call	0x8bc	; 0x8bc <I2C_read_buf>
			if (packet_total < 1024)
     ec4:	c1 14       	cp	r12, r1
     ec6:	64 e0       	ldi	r22, 0x04	; 4
     ec8:	d6 06       	cpc	r13, r22
     eca:	08 f0       	brcs	.+2      	; 0xece <CalibrateMPU6050+0x1d2>
     ecc:	77 c0       	rjmp	.+238    	; 0xfbc <CalibrateMPU6050+0x2c0>
			{
				packet_total++;
     ece:	7f ef       	ldi	r23, 0xFF	; 255
     ed0:	c7 1a       	sub	r12, r23
     ed2:	d7 0a       	sbc	r13, r23
				accel_temp[2] = (int16_t) (((int16_t)data[4] << 8)  | data[5] ) ;
				gyro_temp[0]  = (int16_t) (((int16_t)data[6] << 8)  | data[7] ) ;
				gyro_temp[1]  = (int16_t) (((int16_t)data[8] << 8)  | data[9] ) ;
				gyro_temp[2]  = (int16_t) (((int16_t)data[10] << 8) | data[11]) ;
		
				accel_bias[0] += (int32_t) accel_temp[0]; // Sum individual signed 16-bit biases to get accumulated signed 32-bit biases
     ed4:	89 81       	ldd	r24, Y+1	; 0x01
     ed6:	90 e0       	ldi	r25, 0x00	; 0
     ed8:	98 2f       	mov	r25, r24
     eda:	88 27       	eor	r24, r24
     edc:	2a 81       	ldd	r18, Y+2	; 0x02
     ede:	82 2b       	or	r24, r18
     ee0:	09 2e       	mov	r0, r25
     ee2:	00 0c       	add	r0, r0
     ee4:	aa 0b       	sbc	r26, r26
     ee6:	bb 0b       	sbc	r27, r27
     ee8:	2d 89       	ldd	r18, Y+21	; 0x15
     eea:	3e 89       	ldd	r19, Y+22	; 0x16
     eec:	4f 89       	ldd	r20, Y+23	; 0x17
     eee:	58 8d       	ldd	r21, Y+24	; 0x18
     ef0:	28 0f       	add	r18, r24
     ef2:	39 1f       	adc	r19, r25
     ef4:	4a 1f       	adc	r20, r26
     ef6:	5b 1f       	adc	r21, r27
     ef8:	2d 8b       	std	Y+21, r18	; 0x15
     efa:	3e 8b       	std	Y+22, r19	; 0x16
     efc:	4f 8b       	std	Y+23, r20	; 0x17
     efe:	58 8f       	std	Y+24, r21	; 0x18
				accel_bias[1] += (int32_t) accel_temp[1];
     f00:	8b 81       	ldd	r24, Y+3	; 0x03
     f02:	90 e0       	ldi	r25, 0x00	; 0
     f04:	98 2f       	mov	r25, r24
     f06:	88 27       	eor	r24, r24
     f08:	2c 81       	ldd	r18, Y+4	; 0x04
     f0a:	82 2b       	or	r24, r18
     f0c:	09 2e       	mov	r0, r25
     f0e:	00 0c       	add	r0, r0
     f10:	aa 0b       	sbc	r26, r26
     f12:	bb 0b       	sbc	r27, r27
     f14:	49 89       	ldd	r20, Y+17	; 0x11
     f16:	5a 89       	ldd	r21, Y+18	; 0x12
     f18:	6b 89       	ldd	r22, Y+19	; 0x13
     f1a:	7c 89       	ldd	r23, Y+20	; 0x14
     f1c:	48 0f       	add	r20, r24
     f1e:	59 1f       	adc	r21, r25
     f20:	6a 1f       	adc	r22, r26
     f22:	7b 1f       	adc	r23, r27
     f24:	49 8b       	std	Y+17, r20	; 0x11
     f26:	5a 8b       	std	Y+18, r21	; 0x12
     f28:	6b 8b       	std	Y+19, r22	; 0x13
     f2a:	7c 8b       	std	Y+20, r23	; 0x14
				accel_bias[2] += (int32_t) accel_temp[2];
     f2c:	8d 81       	ldd	r24, Y+5	; 0x05
     f2e:	90 e0       	ldi	r25, 0x00	; 0
     f30:	98 2f       	mov	r25, r24
     f32:	88 27       	eor	r24, r24
     f34:	2e 81       	ldd	r18, Y+6	; 0x06
     f36:	82 2b       	or	r24, r18
     f38:	09 2e       	mov	r0, r25
     f3a:	00 0c       	add	r0, r0
     f3c:	aa 0b       	sbc	r26, r26
     f3e:	bb 0b       	sbc	r27, r27
     f40:	2d 85       	ldd	r18, Y+13	; 0x0d
     f42:	3e 85       	ldd	r19, Y+14	; 0x0e
     f44:	4f 85       	ldd	r20, Y+15	; 0x0f
     f46:	58 89       	ldd	r21, Y+16	; 0x10
     f48:	28 0f       	add	r18, r24
     f4a:	39 1f       	adc	r19, r25
     f4c:	4a 1f       	adc	r20, r26
     f4e:	5b 1f       	adc	r21, r27
     f50:	2d 87       	std	Y+13, r18	; 0x0d
     f52:	3e 87       	std	Y+14, r19	; 0x0e
     f54:	4f 87       	std	Y+15, r20	; 0x0f
     f56:	58 8b       	std	Y+16, r21	; 0x10
				gyro_bias[0]  += (int32_t) gyro_temp[0];
     f58:	8f 81       	ldd	r24, Y+7	; 0x07
     f5a:	90 e0       	ldi	r25, 0x00	; 0
     f5c:	98 2f       	mov	r25, r24
     f5e:	88 27       	eor	r24, r24
     f60:	28 85       	ldd	r18, Y+8	; 0x08
     f62:	82 2b       	or	r24, r18
     f64:	09 2e       	mov	r0, r25
     f66:	00 0c       	add	r0, r0
     f68:	aa 0b       	sbc	r26, r26
     f6a:	bb 0b       	sbc	r27, r27
     f6c:	49 8d       	ldd	r20, Y+25	; 0x19
     f6e:	5a 8d       	ldd	r21, Y+26	; 0x1a
     f70:	6b 8d       	ldd	r22, Y+27	; 0x1b
     f72:	7c 8d       	ldd	r23, Y+28	; 0x1c
     f74:	48 0f       	add	r20, r24
     f76:	59 1f       	adc	r21, r25
     f78:	6a 1f       	adc	r22, r26
     f7a:	7b 1f       	adc	r23, r27
     f7c:	49 8f       	std	Y+25, r20	; 0x19
     f7e:	5a 8f       	std	Y+26, r21	; 0x1a
     f80:	6b 8f       	std	Y+27, r22	; 0x1b
     f82:	7c 8f       	std	Y+28, r23	; 0x1c
				gyro_bias[1]  += (int32_t) gyro_temp[1];
     f84:	89 85       	ldd	r24, Y+9	; 0x09
     f86:	90 e0       	ldi	r25, 0x00	; 0
     f88:	98 2f       	mov	r25, r24
     f8a:	88 27       	eor	r24, r24
     f8c:	2a 85       	ldd	r18, Y+10	; 0x0a
     f8e:	82 2b       	or	r24, r18
     f90:	09 2e       	mov	r0, r25
     f92:	00 0c       	add	r0, r0
     f94:	aa 0b       	sbc	r26, r26
     f96:	bb 0b       	sbc	r27, r27
     f98:	48 0e       	add	r4, r24
     f9a:	59 1e       	adc	r5, r25
     f9c:	6a 1e       	adc	r6, r26
     f9e:	7b 1e       	adc	r7, r27
				gyro_bias[2]  += (int32_t) gyro_temp[2];
     fa0:	8b 85       	ldd	r24, Y+11	; 0x0b
     fa2:	90 e0       	ldi	r25, 0x00	; 0
     fa4:	98 2f       	mov	r25, r24
     fa6:	88 27       	eor	r24, r24
     fa8:	2c 85       	ldd	r18, Y+12	; 0x0c
     faa:	82 2b       	or	r24, r18
     fac:	09 2e       	mov	r0, r25
     fae:	00 0c       	add	r0, r0
     fb0:	aa 0b       	sbc	r26, r26
     fb2:	bb 0b       	sbc	r27, r27
     fb4:	88 0e       	add	r8, r24
     fb6:	99 1e       	adc	r9, r25
     fb8:	aa 1e       	adc	r10, r26
     fba:	bb 1e       	adc	r11, r27
		I2C_read_buf(MPU6050_ADDRESS, FIFO_COUNTH, 2, &data[0]); // read FIFO sample count
		fifo_count = ((uint16_t)data[0] << 8) | data[1];

		packet_count = fifo_count/12;// How many sets of full gyro and accelerometer data for averaging

		for (ii = 0; ii < packet_count; ii++) 
     fbc:	0f 5f       	subi	r16, 0xFF	; 255
     fbe:	1f 4f       	sbci	r17, 0xFF	; 255
     fc0:	e0 16       	cp	r14, r16
     fc2:	f1 06       	cpc	r15, r17
     fc4:	09 f0       	breq	.+2      	; 0xfc8 <CalibrateMPU6050+0x2cc>
     fc6:	76 cf       	rjmp	.-276    	; 0xeb4 <CalibrateMPU6050+0x1b8>
	// Configure FIFO to capture accelerometer and gyro data for bias calculation
	I2C_write_byte(MPU6050_ADDRESS, USER_CTRL, 0x40);   // Enable FIFO
	I2C_write_byte(MPU6050_ADDRESS, FIFO_EN, 0x78);     // Enable gyro and accelerometer sensors for FIFO  (max size 1024 bytes in MPU-6050)
	_delay_ms(5);

	for (jj = 0; jj < 20; jj++)	//read samples for 1 second
     fc8:	5f ef       	ldi	r21, 0xFF	; 255
     fca:	25 1a       	sub	r2, r21
     fcc:	35 0a       	sbc	r3, r21
     fce:	64 e1       	ldi	r22, 0x14	; 20
     fd0:	26 16       	cp	r2, r22
     fd2:	31 04       	cpc	r3, r1
     fd4:	09 f0       	breq	.+2      	; 0xfd8 <CalibrateMPU6050+0x2dc>
     fd6:	3d cf       	rjmp	.-390    	; 0xe52 <CalibrateMPU6050+0x156>
				gyro_bias[2]  += (int32_t) gyro_temp[2];
			}
		}
	}

	accel_bias[0] /= (int32_t) packet_total; // Normalize sums to get average count biases
     fd8:	c6 01       	movw	r24, r12
     fda:	a0 e0       	ldi	r26, 0x00	; 0
     fdc:	b0 e0       	ldi	r27, 0x00	; 0
     fde:	8d 8f       	std	Y+29, r24	; 0x1d
     fe0:	9e 8f       	std	Y+30, r25	; 0x1e
     fe2:	af 8f       	std	Y+31, r26	; 0x1f
     fe4:	b8 a3       	std	Y+32, r27	; 0x20
     fe6:	6d 89       	ldd	r22, Y+21	; 0x15
     fe8:	7e 89       	ldd	r23, Y+22	; 0x16
     fea:	8f 89       	ldd	r24, Y+23	; 0x17
     fec:	98 8d       	ldd	r25, Y+24	; 0x18
     fee:	2d 8d       	ldd	r18, Y+29	; 0x1d
     ff0:	3e 8d       	ldd	r19, Y+30	; 0x1e
     ff2:	4f 8d       	ldd	r20, Y+31	; 0x1f
     ff4:	58 a1       	ldd	r21, Y+32	; 0x20
     ff6:	0e 94 81 16 	call	0x2d02	; 0x2d02 <__divmodsi4>
     ffa:	2d 8b       	std	Y+21, r18	; 0x15
     ffc:	3e 8b       	std	Y+22, r19	; 0x16
     ffe:	4f 8b       	std	Y+23, r20	; 0x17
    1000:	58 8f       	std	Y+24, r21	; 0x18
	accel_bias[1] /= (int32_t) packet_total;
    1002:	69 89       	ldd	r22, Y+17	; 0x11
    1004:	7a 89       	ldd	r23, Y+18	; 0x12
    1006:	8b 89       	ldd	r24, Y+19	; 0x13
    1008:	9c 89       	ldd	r25, Y+20	; 0x14
    100a:	2d 8d       	ldd	r18, Y+29	; 0x1d
    100c:	3e 8d       	ldd	r19, Y+30	; 0x1e
    100e:	4f 8d       	ldd	r20, Y+31	; 0x1f
    1010:	58 a1       	ldd	r21, Y+32	; 0x20
    1012:	0e 94 81 16 	call	0x2d02	; 0x2d02 <__divmodsi4>
    1016:	29 8b       	std	Y+17, r18	; 0x11
    1018:	3a 8b       	std	Y+18, r19	; 0x12
    101a:	4b 8b       	std	Y+19, r20	; 0x13
    101c:	5c 8b       	std	Y+20, r21	; 0x14
	accel_bias[2] /= (int32_t) packet_total;
    101e:	6d 85       	ldd	r22, Y+13	; 0x0d
    1020:	7e 85       	ldd	r23, Y+14	; 0x0e
    1022:	8f 85       	ldd	r24, Y+15	; 0x0f
    1024:	98 89       	ldd	r25, Y+16	; 0x10
    1026:	2d 8d       	ldd	r18, Y+29	; 0x1d
    1028:	3e 8d       	ldd	r19, Y+30	; 0x1e
    102a:	4f 8d       	ldd	r20, Y+31	; 0x1f
    102c:	58 a1       	ldd	r21, Y+32	; 0x20
    102e:	0e 94 81 16 	call	0x2d02	; 0x2d02 <__divmodsi4>
    1032:	69 01       	movw	r12, r18
    1034:	7a 01       	movw	r14, r20
	gyro_bias[0]  /= (int32_t) packet_total;
    1036:	69 8d       	ldd	r22, Y+25	; 0x19
    1038:	7a 8d       	ldd	r23, Y+26	; 0x1a
    103a:	8b 8d       	ldd	r24, Y+27	; 0x1b
    103c:	9c 8d       	ldd	r25, Y+28	; 0x1c
    103e:	2d 8d       	ldd	r18, Y+29	; 0x1d
    1040:	3e 8d       	ldd	r19, Y+30	; 0x1e
    1042:	4f 8d       	ldd	r20, Y+31	; 0x1f
    1044:	58 a1       	ldd	r21, Y+32	; 0x20
    1046:	0e 94 81 16 	call	0x2d02	; 0x2d02 <__divmodsi4>
    104a:	2d 87       	std	Y+13, r18	; 0x0d
    104c:	3e 87       	std	Y+14, r19	; 0x0e
    104e:	4f 87       	std	Y+15, r20	; 0x0f
    1050:	58 8b       	std	Y+16, r21	; 0x10
	gyro_bias[1]  /= (int32_t) packet_total;
    1052:	c3 01       	movw	r24, r6
    1054:	b2 01       	movw	r22, r4
    1056:	2d 8d       	ldd	r18, Y+29	; 0x1d
    1058:	3e 8d       	ldd	r19, Y+30	; 0x1e
    105a:	4f 8d       	ldd	r20, Y+31	; 0x1f
    105c:	58 a1       	ldd	r21, Y+32	; 0x20
    105e:	0e 94 81 16 	call	0x2d02	; 0x2d02 <__divmodsi4>
    1062:	29 01       	movw	r4, r18
    1064:	3a 01       	movw	r6, r20
	gyro_bias[2]  /= (int32_t) packet_total;
    1066:	c5 01       	movw	r24, r10
    1068:	b4 01       	movw	r22, r8
    106a:	2d 8d       	ldd	r18, Y+29	; 0x1d
    106c:	3e 8d       	ldd	r19, Y+30	; 0x1e
    106e:	4f 8d       	ldd	r20, Y+31	; 0x1f
    1070:	58 a1       	ldd	r21, Y+32	; 0x20
    1072:	0e 94 81 16 	call	0x2d02	; 0x2d02 <__divmodsi4>

	if(accel_bias[2] > 0L) {accel_bias[2] -= (int32_t) accelsensitivity;}  // Remove gravity from the z-axis accelerometer bias calculation
    1076:	1c 14       	cp	r1, r12
    1078:	1d 04       	cpc	r1, r13
    107a:	1e 04       	cpc	r1, r14
    107c:	1f 04       	cpc	r1, r15
    107e:	34 f4       	brge	.+12     	; 0x108c <CalibrateMPU6050+0x390>
    1080:	d7 01       	movw	r26, r14
    1082:	c6 01       	movw	r24, r12
    1084:	90 54       	subi	r25, 0x40	; 64
    1086:	a1 09       	sbc	r26, r1
    1088:	b1 09       	sbc	r27, r1
    108a:	05 c0       	rjmp	.+10     	; 0x1096 <CalibrateMPU6050+0x39a>
	else {accel_bias[2] += (int32_t) accelsensitivity;}
    108c:	d7 01       	movw	r26, r14
    108e:	c6 01       	movw	r24, r12
    1090:	90 5c       	subi	r25, 0xC0	; 192
    1092:	af 4f       	sbci	r26, 0xFF	; 255
    1094:	bf 4f       	sbci	r27, 0xFF	; 255
	
	gyro_offset[0] = (int16_t) gyro_bias[0];
    1096:	6d 85       	ldd	r22, Y+13	; 0x0d
    1098:	7e 85       	ldd	r23, Y+14	; 0x0e
    109a:	e9 a1       	ldd	r30, Y+33	; 0x21
    109c:	fa a1       	ldd	r31, Y+34	; 0x22
    109e:	71 83       	std	Z+1, r23	; 0x01
    10a0:	60 83       	st	Z, r22
	gyro_offset[1] = (int16_t) gyro_bias[1];
    10a2:	53 82       	std	Z+3, r5	; 0x03
    10a4:	42 82       	std	Z+2, r4	; 0x02
	gyro_offset[2] = (int16_t) gyro_bias[2];
    10a6:	35 83       	std	Z+5, r19	; 0x05
    10a8:	24 83       	std	Z+4, r18	; 0x04

	acc_offset[0]  = (int16_t) accel_bias[0];
    10aa:	2d 89       	ldd	r18, Y+21	; 0x15
    10ac:	3e 89       	ldd	r19, Y+22	; 0x16
    10ae:	eb a1       	ldd	r30, Y+35	; 0x23
    10b0:	fc a1       	ldd	r31, Y+36	; 0x24
    10b2:	31 83       	std	Z+1, r19	; 0x01
    10b4:	20 83       	st	Z, r18
	acc_offset[1]  = (int16_t) accel_bias[1];
    10b6:	49 89       	ldd	r20, Y+17	; 0x11
    10b8:	5a 89       	ldd	r21, Y+18	; 0x12
    10ba:	53 83       	std	Z+3, r21	; 0x03
    10bc:	42 83       	std	Z+2, r20	; 0x02
	acc_offset[2]  = (int16_t) accel_bias[2];
    10be:	95 83       	std	Z+5, r25	; 0x05
    10c0:	84 83       	std	Z+4, r24	; 0x04
}
    10c2:	a4 96       	adiw	r28, 0x24	; 36
    10c4:	0f b6       	in	r0, 0x3f	; 63
    10c6:	f8 94       	cli
    10c8:	de bf       	out	0x3e, r29	; 62
    10ca:	0f be       	out	0x3f, r0	; 63
    10cc:	cd bf       	out	0x3d, r28	; 61
    10ce:	df 91       	pop	r29
    10d0:	cf 91       	pop	r28
    10d2:	1f 91       	pop	r17
    10d4:	0f 91       	pop	r16
    10d6:	ff 90       	pop	r15
    10d8:	ef 90       	pop	r14
    10da:	df 90       	pop	r13
    10dc:	cf 90       	pop	r12
    10de:	bf 90       	pop	r11
    10e0:	af 90       	pop	r10
    10e2:	9f 90       	pop	r9
    10e4:	8f 90       	pop	r8
    10e6:	7f 90       	pop	r7
    10e8:	6f 90       	pop	r6
    10ea:	5f 90       	pop	r5
    10ec:	4f 90       	pop	r4
    10ee:	3f 90       	pop	r3
    10f0:	2f 90       	pop	r2
    10f2:	08 95       	ret

000010f4 <InitMPU6050>:


void InitMPU6050(void)
{
	// reset device, reset all registers, clear gyro and accelerometer bias registers
	I2C_write_byte(MPU6050_ADDRESS, PWR_MGMT_1, 0x80); // Write a one to bit 7 reset bit; toggle reset device
    10f4:	40 e8       	ldi	r20, 0x80	; 128
    10f6:	6b e6       	ldi	r22, 0x6B	; 107
    10f8:	88 e6       	ldi	r24, 0x68	; 104
    10fa:	0e 94 46 04 	call	0x88c	; 0x88c <I2C_write_byte>
    10fe:	2f ef       	ldi	r18, 0xFF	; 255
    1100:	81 ee       	ldi	r24, 0xE1	; 225
    1102:	94 e0       	ldi	r25, 0x04	; 4
    1104:	21 50       	subi	r18, 0x01	; 1
    1106:	80 40       	sbci	r24, 0x00	; 0
    1108:	90 40       	sbci	r25, 0x00	; 0
    110a:	e1 f7       	brne	.-8      	; 0x1104 <InitMPU6050+0x10>
    110c:	00 c0       	rjmp	.+0      	; 0x110e <InitMPU6050+0x1a>
    110e:	00 00       	nop
	_delay_ms(100);

	// get stable time source
	// Set clock source to be PLL with x-axis gyroscope reference, bits 2:0 = 001
	I2C_write_byte(MPU6050_ADDRESS, PWR_MGMT_1, 0x01);
    1110:	41 e0       	ldi	r20, 0x01	; 1
    1112:	6b e6       	ldi	r22, 0x6B	; 107
    1114:	88 e6       	ldi	r24, 0x68	; 104
    1116:	0e 94 46 04 	call	0x88c	; 0x88c <I2C_write_byte>
	I2C_write_byte(MPU6050_ADDRESS, PWR_MGMT_2, 0x00);
    111a:	40 e0       	ldi	r20, 0x00	; 0
    111c:	6c e6       	ldi	r22, 0x6C	; 108
    111e:	88 e6       	ldi	r24, 0x68	; 104
    1120:	0e 94 46 04 	call	0x88c	; 0x88c <I2C_write_byte>
    1124:	2f ef       	ldi	r18, 0xFF	; 255
    1126:	83 ec       	ldi	r24, 0xC3	; 195
    1128:	99 e0       	ldi	r25, 0x09	; 9
    112a:	21 50       	subi	r18, 0x01	; 1
    112c:	80 40       	sbci	r24, 0x00	; 0
    112e:	90 40       	sbci	r25, 0x00	; 0
    1130:	e1 f7       	brne	.-8      	; 0x112a <InitMPU6050+0x36>
    1132:	00 c0       	rjmp	.+0      	; 0x1134 <InitMPU6050+0x40>
    1134:	00 00       	nop
	_delay_ms(200);

	// Configure device for bias calculation
	I2C_write_byte(MPU6050_ADDRESS, INT_ENABLE, 0x00);   // Disable all interrupts
    1136:	40 e0       	ldi	r20, 0x00	; 0
    1138:	68 e3       	ldi	r22, 0x38	; 56
    113a:	88 e6       	ldi	r24, 0x68	; 104
    113c:	0e 94 46 04 	call	0x88c	; 0x88c <I2C_write_byte>
	I2C_write_byte(MPU6050_ADDRESS, FIFO_EN, 0x00);      // Disable FIFO
    1140:	40 e0       	ldi	r20, 0x00	; 0
    1142:	63 e2       	ldi	r22, 0x23	; 35
    1144:	88 e6       	ldi	r24, 0x68	; 104
    1146:	0e 94 46 04 	call	0x88c	; 0x88c <I2C_write_byte>
	I2C_write_byte(MPU6050_ADDRESS, PWR_MGMT_1, 0x00);   // Turn on internal clock source
    114a:	40 e0       	ldi	r20, 0x00	; 0
    114c:	6b e6       	ldi	r22, 0x6B	; 107
    114e:	88 e6       	ldi	r24, 0x68	; 104
    1150:	0e 94 46 04 	call	0x88c	; 0x88c <I2C_write_byte>
	I2C_write_byte(MPU6050_ADDRESS, I2C_MST_CTRL, 0x00); // Disable I2C master
    1154:	40 e0       	ldi	r20, 0x00	; 0
    1156:	64 e2       	ldi	r22, 0x24	; 36
    1158:	88 e6       	ldi	r24, 0x68	; 104
    115a:	0e 94 46 04 	call	0x88c	; 0x88c <I2C_write_byte>
	I2C_write_byte(MPU6050_ADDRESS, USER_CTRL, 0x00);    // Disable FIFO and I2C master modes
    115e:	40 e0       	ldi	r20, 0x00	; 0
    1160:	6a e6       	ldi	r22, 0x6A	; 106
    1162:	88 e6       	ldi	r24, 0x68	; 104
    1164:	0e 94 46 04 	call	0x88c	; 0x88c <I2C_write_byte>
	I2C_write_byte(MPU6050_ADDRESS, USER_CTRL, 0x0C);    // Reset FIFO and DMP
    1168:	4c e0       	ldi	r20, 0x0C	; 12
    116a:	6a e6       	ldi	r22, 0x6A	; 106
    116c:	88 e6       	ldi	r24, 0x68	; 104
    116e:	0e 94 46 04 	call	0x88c	; 0x88c <I2C_write_byte>
    1172:	8f e5       	ldi	r24, 0x5F	; 95
    1174:	9a ee       	ldi	r25, 0xEA	; 234
    1176:	01 97       	sbiw	r24, 0x01	; 1
    1178:	f1 f7       	brne	.-4      	; 0x1176 <InitMPU6050+0x82>
    117a:	00 c0       	rjmp	.+0      	; 0x117c <InitMPU6050+0x88>
    117c:	00 00       	nop
	_delay_ms(15);

	// Configure MPU6050 gyro and accelerometer for bias calculation
	uint8_t fs = 1000 / MPU6050_FS;
	I2C_write_byte(MPU6050_ADDRESS, CONFIG, 0x03);       // Set low-pass filter to 44 Hz
    117e:	43 e0       	ldi	r20, 0x03	; 3
    1180:	6a e1       	ldi	r22, 0x1A	; 26
    1182:	88 e6       	ldi	r24, 0x68	; 104
    1184:	0e 94 46 04 	call	0x88c	; 0x88c <I2C_write_byte>
	I2C_write_byte(MPU6050_ADDRESS, SMPLRT_DIV, MPU6050_TIMING);	 // Set sample rate to be set in common.h
    1188:	44 e0       	ldi	r20, 0x04	; 4
    118a:	69 e1       	ldi	r22, 0x19	; 25
    118c:	88 e6       	ldi	r24, 0x68	; 104
    118e:	0e 94 46 04 	call	0x88c	; 0x88c <I2C_write_byte>
	I2C_write_byte(MPU6050_ADDRESS, GYRO_CONFIG, 0x08);  // Set gyro full-scale to 500 degrees per second - MPU6050_LSB
    1192:	48 e0       	ldi	r20, 0x08	; 8
    1194:	6b e1       	ldi	r22, 0x1B	; 27
    1196:	88 e6       	ldi	r24, 0x68	; 104
    1198:	0e 94 46 04 	call	0x88c	; 0x88c <I2C_write_byte>
	I2C_write_byte(MPU6050_ADDRESS, ACCEL_CONFIG, 0x00); // Set accelerometer full-scale to 2 g, maximum sensitivity
    119c:	40 e0       	ldi	r20, 0x00	; 0
    119e:	6c e1       	ldi	r22, 0x1C	; 28
    11a0:	88 e6       	ldi	r24, 0x68	; 104
    11a2:	0e 94 46 04 	call	0x88c	; 0x88c <I2C_write_byte>

	I2C_write_byte(MPU6050_ADDRESS, USER_CTRL, 0x40);   // Enable FIFO
    11a6:	40 e4       	ldi	r20, 0x40	; 64
    11a8:	6a e6       	ldi	r22, 0x6A	; 106
    11aa:	88 e6       	ldi	r24, 0x68	; 104
    11ac:	0e 94 46 04 	call	0x88c	; 0x88c <I2C_write_byte>
	I2C_write_byte(MPU6050_ADDRESS, FIFO_EN, 0x78);     // Enable gyro and accelerometer sensors for FIFO  (max size 1024 bytes in MPU-6050)
    11b0:	48 e7       	ldi	r20, 0x78	; 120
    11b2:	63 e2       	ldi	r22, 0x23	; 35
    11b4:	88 e6       	ldi	r24, 0x68	; 104
    11b6:	0e 94 46 04 	call	0x88c	; 0x88c <I2C_write_byte>
    11ba:	08 95       	ret

000011bc <ReadMPU6050>:
}

void ReadMPU6050(void)
{
    11bc:	6f 92       	push	r6
    11be:	7f 92       	push	r7
    11c0:	9f 92       	push	r9
    11c2:	af 92       	push	r10
    11c4:	bf 92       	push	r11
    11c6:	cf 92       	push	r12
    11c8:	df 92       	push	r13
    11ca:	ef 92       	push	r14
    11cc:	ff 92       	push	r15
    11ce:	0f 93       	push	r16
    11d0:	1f 93       	push	r17
    11d2:	cf 93       	push	r28
    11d4:	df 93       	push	r29
    11d6:	cd b7       	in	r28, 0x3d	; 61
    11d8:	de b7       	in	r29, 0x3e	; 62
    11da:	68 97       	sbiw	r28, 0x18	; 24
    11dc:	0f b6       	in	r0, 0x3f	; 63
    11de:	f8 94       	cli
    11e0:	de bf       	out	0x3e, r29	; 62
    11e2:	0f be       	out	0x3f, r0	; 63
    11e4:	cd bf       	out	0x3d, r28	; 61
	uint8_t i, fifo_count, packet_count;
	uint8_t data[12];
	int16_t gyro[3];
	int16_t acc[3];

	I2C_read_buf(MPU6050_ADDRESS, FIFO_COUNTH, 2, &data[0]); // read FIFO sample count
    11e6:	9e 01       	movw	r18, r28
    11e8:	2f 5f       	subi	r18, 0xFF	; 255
    11ea:	3f 4f       	sbci	r19, 0xFF	; 255
    11ec:	42 e0       	ldi	r20, 0x02	; 2
    11ee:	62 e7       	ldi	r22, 0x72	; 114
    11f0:	88 e6       	ldi	r24, 0x68	; 104
    11f2:	0e 94 5e 04 	call	0x8bc	; 0x8bc <I2C_read_buf>
	fifo_count = ((uint16_t)data[0] << 8) | data[1];
	packet_count = fifo_count/12;// How many sets of full gyro and accelerometer data for averaging
    11f6:	8a 81       	ldd	r24, Y+2	; 0x02
    11f8:	9b ea       	ldi	r25, 0xAB	; 171
    11fa:	89 9f       	mul	r24, r25
    11fc:	c1 2c       	mov	r12, r1
    11fe:	11 24       	eor	r1, r1
    1200:	c6 94       	lsr	r12
    1202:	c6 94       	lsr	r12
    1204:	c6 94       	lsr	r12

	for (i = 0; i < packet_count; i++)
    1206:	09 f4       	brne	.+2      	; 0x120a <ReadMPU6050+0x4e>
    1208:	6c c0       	rjmp	.+216    	; 0x12e2 <ReadMPU6050+0x126>
    120a:	d1 2c       	mov	r13, r1
		acc[2] = (int16_t) (((int16_t)data[4] << 8)  | data[5] ) ;
		gyro[0]  = (int16_t) (((int16_t)data[6] << 8)  | data[7] ) ;
		gyro[1]  = (int16_t) (((int16_t)data[8] << 8)  | data[9] ) ;
		gyro[2]  = (int16_t) (((int16_t)data[10] << 8) | data[11]) ;
			
		acc[0] -= acc_offset[0];
    120c:	0f 2e       	mov	r0, r31
    120e:	f8 ec       	ldi	r31, 0xC8	; 200
    1210:	ef 2e       	mov	r14, r31
    1212:	f2 e0       	ldi	r31, 0x02	; 2
    1214:	ff 2e       	mov	r15, r31
    1216:	f0 2d       	mov	r31, r0
		acc[1] -= acc_offset[1];
		acc[2] -= acc_offset[2];
		gyro[0] -= gyro_offset[0];
    1218:	05 ed       	ldi	r16, 0xD5	; 213
    121a:	12 e0       	ldi	r17, 0x02	; 2
	fifo_count = ((uint16_t)data[0] << 8) | data[1];
	packet_count = fifo_count/12;// How many sets of full gyro and accelerometer data for averaging

	for (i = 0; i < packet_count; i++)
	{
		I2C_read_buf(MPU6050_ADDRESS, FIFO_R_W, 12, &data[0]); // read data for averaging
    121c:	9e 01       	movw	r18, r28
    121e:	2f 5f       	subi	r18, 0xFF	; 255
    1220:	3f 4f       	sbci	r19, 0xFF	; 255
    1222:	4c e0       	ldi	r20, 0x0C	; 12
    1224:	64 e7       	ldi	r22, 0x74	; 116
    1226:	88 e6       	ldi	r24, 0x68	; 104
    1228:	0e 94 5e 04 	call	0x8bc	; 0x8bc <I2C_read_buf>
		acc[0] = (int16_t) (((int16_t)data[0] << 8)  | data[1] ) ;  // Form signed 16-bit integer for each sample in FIFO
		acc[1] = (int16_t) (((int16_t)data[2] << 8)  | data[3] ) ;
    122c:	eb 81       	ldd	r30, Y+3	; 0x03
    122e:	f0 e0       	ldi	r31, 0x00	; 0
    1230:	fe 2f       	mov	r31, r30
    1232:	ee 27       	eor	r30, r30
    1234:	8c 81       	ldd	r24, Y+4	; 0x04
    1236:	3f 01       	movw	r6, r30
    1238:	68 2a       	or	r6, r24
		acc[2] = (int16_t) (((int16_t)data[4] << 8)  | data[5] ) ;
    123a:	6d 81       	ldd	r22, Y+5	; 0x05
    123c:	70 e0       	ldi	r23, 0x00	; 0
    123e:	76 2f       	mov	r23, r22
    1240:	66 27       	eor	r22, r22
    1242:	8e 81       	ldd	r24, Y+6	; 0x06
    1244:	68 2b       	or	r22, r24
		gyro[0]  = (int16_t) (((int16_t)data[6] << 8)  | data[7] ) ;
    1246:	4f 81       	ldd	r20, Y+7	; 0x07
    1248:	50 e0       	ldi	r21, 0x00	; 0
    124a:	54 2f       	mov	r21, r20
    124c:	44 27       	eor	r20, r20
    124e:	88 85       	ldd	r24, Y+8	; 0x08
    1250:	48 2b       	or	r20, r24
		gyro[1]  = (int16_t) (((int16_t)data[8] << 8)  | data[9] ) ;
    1252:	29 85       	ldd	r18, Y+9	; 0x09
    1254:	30 e0       	ldi	r19, 0x00	; 0
    1256:	32 2f       	mov	r19, r18
    1258:	22 27       	eor	r18, r18
    125a:	8a 85       	ldd	r24, Y+10	; 0x0a
    125c:	28 2b       	or	r18, r24
		gyro[2]  = (int16_t) (((int16_t)data[10] << 8) | data[11]) ;
    125e:	8b 85       	ldd	r24, Y+11	; 0x0b
    1260:	90 e0       	ldi	r25, 0x00	; 0
    1262:	98 2f       	mov	r25, r24
    1264:	88 27       	eor	r24, r24
    1266:	ac 85       	ldd	r26, Y+12	; 0x0c
    1268:	8a 2b       	or	r24, r26
			
		acc[0] -= acc_offset[0];
    126a:	d7 01       	movw	r26, r14
    126c:	ad 90       	ld	r10, X+
    126e:	bc 90       	ld	r11, X
    1270:	a9 81       	ldd	r26, Y+1	; 0x01
    1272:	b0 e0       	ldi	r27, 0x00	; 0
    1274:	ba 2f       	mov	r27, r26
    1276:	aa 27       	eor	r26, r26
    1278:	9a 80       	ldd	r9, Y+2	; 0x02
    127a:	a9 29       	or	r26, r9
    127c:	aa 19       	sub	r26, r10
    127e:	bb 09       	sbc	r27, r11
    1280:	bc 8b       	std	Y+20, r27	; 0x14
    1282:	ab 8b       	std	Y+19, r26	; 0x13
		acc[1] -= acc_offset[1];
    1284:	f7 01       	movw	r30, r14
    1286:	a2 81       	ldd	r26, Z+2	; 0x02
    1288:	b3 81       	ldd	r27, Z+3	; 0x03
    128a:	f3 01       	movw	r30, r6
    128c:	ea 1b       	sub	r30, r26
    128e:	fb 0b       	sbc	r31, r27
    1290:	fe 8b       	std	Y+22, r31	; 0x16
    1292:	ed 8b       	std	Y+21, r30	; 0x15
		acc[2] -= acc_offset[2];
    1294:	d7 01       	movw	r26, r14
    1296:	14 96       	adiw	r26, 0x04	; 4
    1298:	ed 91       	ld	r30, X+
    129a:	fc 91       	ld	r31, X
    129c:	15 97       	sbiw	r26, 0x05	; 5
    129e:	6e 1b       	sub	r22, r30
    12a0:	7f 0b       	sbc	r23, r31
    12a2:	78 8f       	std	Y+24, r23	; 0x18
    12a4:	6f 8b       	std	Y+23, r22	; 0x17
		gyro[0] -= gyro_offset[0];
    12a6:	f8 01       	movw	r30, r16
    12a8:	60 81       	ld	r22, Z
    12aa:	71 81       	ldd	r23, Z+1	; 0x01
    12ac:	46 1b       	sub	r20, r22
    12ae:	57 0b       	sbc	r21, r23
    12b0:	5e 87       	std	Y+14, r21	; 0x0e
    12b2:	4d 87       	std	Y+13, r20	; 0x0d
		gyro[1] -= gyro_offset[1];
    12b4:	42 81       	ldd	r20, Z+2	; 0x02
    12b6:	53 81       	ldd	r21, Z+3	; 0x03
    12b8:	24 1b       	sub	r18, r20
    12ba:	35 0b       	sbc	r19, r21
    12bc:	38 8b       	std	Y+16, r19	; 0x10
    12be:	2f 87       	std	Y+15, r18	; 0x0f
		gyro[2] -= gyro_offset[2];
    12c0:	24 81       	ldd	r18, Z+4	; 0x04
    12c2:	35 81       	ldd	r19, Z+5	; 0x05
    12c4:	82 1b       	sub	r24, r18
    12c6:	93 0b       	sbc	r25, r19
    12c8:	9a 8b       	std	Y+18, r25	; 0x12
    12ca:	89 8b       	std	Y+17, r24	; 0x11

		PlaceInGyroBuffor(gyro);
    12cc:	ce 01       	movw	r24, r28
    12ce:	0d 96       	adiw	r24, 0x0d	; 13
    12d0:	0e 94 d0 00 	call	0x1a0	; 0x1a0 <PlaceInGyroBuffor>
		PlaceInAccBuffor(acc);
    12d4:	ce 01       	movw	r24, r28
    12d6:	43 96       	adiw	r24, 0x13	; 19
    12d8:	0e 94 04 01 	call	0x208	; 0x208 <PlaceInAccBuffor>

	I2C_read_buf(MPU6050_ADDRESS, FIFO_COUNTH, 2, &data[0]); // read FIFO sample count
	fifo_count = ((uint16_t)data[0] << 8) | data[1];
	packet_count = fifo_count/12;// How many sets of full gyro and accelerometer data for averaging

	for (i = 0; i < packet_count; i++)
    12dc:	d3 94       	inc	r13
    12de:	cd 10       	cpse	r12, r13
    12e0:	9d cf       	rjmp	.-198    	; 0x121c <ReadMPU6050+0x60>
		gyro[2] -= gyro_offset[2];

		PlaceInGyroBuffor(gyro);
		PlaceInAccBuffor(acc);
	}
    12e2:	68 96       	adiw	r28, 0x18	; 24
    12e4:	0f b6       	in	r0, 0x3f	; 63
    12e6:	f8 94       	cli
    12e8:	de bf       	out	0x3e, r29	; 62
    12ea:	0f be       	out	0x3f, r0	; 63
    12ec:	cd bf       	out	0x3d, r28	; 61
    12ee:	df 91       	pop	r29
    12f0:	cf 91       	pop	r28
    12f2:	1f 91       	pop	r17
    12f4:	0f 91       	pop	r16
    12f6:	ff 90       	pop	r15
    12f8:	ef 90       	pop	r14
    12fa:	df 90       	pop	r13
    12fc:	cf 90       	pop	r12
    12fe:	bf 90       	pop	r11
    1300:	af 90       	pop	r10
    1302:	9f 90       	pop	r9
    1304:	7f 90       	pop	r7
    1306:	6f 90       	pop	r6
    1308:	08 95       	ret

0000130a <Sbus_process_buffor>:
	for(uint8_t i=0; i<SBUS_BUFFOR_SIZE; i++)
	{
		SendChar(Sbus_Buffor[i]);
	}
	SendEnter();
}
    130a:	80 91 59 03 	lds	r24, 0x0359	; 0x800359 <Sbus_Buffor>
    130e:	8f 30       	cpi	r24, 0x0F	; 15
    1310:	09 f0       	breq	.+2      	; 0x1314 <Sbus_process_buffor+0xa>
    1312:	13 c1       	rjmp	.+550    	; 0x153a <Sbus_process_buffor+0x230>
    1314:	80 91 71 03 	lds	r24, 0x0371	; 0x800371 <Sbus_Buffor+0x18>
    1318:	81 11       	cpse	r24, r1
    131a:	0f c1       	rjmp	.+542    	; 0x153a <Sbus_process_buffor+0x230>
    131c:	80 91 58 03 	lds	r24, 0x0358	; 0x800358 <sbus_position>
    1320:	88 31       	cpi	r24, 0x18	; 24
    1322:	09 f0       	breq	.+2      	; 0x1326 <Sbus_process_buffor+0x1c>
    1324:	0a c1       	rjmp	.+532    	; 0x153a <Sbus_process_buffor+0x230>
    1326:	e9 e5       	ldi	r30, 0x59	; 89
    1328:	f3 e0       	ldi	r31, 0x03	; 3
    132a:	81 81       	ldd	r24, Z+1	; 0x01
    132c:	22 81       	ldd	r18, Z+2	; 0x02
    132e:	90 e0       	ldi	r25, 0x00	; 0
    1330:	92 2b       	or	r25, r18
    1332:	97 70       	andi	r25, 0x07	; 7
    1334:	a6 e3       	ldi	r26, 0x36	; 54
    1336:	b3 e0       	ldi	r27, 0x03	; 3
    1338:	13 96       	adiw	r26, 0x03	; 3
    133a:	9c 93       	st	X, r25
    133c:	8e 93       	st	-X, r24
    133e:	12 97       	sbiw	r26, 0x02	; 2
    1340:	22 81       	ldd	r18, Z+2	; 0x02
    1342:	83 81       	ldd	r24, Z+3	; 0x03
    1344:	26 95       	lsr	r18
    1346:	26 95       	lsr	r18
    1348:	26 95       	lsr	r18
    134a:	30 e2       	ldi	r19, 0x20	; 32
    134c:	83 9f       	mul	r24, r19
    134e:	c0 01       	movw	r24, r0
    1350:	11 24       	eor	r1, r1
    1352:	82 2b       	or	r24, r18
    1354:	97 70       	andi	r25, 0x07	; 7
    1356:	15 96       	adiw	r26, 0x05	; 5
    1358:	9c 93       	st	X, r25
    135a:	8e 93       	st	-X, r24
    135c:	14 97       	sbiw	r26, 0x04	; 4
    135e:	93 81       	ldd	r25, Z+3	; 0x03
    1360:	24 81       	ldd	r18, Z+4	; 0x04
    1362:	85 81       	ldd	r24, Z+5	; 0x05
    1364:	92 95       	swap	r25
    1366:	96 95       	lsr	r25
    1368:	96 95       	lsr	r25
    136a:	93 70       	andi	r25, 0x03	; 3
    136c:	30 e0       	ldi	r19, 0x00	; 0
    136e:	22 0f       	add	r18, r18
    1370:	33 1f       	adc	r19, r19
    1372:	22 0f       	add	r18, r18
    1374:	33 1f       	adc	r19, r19
    1376:	29 2b       	or	r18, r25
    1378:	90 e0       	ldi	r25, 0x00	; 0
    137a:	98 2f       	mov	r25, r24
    137c:	88 27       	eor	r24, r24
    137e:	99 0f       	add	r25, r25
    1380:	99 0f       	add	r25, r25
    1382:	82 2b       	or	r24, r18
    1384:	93 2b       	or	r25, r19
    1386:	97 70       	andi	r25, 0x07	; 7
    1388:	17 96       	adiw	r26, 0x07	; 7
    138a:	9c 93       	st	X, r25
    138c:	8e 93       	st	-X, r24
    138e:	16 97       	sbiw	r26, 0x06	; 6
    1390:	25 81       	ldd	r18, Z+5	; 0x05
    1392:	86 81       	ldd	r24, Z+6	; 0x06
    1394:	26 95       	lsr	r18
    1396:	30 e8       	ldi	r19, 0x80	; 128
    1398:	83 9f       	mul	r24, r19
    139a:	c0 01       	movw	r24, r0
    139c:	11 24       	eor	r1, r1
    139e:	82 2b       	or	r24, r18
    13a0:	97 70       	andi	r25, 0x07	; 7
    13a2:	19 96       	adiw	r26, 0x09	; 9
    13a4:	9c 93       	st	X, r25
    13a6:	8e 93       	st	-X, r24
    13a8:	18 97       	sbiw	r26, 0x08	; 8
    13aa:	26 81       	ldd	r18, Z+6	; 0x06
    13ac:	87 81       	ldd	r24, Z+7	; 0x07
    13ae:	22 95       	swap	r18
    13b0:	2f 70       	andi	r18, 0x0F	; 15
    13b2:	30 e1       	ldi	r19, 0x10	; 16
    13b4:	83 9f       	mul	r24, r19
    13b6:	c0 01       	movw	r24, r0
    13b8:	11 24       	eor	r1, r1
    13ba:	82 2b       	or	r24, r18
    13bc:	97 70       	andi	r25, 0x07	; 7
    13be:	1b 96       	adiw	r26, 0x0b	; 11
    13c0:	9c 93       	st	X, r25
    13c2:	8e 93       	st	-X, r24
    13c4:	1a 97       	sbiw	r26, 0x0a	; 10
    13c6:	97 81       	ldd	r25, Z+7	; 0x07
    13c8:	20 85       	ldd	r18, Z+8	; 0x08
    13ca:	81 85       	ldd	r24, Z+9	; 0x09
    13cc:	99 1f       	adc	r25, r25
    13ce:	99 27       	eor	r25, r25
    13d0:	99 1f       	adc	r25, r25
    13d2:	30 e0       	ldi	r19, 0x00	; 0
    13d4:	22 0f       	add	r18, r18
    13d6:	33 1f       	adc	r19, r19
    13d8:	29 2b       	or	r18, r25
    13da:	90 e0       	ldi	r25, 0x00	; 0
    13dc:	98 2f       	mov	r25, r24
    13de:	88 27       	eor	r24, r24
    13e0:	99 0f       	add	r25, r25
    13e2:	82 2b       	or	r24, r18
    13e4:	93 2b       	or	r25, r19
    13e6:	97 70       	andi	r25, 0x07	; 7
    13e8:	1d 96       	adiw	r26, 0x0d	; 13
    13ea:	9c 93       	st	X, r25
    13ec:	8e 93       	st	-X, r24
    13ee:	1c 97       	sbiw	r26, 0x0c	; 12
    13f0:	21 85       	ldd	r18, Z+9	; 0x09
    13f2:	82 85       	ldd	r24, Z+10	; 0x0a
    13f4:	26 95       	lsr	r18
    13f6:	26 95       	lsr	r18
    13f8:	30 e4       	ldi	r19, 0x40	; 64
    13fa:	83 9f       	mul	r24, r19
    13fc:	c0 01       	movw	r24, r0
    13fe:	11 24       	eor	r1, r1
    1400:	82 2b       	or	r24, r18
    1402:	97 70       	andi	r25, 0x07	; 7
    1404:	1f 96       	adiw	r26, 0x0f	; 15
    1406:	9c 93       	st	X, r25
    1408:	8e 93       	st	-X, r24
    140a:	1e 97       	sbiw	r26, 0x0e	; 14
    140c:	22 85       	ldd	r18, Z+10	; 0x0a
    140e:	83 85       	ldd	r24, Z+11	; 0x0b
    1410:	22 95       	swap	r18
    1412:	26 95       	lsr	r18
    1414:	27 70       	andi	r18, 0x07	; 7
    1416:	90 e0       	ldi	r25, 0x00	; 0
    1418:	88 0f       	add	r24, r24
    141a:	99 1f       	adc	r25, r25
    141c:	88 0f       	add	r24, r24
    141e:	99 1f       	adc	r25, r25
    1420:	88 0f       	add	r24, r24
    1422:	99 1f       	adc	r25, r25
    1424:	82 2b       	or	r24, r18
    1426:	51 96       	adiw	r26, 0x11	; 17
    1428:	9c 93       	st	X, r25
    142a:	8e 93       	st	-X, r24
    142c:	50 97       	sbiw	r26, 0x10	; 16
    142e:	84 85       	ldd	r24, Z+12	; 0x0c
    1430:	25 85       	ldd	r18, Z+13	; 0x0d
    1432:	90 e0       	ldi	r25, 0x00	; 0
    1434:	92 2b       	or	r25, r18
    1436:	97 70       	andi	r25, 0x07	; 7
    1438:	53 96       	adiw	r26, 0x13	; 19
    143a:	9c 93       	st	X, r25
    143c:	8e 93       	st	-X, r24
    143e:	52 97       	sbiw	r26, 0x12	; 18
    1440:	25 85       	ldd	r18, Z+13	; 0x0d
    1442:	86 85       	ldd	r24, Z+14	; 0x0e
    1444:	26 95       	lsr	r18
    1446:	26 95       	lsr	r18
    1448:	26 95       	lsr	r18
    144a:	30 e2       	ldi	r19, 0x20	; 32
    144c:	83 9f       	mul	r24, r19
    144e:	c0 01       	movw	r24, r0
    1450:	11 24       	eor	r1, r1
    1452:	82 2b       	or	r24, r18
    1454:	97 70       	andi	r25, 0x07	; 7
    1456:	55 96       	adiw	r26, 0x15	; 21
    1458:	9c 93       	st	X, r25
    145a:	8e 93       	st	-X, r24
    145c:	54 97       	sbiw	r26, 0x14	; 20
    145e:	96 85       	ldd	r25, Z+14	; 0x0e
    1460:	27 85       	ldd	r18, Z+15	; 0x0f
    1462:	80 89       	ldd	r24, Z+16	; 0x10
    1464:	92 95       	swap	r25
    1466:	96 95       	lsr	r25
    1468:	96 95       	lsr	r25
    146a:	93 70       	andi	r25, 0x03	; 3
    146c:	30 e0       	ldi	r19, 0x00	; 0
    146e:	22 0f       	add	r18, r18
    1470:	33 1f       	adc	r19, r19
    1472:	22 0f       	add	r18, r18
    1474:	33 1f       	adc	r19, r19
    1476:	29 2b       	or	r18, r25
    1478:	90 e0       	ldi	r25, 0x00	; 0
    147a:	98 2f       	mov	r25, r24
    147c:	88 27       	eor	r24, r24
    147e:	99 0f       	add	r25, r25
    1480:	99 0f       	add	r25, r25
    1482:	82 2b       	or	r24, r18
    1484:	93 2b       	or	r25, r19
    1486:	97 70       	andi	r25, 0x07	; 7
    1488:	57 96       	adiw	r26, 0x17	; 23
    148a:	9c 93       	st	X, r25
    148c:	8e 93       	st	-X, r24
    148e:	56 97       	sbiw	r26, 0x16	; 22
    1490:	20 89       	ldd	r18, Z+16	; 0x10
    1492:	81 89       	ldd	r24, Z+17	; 0x11
    1494:	26 95       	lsr	r18
    1496:	30 e8       	ldi	r19, 0x80	; 128
    1498:	83 9f       	mul	r24, r19
    149a:	c0 01       	movw	r24, r0
    149c:	11 24       	eor	r1, r1
    149e:	82 2b       	or	r24, r18
    14a0:	97 70       	andi	r25, 0x07	; 7
    14a2:	59 96       	adiw	r26, 0x19	; 25
    14a4:	9c 93       	st	X, r25
    14a6:	8e 93       	st	-X, r24
    14a8:	58 97       	sbiw	r26, 0x18	; 24
    14aa:	21 89       	ldd	r18, Z+17	; 0x11
    14ac:	82 89       	ldd	r24, Z+18	; 0x12
    14ae:	22 95       	swap	r18
    14b0:	2f 70       	andi	r18, 0x0F	; 15
    14b2:	30 e1       	ldi	r19, 0x10	; 16
    14b4:	83 9f       	mul	r24, r19
    14b6:	c0 01       	movw	r24, r0
    14b8:	11 24       	eor	r1, r1
    14ba:	82 2b       	or	r24, r18
    14bc:	97 70       	andi	r25, 0x07	; 7
    14be:	5b 96       	adiw	r26, 0x1b	; 27
    14c0:	9c 93       	st	X, r25
    14c2:	8e 93       	st	-X, r24
    14c4:	5a 97       	sbiw	r26, 0x1a	; 26
    14c6:	92 89       	ldd	r25, Z+18	; 0x12
    14c8:	23 89       	ldd	r18, Z+19	; 0x13
    14ca:	84 89       	ldd	r24, Z+20	; 0x14
    14cc:	99 1f       	adc	r25, r25
    14ce:	99 27       	eor	r25, r25
    14d0:	99 1f       	adc	r25, r25
    14d2:	30 e0       	ldi	r19, 0x00	; 0
    14d4:	22 0f       	add	r18, r18
    14d6:	33 1f       	adc	r19, r19
    14d8:	29 2b       	or	r18, r25
    14da:	90 e0       	ldi	r25, 0x00	; 0
    14dc:	98 2f       	mov	r25, r24
    14de:	88 27       	eor	r24, r24
    14e0:	99 0f       	add	r25, r25
    14e2:	82 2b       	or	r24, r18
    14e4:	93 2b       	or	r25, r19
    14e6:	97 70       	andi	r25, 0x07	; 7
    14e8:	5d 96       	adiw	r26, 0x1d	; 29
    14ea:	9c 93       	st	X, r25
    14ec:	8e 93       	st	-X, r24
    14ee:	5c 97       	sbiw	r26, 0x1c	; 28
    14f0:	24 89       	ldd	r18, Z+20	; 0x14
    14f2:	85 89       	ldd	r24, Z+21	; 0x15
    14f4:	26 95       	lsr	r18
    14f6:	26 95       	lsr	r18
    14f8:	30 e4       	ldi	r19, 0x40	; 64
    14fa:	83 9f       	mul	r24, r19
    14fc:	c0 01       	movw	r24, r0
    14fe:	11 24       	eor	r1, r1
    1500:	82 2b       	or	r24, r18
    1502:	97 70       	andi	r25, 0x07	; 7
    1504:	5f 96       	adiw	r26, 0x1f	; 31
    1506:	9c 93       	st	X, r25
    1508:	8e 93       	st	-X, r24
    150a:	5e 97       	sbiw	r26, 0x1e	; 30
    150c:	25 89       	ldd	r18, Z+21	; 0x15
    150e:	86 89       	ldd	r24, Z+22	; 0x16
    1510:	22 95       	swap	r18
    1512:	26 95       	lsr	r18
    1514:	27 70       	andi	r18, 0x07	; 7
    1516:	90 e0       	ldi	r25, 0x00	; 0
    1518:	88 0f       	add	r24, r24
    151a:	99 1f       	adc	r25, r25
    151c:	88 0f       	add	r24, r24
    151e:	99 1f       	adc	r25, r25
    1520:	88 0f       	add	r24, r24
    1522:	99 1f       	adc	r25, r25
    1524:	82 2b       	or	r24, r18
    1526:	91 96       	adiw	r26, 0x21	; 33
    1528:	9c 93       	st	X, r25
    152a:	8e 93       	st	-X, r24
    152c:	90 97       	sbiw	r26, 0x20	; 32
    152e:	87 89       	ldd	r24, Z+23	; 0x17
    1530:	90 e0       	ldi	r25, 0x00	; 0
    1532:	11 96       	adiw	r26, 0x01	; 1
    1534:	9c 93       	st	X, r25
    1536:	8e 93       	st	-X, r24
    1538:	2d c0       	rjmp	.+90     	; 0x1594 <Sbus_process_buffor+0x28a>
    153a:	80 91 59 03 	lds	r24, 0x0359	; 0x800359 <Sbus_Buffor>
    153e:	8f 30       	cpi	r24, 0x0F	; 15
    1540:	21 f0       	breq	.+8      	; 0x154a <Sbus_process_buffor+0x240>
    1542:	86 e2       	ldi	r24, 0x26	; 38
    1544:	91 e0       	ldi	r25, 0x01	; 1
    1546:	0e 94 99 11 	call	0x2332	; 0x2332 <SendLine>
    154a:	80 91 71 03 	lds	r24, 0x0371	; 0x800371 <Sbus_Buffor+0x18>
    154e:	88 23       	and	r24, r24
    1550:	21 f0       	breq	.+8      	; 0x155a <Sbus_process_buffor+0x250>
    1552:	87 e3       	ldi	r24, 0x37	; 55
    1554:	91 e0       	ldi	r25, 0x01	; 1
    1556:	0e 94 99 11 	call	0x2332	; 0x2332 <SendLine>
    155a:	80 91 58 03 	lds	r24, 0x0358	; 0x800358 <sbus_position>
    155e:	88 31       	cpi	r24, 0x18	; 24
    1560:	c9 f0       	breq	.+50     	; 0x1594 <Sbus_process_buffor+0x28a>
    1562:	60 91 58 03 	lds	r22, 0x0358	; 0x800358 <sbus_position>
    1566:	70 e0       	ldi	r23, 0x00	; 0
    1568:	88 e4       	ldi	r24, 0x48	; 72
    156a:	91 e0       	ldi	r25, 0x01	; 1
    156c:	0e 94 51 13 	call	0x26a2	; 0x26a2 <SendStringUint>
    1570:	11 c0       	rjmp	.+34     	; 0x1594 <Sbus_process_buffor+0x28a>
    1572:	fc 01       	movw	r30, r24
    1574:	e7 5a       	subi	r30, 0xA7	; 167
    1576:	fc 4f       	sbci	r31, 0xFC	; 252
    1578:	20 83       	st	Z, r18
    157a:	01 96       	adiw	r24, 0x01	; 1
    157c:	8a 31       	cpi	r24, 0x1A	; 26
    157e:	91 05       	cpc	r25, r1
    1580:	c1 f7       	brne	.-16     	; 0x1572 <Sbus_process_buffor+0x268>
    1582:	8f ef       	ldi	r24, 0xFF	; 255
    1584:	9f ef       	ldi	r25, 0xFF	; 255
    1586:	90 93 03 01 	sts	0x0103, r25	; 0x800103 <sbus_buffor_process_counter+0x1>
    158a:	80 93 02 01 	sts	0x0102, r24	; 0x800102 <sbus_buffor_process_counter>
    158e:	80 93 58 03 	sts	0x0358, r24	; 0x800358 <sbus_position>
    1592:	08 95       	ret
    1594:	80 e0       	ldi	r24, 0x00	; 0
    1596:	90 e0       	ldi	r25, 0x00	; 0
    1598:	2f ef       	ldi	r18, 0xFF	; 255
    159a:	eb cf       	rjmp	.-42     	; 0x1572 <Sbus_process_buffor+0x268>

0000159c <InitUartSBUS>:
    159c:	ea ec       	ldi	r30, 0xCA	; 202
    159e:	f0 e0       	ldi	r31, 0x00	; 0
    15a0:	80 81       	ld	r24, Z
    15a2:	88 61       	ori	r24, 0x18	; 24
    15a4:	80 83       	st	Z, r24
    15a6:	89 e0       	ldi	r24, 0x09	; 9
    15a8:	90 e0       	ldi	r25, 0x00	; 0
    15aa:	90 93 cd 00 	sts	0x00CD, r25	; 0x8000cd <__TEXT_REGION_LENGTH__+0x7e00cd>
    15ae:	80 93 cc 00 	sts	0x00CC, r24	; 0x8000cc <__TEXT_REGION_LENGTH__+0x7e00cc>
    15b2:	80 e9       	ldi	r24, 0x90	; 144
    15b4:	80 93 c9 00 	sts	0x00C9, r24	; 0x8000c9 <__TEXT_REGION_LENGTH__+0x7e00c9>
    15b8:	80 e5       	ldi	r24, 0x50	; 80
    15ba:	91 e0       	ldi	r25, 0x01	; 1
    15bc:	0e 94 99 11 	call	0x2332	; 0x2332 <SendLine>
    15c0:	08 95       	ret

000015c2 <__vector_28>:

ISR (USART1_RX_vect)	//COM Rx
{
    15c2:	1f 92       	push	r1
    15c4:	0f 92       	push	r0
    15c6:	0f b6       	in	r0, 0x3f	; 63
    15c8:	0f 92       	push	r0
    15ca:	11 24       	eor	r1, r1
    15cc:	8f 93       	push	r24
    15ce:	9f 93       	push	r25
    15d0:	ef 93       	push	r30
    15d2:	ff 93       	push	r31
	uint8_t x = UDR1;
    15d4:	80 91 ce 00 	lds	r24, 0x00CE	; 0x8000ce <__TEXT_REGION_LENGTH__+0x7e00ce>

	if (x == 0b00001111 && sbus_last_frame_counter > 3)	//first frame procedure
    15d8:	8f 30       	cpi	r24, 0x0F	; 15
    15da:	a9 f4       	brne	.+42     	; 0x1606 <__vector_28+0x44>
    15dc:	90 91 00 01 	lds	r25, 0x0100	; 0x800100 <__data_start>
    15e0:	94 30       	cpi	r25, 0x04	; 4
    15e2:	88 f0       	brcs	.+34     	; 0x1606 <__vector_28+0x44>
	{
		sbus_position = 0;
    15e4:	10 92 58 03 	sts	0x0358, r1	; 0x800358 <sbus_position>
		Sbus_Buffor[sbus_position] = x;
    15e8:	e0 91 58 03 	lds	r30, 0x0358	; 0x800358 <sbus_position>
    15ec:	f0 e0       	ldi	r31, 0x00	; 0
    15ee:	e7 5a       	subi	r30, 0xA7	; 167
    15f0:	fc 4f       	sbci	r31, 0xFC	; 252
    15f2:	80 83       	st	Z, r24
		sbus_buffor_process_counter = 4;
    15f4:	84 e0       	ldi	r24, 0x04	; 4
    15f6:	90 e0       	ldi	r25, 0x00	; 0
    15f8:	90 93 03 01 	sts	0x0103, r25	; 0x800103 <sbus_buffor_process_counter+0x1>
    15fc:	80 93 02 01 	sts	0x0102, r24	; 0x800102 <sbus_buffor_process_counter>
		sbus_buffor_start_counter = 0;
    1600:	10 92 01 01 	sts	0x0101, r1	; 0x800101 <sbus_buffor_start_counter>
    1604:	1f c0       	rjmp	.+62     	; 0x1644 <__vector_28+0x82>
	}
	else if (sbus_position == 24)	//this should never appear, delete obtained buffor
    1606:	90 91 58 03 	lds	r25, 0x0358	; 0x800358 <sbus_position>
    160a:	98 31       	cpi	r25, 0x18	; 24
    160c:	61 f4       	brne	.+24     	; 0x1626 <__vector_28+0x64>
	{
		Sbus_Buffor[sbus_position] = 0xFF;	//frame will be rejected
    160e:	e0 91 58 03 	lds	r30, 0x0358	; 0x800358 <sbus_position>
    1612:	f0 e0       	ldi	r31, 0x00	; 0
    1614:	e7 5a       	subi	r30, 0xA7	; 167
    1616:	fc 4f       	sbci	r31, 0xFC	; 252
    1618:	8f ef       	ldi	r24, 0xFF	; 255
    161a:	80 83       	st	Z, r24
		sbus_buffor_process_counter = 0;
    161c:	10 92 03 01 	sts	0x0103, r1	; 0x800103 <sbus_buffor_process_counter+0x1>
    1620:	10 92 02 01 	sts	0x0102, r1	; 0x800102 <sbus_buffor_process_counter>
    1624:	0f c0       	rjmp	.+30     	; 0x1644 <__vector_28+0x82>
	}

	else if (sbus_position != 0xFF)	//obtain frames
    1626:	90 91 58 03 	lds	r25, 0x0358	; 0x800358 <sbus_position>
    162a:	9f 3f       	cpi	r25, 0xFF	; 255
    162c:	59 f0       	breq	.+22     	; 0x1644 <__vector_28+0x82>
	{
		sbus_position++;
    162e:	90 91 58 03 	lds	r25, 0x0358	; 0x800358 <sbus_position>
    1632:	9f 5f       	subi	r25, 0xFF	; 255
    1634:	90 93 58 03 	sts	0x0358, r25	; 0x800358 <sbus_position>
		Sbus_Buffor[sbus_position] = x;
    1638:	e0 91 58 03 	lds	r30, 0x0358	; 0x800358 <sbus_position>
    163c:	f0 e0       	ldi	r31, 0x00	; 0
    163e:	e7 5a       	subi	r30, 0xA7	; 167
    1640:	fc 4f       	sbci	r31, 0xFC	; 252
    1642:	80 83       	st	Z, r24
	}
	sbus_last_frame_counter = 0;
    1644:	10 92 00 01 	sts	0x0100, r1	; 0x800100 <__data_start>
    1648:	ff 91       	pop	r31
    164a:	ef 91       	pop	r30
    164c:	9f 91       	pop	r25
    164e:	8f 91       	pop	r24
    1650:	0f 90       	pop	r0
    1652:	0f be       	out	0x3f, r0	; 63
    1654:	0f 90       	pop	r0
    1656:	1f 90       	pop	r1
    1658:	18 95       	reti

0000165a <InitTrimming>:



void InitTrimming(void)
{
		eeprom_read_block(&ram_trim, &eem_trim, sizeof(ram_trim));
    165a:	44 e0       	ldi	r20, 0x04	; 4
    165c:	50 e0       	ldi	r21, 0x00	; 0
    165e:	63 e8       	ldi	r22, 0x83	; 131
    1660:	73 e0       	ldi	r23, 0x03	; 3
    1662:	87 e9       	ldi	r24, 0x97	; 151
    1664:	93 e0       	ldi	r25, 0x03	; 3
    1666:	0e 94 d2 19 	call	0x33a4	; 0x33a4 <eeprom_read_block>

		if (ram_trim.pitch == 0xFFFF)
    166a:	80 91 99 03 	lds	r24, 0x0399	; 0x800399 <ram_trim+0x2>
    166e:	90 91 9a 03 	lds	r25, 0x039A	; 0x80039a <ram_trim+0x3>
    1672:	01 96       	adiw	r24, 0x01	; 1
    1674:	81 f4       	brne	.+32     	; 0x1696 <InitTrimming+0x3c>
		{
			SendLine("Pitch trim reset");
    1676:	86 e6       	ldi	r24, 0x66	; 102
    1678:	91 e0       	ldi	r25, 0x01	; 1
    167a:	0e 94 99 11 	call	0x2332	; 0x2332 <SendLine>
			ram_trim.pitch = 0;
    167e:	10 92 9a 03 	sts	0x039A, r1	; 0x80039a <ram_trim+0x3>
    1682:	10 92 99 03 	sts	0x0399, r1	; 0x800399 <ram_trim+0x2>
			eeprom_write_block(&ram_trim.pitch, &eem_trim.pitch, sizeof(ram_trim.pitch));
    1686:	42 e0       	ldi	r20, 0x02	; 2
    1688:	50 e0       	ldi	r21, 0x00	; 0
    168a:	65 e8       	ldi	r22, 0x85	; 133
    168c:	73 e0       	ldi	r23, 0x03	; 3
    168e:	89 e9       	ldi	r24, 0x99	; 153
    1690:	93 e0       	ldi	r25, 0x03	; 3
    1692:	0e 94 e2 19 	call	0x33c4	; 0x33c4 <eeprom_write_block>
		else
		{
//			SendStringUint("Pitch trim already set: ", ram_trim.pitch);
		}

		if (ram_trim.roll == 0xFFFF)
    1696:	80 91 97 03 	lds	r24, 0x0397	; 0x800397 <ram_trim>
    169a:	90 91 98 03 	lds	r25, 0x0398	; 0x800398 <ram_trim+0x1>
    169e:	01 96       	adiw	r24, 0x01	; 1
    16a0:	81 f4       	brne	.+32     	; 0x16c2 <InitTrimming+0x68>
		{
			SendLine("Roll trim reset");
    16a2:	87 e7       	ldi	r24, 0x77	; 119
    16a4:	91 e0       	ldi	r25, 0x01	; 1
    16a6:	0e 94 99 11 	call	0x2332	; 0x2332 <SendLine>
			ram_trim.roll = 0;
    16aa:	10 92 98 03 	sts	0x0398, r1	; 0x800398 <ram_trim+0x1>
    16ae:	10 92 97 03 	sts	0x0397, r1	; 0x800397 <ram_trim>
			eeprom_write_block(&ram_trim.roll, &eem_trim.roll, sizeof(ram_trim.roll));
    16b2:	42 e0       	ldi	r20, 0x02	; 2
    16b4:	50 e0       	ldi	r21, 0x00	; 0
    16b6:	63 e8       	ldi	r22, 0x83	; 131
    16b8:	73 e0       	ldi	r23, 0x03	; 3
    16ba:	87 e9       	ldi	r24, 0x97	; 151
    16bc:	93 e0       	ldi	r25, 0x03	; 3
    16be:	0e 94 e2 19 	call	0x33c4	; 0x33c4 <eeprom_write_block>
    16c2:	08 95       	ret

000016c4 <DebugDisable>:
	}
}

void DebugDisable(void)
{
	dbg_counter = 0xFFFF;
    16c4:	8f ef       	ldi	r24, 0xFF	; 255
    16c6:	9f ef       	ldi	r25, 0xFF	; 255
    16c8:	90 93 19 01 	sts	0x0119, r25	; 0x800119 <dbg_counter+0x1>
    16cc:	80 93 18 01 	sts	0x0118, r24	; 0x800118 <dbg_counter>
	flag1.serial_dbg = 0;
    16d0:	80 91 ce 02 	lds	r24, 0x02CE	; 0x8002ce <flag1>
    16d4:	8e 7f       	andi	r24, 0xFE	; 254
    16d6:	80 93 ce 02 	sts	0x02CE, r24	; 0x8002ce <flag1>
    16da:	08 95       	ret

000016dc <CalculatePosition>:
		}
	}
}

void CalculatePosition(void)
{
    16dc:	cf 93       	push	r28
    16de:	df 93       	push	r29
    16e0:	cd b7       	in	r28, 0x3d	; 61
    16e2:	de b7       	in	r29, 0x3e	; 62
    16e4:	2c 97       	sbiw	r28, 0x0c	; 12
    16e6:	0f b6       	in	r0, 0x3f	; 63
    16e8:	f8 94       	cli
    16ea:	de bf       	out	0x3e, r29	; 62
    16ec:	0f be       	out	0x3f, r0	; 63
    16ee:	cd bf       	out	0x3d, r28	; 61
	calculate_position_counter = POS_TIMING;
    16f0:	84 e1       	ldi	r24, 0x14	; 20
    16f2:	90 e0       	ldi	r25, 0x00	; 0
    16f4:	90 93 49 02 	sts	0x0249, r25	; 0x800249 <calculate_position_counter+0x1>
    16f8:	80 93 48 02 	sts	0x0248, r24	; 0x800248 <calculate_position_counter>
	int16_t gyro[3], acc[3];
	if (SamplesGyroBuf())
    16fc:	0e 94 d2 01 	call	0x3a4	; 0x3a4 <SamplesGyroBuf>
    1700:	88 23       	and	r24, r24
    1702:	21 f0       	breq	.+8      	; 0x170c <CalculatePosition+0x30>
		ReadGyroBufAveraged(gyro);
    1704:	ce 01       	movw	r24, r28
    1706:	01 96       	adiw	r24, 0x01	; 1
    1708:	0e 94 ea 02 	call	0x5d4	; 0x5d4 <ReadGyroBufAveraged>

	if (SamplesAccBuf())
    170c:	0e 94 db 01 	call	0x3b6	; 0x3b6 <SamplesAccBuf>
    1710:	88 23       	and	r24, r24
    1712:	21 f0       	breq	.+8      	; 0x171c <CalculatePosition+0x40>
		ReadAccBufAveraged(acc);
    1714:	ce 01       	movw	r24, r28
    1716:	07 96       	adiw	r24, 0x07	; 7
    1718:	0e 94 e4 03 	call	0x7c8	; 0x7c8 <ReadAccBufAveraged>

	ProcessPosition(gyro, acc);
    171c:	be 01       	movw	r22, r28
    171e:	69 5f       	subi	r22, 0xF9	; 249
    1720:	7f 4f       	sbci	r23, 0xFF	; 255
    1722:	ce 01       	movw	r24, r28
    1724:	01 96       	adiw	r24, 0x01	; 1
    1726:	0e 94 d1 05 	call	0xba2	; 0xba2 <ProcessPosition>
}
    172a:	2c 96       	adiw	r28, 0x0c	; 12
    172c:	0f b6       	in	r0, 0x3f	; 63
    172e:	f8 94       	cli
    1730:	de bf       	out	0x3e, r29	; 62
    1732:	0f be       	out	0x3f, r0	; 63
    1734:	cd bf       	out	0x3d, r28	; 61
    1736:	df 91       	pop	r29
    1738:	cf 91       	pop	r28
    173a:	08 95       	ret

0000173c <SendPosition>:

void SendPosition(void)
{
	send_position_counter = 40;
    173c:	88 e2       	ldi	r24, 0x28	; 40
    173e:	90 e0       	ldi	r25, 0x00	; 0
    1740:	90 93 d4 02 	sts	0x02D4, r25	; 0x8002d4 <send_position_counter+0x1>
    1744:	80 93 d3 02 	sts	0x02D3, r24	; 0x8002d3 <send_position_counter>
	if (flag1.serial_dbg)
    1748:	80 91 ce 02 	lds	r24, 0x02CE	; 0x8002ce <flag1>
    174c:	80 ff       	sbrs	r24, 0
    174e:	18 c0       	rjmp	.+48     	; 0x1780 <SendPosition+0x44>
	{
		SendStringInt("B X ", pos_x);
    1750:	40 91 db 02 	lds	r20, 0x02DB	; 0x8002db <pos_x>
    1754:	50 91 dc 02 	lds	r21, 0x02DC	; 0x8002dc <pos_x+0x1>
    1758:	60 91 dd 02 	lds	r22, 0x02DD	; 0x8002dd <pos_x+0x2>
    175c:	70 91 de 02 	lds	r23, 0x02DE	; 0x8002de <pos_x+0x3>
    1760:	87 e8       	ldi	r24, 0x87	; 135
    1762:	91 e0       	ldi	r25, 0x01	; 1
    1764:	0e 94 8f 12 	call	0x251e	; 0x251e <SendStringInt>
		SendStringInt("B Y ", pos_y);
    1768:	40 91 cf 02 	lds	r20, 0x02CF	; 0x8002cf <pos_y>
    176c:	50 91 d0 02 	lds	r21, 0x02D0	; 0x8002d0 <pos_y+0x1>
    1770:	60 91 d1 02 	lds	r22, 0x02D1	; 0x8002d1 <pos_y+0x2>
    1774:	70 91 d2 02 	lds	r23, 0x02D2	; 0x8002d2 <pos_y+0x3>
    1778:	8c e8       	ldi	r24, 0x8C	; 140
    177a:	91 e0       	ldi	r25, 0x01	; 1
    177c:	0e 94 8f 12 	call	0x251e	; 0x251e <SendStringInt>
    1780:	08 95       	ret

00001782 <AdditionalFunction>:
	if (sbus_frame_delay != 0xFF) sbus_frame_delay++;
	if (sbus_last_frame_counter!= 0xFF) sbus_last_frame_counter++;
}

void AdditionalFunction(void)
{
    1782:	0f 93       	push	r16
    1784:	1f 93       	push	r17
    1786:	cf 93       	push	r28
    1788:	df 93       	push	r29
    178a:	cd b7       	in	r28, 0x3d	; 61
    178c:	de b7       	in	r29, 0x3e	; 62
    178e:	2c 97       	sbiw	r28, 0x0c	; 12
    1790:	0f b6       	in	r0, 0x3f	; 63
    1792:	f8 94       	cli
    1794:	de bf       	out	0x3e, r29	; 62
    1796:	0f be       	out	0x3f, r0	; 63
    1798:	cd bf       	out	0x3d, r28	; 61
	additional_timer = 40;
    179a:	88 e2       	ldi	r24, 0x28	; 40
    179c:	90 e0       	ldi	r25, 0x00	; 0
    179e:	90 93 0b 03 	sts	0x030B, r25	; 0x80030b <additional_timer+0x1>
    17a2:	80 93 0a 03 	sts	0x030A, r24	; 0x80030a <additional_timer>
	if (flag1.serial_dbg)
    17a6:	80 91 ce 02 	lds	r24, 0x02CE	; 0x8002ce <flag1>
    17aa:	80 ff       	sbrs	r24, 0
    17ac:	93 c0       	rjmp	.+294    	; 0x18d4 <AdditionalFunction+0x152>
	{
		SendStringUint("Ch 1 ",  channel_value[1]);
    17ae:	06 e3       	ldi	r16, 0x36	; 54
    17b0:	13 e0       	ldi	r17, 0x03	; 3
    17b2:	f8 01       	movw	r30, r16
    17b4:	62 81       	ldd	r22, Z+2	; 0x02
    17b6:	73 81       	ldd	r23, Z+3	; 0x03
    17b8:	81 e9       	ldi	r24, 0x91	; 145
    17ba:	91 e0       	ldi	r25, 0x01	; 1
    17bc:	0e 94 51 13 	call	0x26a2	; 0x26a2 <SendStringUint>
		SendStringUint("Ch 2 ",  channel_value[2]);
    17c0:	f8 01       	movw	r30, r16
    17c2:	64 81       	ldd	r22, Z+4	; 0x04
    17c4:	75 81       	ldd	r23, Z+5	; 0x05
    17c6:	87 e9       	ldi	r24, 0x97	; 151
    17c8:	91 e0       	ldi	r25, 0x01	; 1
    17ca:	0e 94 51 13 	call	0x26a2	; 0x26a2 <SendStringUint>
		SendStringUint("Ch 3 ",  channel_value[3]);
    17ce:	f8 01       	movw	r30, r16
    17d0:	66 81       	ldd	r22, Z+6	; 0x06
    17d2:	77 81       	ldd	r23, Z+7	; 0x07
    17d4:	8d e9       	ldi	r24, 0x9D	; 157
    17d6:	91 e0       	ldi	r25, 0x01	; 1
    17d8:	0e 94 51 13 	call	0x26a2	; 0x26a2 <SendStringUint>
		SendStringUint("Ch 4 ",  channel_value[4]);
    17dc:	f8 01       	movw	r30, r16
    17de:	60 85       	ldd	r22, Z+8	; 0x08
    17e0:	71 85       	ldd	r23, Z+9	; 0x09
    17e2:	83 ea       	ldi	r24, 0xA3	; 163
    17e4:	91 e0       	ldi	r25, 0x01	; 1
    17e6:	0e 94 51 13 	call	0x26a2	; 0x26a2 <SendStringUint>
		SendStringUint("Ch 5 ",  channel_value[5]);
    17ea:	f8 01       	movw	r30, r16
    17ec:	62 85       	ldd	r22, Z+10	; 0x0a
    17ee:	73 85       	ldd	r23, Z+11	; 0x0b
    17f0:	89 ea       	ldi	r24, 0xA9	; 169
    17f2:	91 e0       	ldi	r25, 0x01	; 1
    17f4:	0e 94 51 13 	call	0x26a2	; 0x26a2 <SendStringUint>
		SendStringUint("Ch 6 ",  channel_value[6]);
    17f8:	f8 01       	movw	r30, r16
    17fa:	64 85       	ldd	r22, Z+12	; 0x0c
    17fc:	75 85       	ldd	r23, Z+13	; 0x0d
    17fe:	8f ea       	ldi	r24, 0xAF	; 175
    1800:	91 e0       	ldi	r25, 0x01	; 1
    1802:	0e 94 51 13 	call	0x26a2	; 0x26a2 <SendStringUint>
		SendStringUint("Ch 7 ",  channel_value[7]);
    1806:	f8 01       	movw	r30, r16
    1808:	66 85       	ldd	r22, Z+14	; 0x0e
    180a:	77 85       	ldd	r23, Z+15	; 0x0f
    180c:	85 eb       	ldi	r24, 0xB5	; 181
    180e:	91 e0       	ldi	r25, 0x01	; 1
    1810:	0e 94 51 13 	call	0x26a2	; 0x26a2 <SendStringUint>
		SendStringUint("Ch 8 ",  channel_value[8]);
    1814:	f8 01       	movw	r30, r16
    1816:	60 89       	ldd	r22, Z+16	; 0x10
    1818:	71 89       	ldd	r23, Z+17	; 0x11
    181a:	8b eb       	ldi	r24, 0xBB	; 187
    181c:	91 e0       	ldi	r25, 0x01	; 1
    181e:	0e 94 51 13 	call	0x26a2	; 0x26a2 <SendStringUint>
		SendStringUint("Ch 9 ",  channel_value[9]);
    1822:	f8 01       	movw	r30, r16
    1824:	62 89       	ldd	r22, Z+18	; 0x12
    1826:	73 89       	ldd	r23, Z+19	; 0x13
    1828:	81 ec       	ldi	r24, 0xC1	; 193
    182a:	91 e0       	ldi	r25, 0x01	; 1
    182c:	0e 94 51 13 	call	0x26a2	; 0x26a2 <SendStringUint>
		SendStringUint("Ch 10 ", channel_value[10]);
    1830:	f8 01       	movw	r30, r16
    1832:	64 89       	ldd	r22, Z+20	; 0x14
    1834:	75 89       	ldd	r23, Z+21	; 0x15
    1836:	87 ec       	ldi	r24, 0xC7	; 199
    1838:	91 e0       	ldi	r25, 0x01	; 1
    183a:	0e 94 51 13 	call	0x26a2	; 0x26a2 <SendStringUint>
		SendStringUint("Ch 11 ", channel_value[11]);
    183e:	f8 01       	movw	r30, r16
    1840:	66 89       	ldd	r22, Z+22	; 0x16
    1842:	77 89       	ldd	r23, Z+23	; 0x17
    1844:	8e ec       	ldi	r24, 0xCE	; 206
    1846:	91 e0       	ldi	r25, 0x01	; 1
    1848:	0e 94 51 13 	call	0x26a2	; 0x26a2 <SendStringUint>

		int16_t gyro[3];
		int16_t acc[3];
		ReadGyroSample_ViewOnly(gyro);
    184c:	ce 01       	movw	r24, r28
    184e:	07 96       	adiw	r24, 0x07	; 7
    1850:	0e 94 94 01 	call	0x328	; 0x328 <ReadGyroSample_ViewOnly>
		ReadAccSample_ViewOnly(acc);
    1854:	ce 01       	movw	r24, r28
    1856:	01 96       	adiw	r24, 0x01	; 1
    1858:	0e 94 b3 01 	call	0x366	; 0x366 <ReadAccSample_ViewOnly>

		SendStringInt("G X ", gyro[0]);
    185c:	4f 81       	ldd	r20, Y+7	; 0x07
    185e:	58 85       	ldd	r21, Y+8	; 0x08
    1860:	05 2e       	mov	r0, r21
    1862:	00 0c       	add	r0, r0
    1864:	66 0b       	sbc	r22, r22
    1866:	77 0b       	sbc	r23, r23
    1868:	85 ed       	ldi	r24, 0xD5	; 213
    186a:	91 e0       	ldi	r25, 0x01	; 1
    186c:	0e 94 8f 12 	call	0x251e	; 0x251e <SendStringInt>
		SendStringInt("G Y ", gyro[1]);
    1870:	49 85       	ldd	r20, Y+9	; 0x09
    1872:	5a 85       	ldd	r21, Y+10	; 0x0a
    1874:	05 2e       	mov	r0, r21
    1876:	00 0c       	add	r0, r0
    1878:	66 0b       	sbc	r22, r22
    187a:	77 0b       	sbc	r23, r23
    187c:	8a ed       	ldi	r24, 0xDA	; 218
    187e:	91 e0       	ldi	r25, 0x01	; 1
    1880:	0e 94 8f 12 	call	0x251e	; 0x251e <SendStringInt>
		SendStringInt("G Z ", gyro[2]);
    1884:	4b 85       	ldd	r20, Y+11	; 0x0b
    1886:	5c 85       	ldd	r21, Y+12	; 0x0c
    1888:	05 2e       	mov	r0, r21
    188a:	00 0c       	add	r0, r0
    188c:	66 0b       	sbc	r22, r22
    188e:	77 0b       	sbc	r23, r23
    1890:	8f ed       	ldi	r24, 0xDF	; 223
    1892:	91 e0       	ldi	r25, 0x01	; 1
    1894:	0e 94 8f 12 	call	0x251e	; 0x251e <SendStringInt>
		SendStringInt("A X ", acc[0]);
    1898:	49 81       	ldd	r20, Y+1	; 0x01
    189a:	5a 81       	ldd	r21, Y+2	; 0x02
    189c:	05 2e       	mov	r0, r21
    189e:	00 0c       	add	r0, r0
    18a0:	66 0b       	sbc	r22, r22
    18a2:	77 0b       	sbc	r23, r23
    18a4:	84 ee       	ldi	r24, 0xE4	; 228
    18a6:	91 e0       	ldi	r25, 0x01	; 1
    18a8:	0e 94 8f 12 	call	0x251e	; 0x251e <SendStringInt>
		SendStringInt("A Y ", acc[1]);
    18ac:	4b 81       	ldd	r20, Y+3	; 0x03
    18ae:	5c 81       	ldd	r21, Y+4	; 0x04
    18b0:	05 2e       	mov	r0, r21
    18b2:	00 0c       	add	r0, r0
    18b4:	66 0b       	sbc	r22, r22
    18b6:	77 0b       	sbc	r23, r23
    18b8:	89 ee       	ldi	r24, 0xE9	; 233
    18ba:	91 e0       	ldi	r25, 0x01	; 1
    18bc:	0e 94 8f 12 	call	0x251e	; 0x251e <SendStringInt>
		SendStringInt("A Z ", acc[2]);
    18c0:	4d 81       	ldd	r20, Y+5	; 0x05
    18c2:	5e 81       	ldd	r21, Y+6	; 0x06
    18c4:	05 2e       	mov	r0, r21
    18c6:	00 0c       	add	r0, r0
    18c8:	66 0b       	sbc	r22, r22
    18ca:	77 0b       	sbc	r23, r23
    18cc:	8e ee       	ldi	r24, 0xEE	; 238
    18ce:	91 e0       	ldi	r25, 0x01	; 1
    18d0:	0e 94 8f 12 	call	0x251e	; 0x251e <SendStringInt>
	}
}
    18d4:	2c 96       	adiw	r28, 0x0c	; 12
    18d6:	0f b6       	in	r0, 0x3f	; 63
    18d8:	f8 94       	cli
    18da:	de bf       	out	0x3e, r29	; 62
    18dc:	0f be       	out	0x3f, r0	; 63
    18de:	cd bf       	out	0x3d, r28	; 61
    18e0:	df 91       	pop	r29
    18e2:	cf 91       	pop	r28
    18e4:	1f 91       	pop	r17
    18e6:	0f 91       	pop	r16
    18e8:	08 95       	ret

000018ea <InitCommonTimer>:
	{&dbg_counter, DebugDisable},
};

void InitCommonTimer(void)
{
	TIMSK0 |= (1<<TOIE0);			//Overflow interupt enable
    18ea:	ee e6       	ldi	r30, 0x6E	; 110
    18ec:	f0 e0       	ldi	r31, 0x00	; 0
    18ee:	80 81       	ld	r24, Z
    18f0:	81 60       	ori	r24, 0x01	; 1
    18f2:	80 83       	st	Z, r24
	TCCR0B |= (1<<CS01)| (1<<CS00);	//Prescaler 64
    18f4:	85 b5       	in	r24, 0x25	; 37
    18f6:	83 60       	ori	r24, 0x03	; 3
    18f8:	85 bd       	out	0x25, r24	; 37
    18fa:	08 95       	ret

000018fc <InitPWMTimers>:
}


void InitPWMTimers(void)
{
	InitTimer3();
    18fc:	0e 94 e2 0c 	call	0x19c4	; 0x19c4 <InitTimer3>
	InitTimer4();
    1900:	0e 94 85 0d 	call	0x1b0a	; 0x1b0a <InitTimer4>
    1904:	08 95       	ret

00001906 <CheckCommonTimer>:
}

void CheckCommonTimer(void)
{
    1906:	0f 93       	push	r16
    1908:	1f 93       	push	r17
    190a:	cf 93       	push	r28
    190c:	df 93       	push	r29
    190e:	c4 e0       	ldi	r28, 0x04	; 4
    1910:	d1 e0       	ldi	r29, 0x01	; 1
    1912:	08 e1       	ldi	r16, 0x18	; 24
    1914:	11 e0       	ldi	r17, 0x01	; 1
	uint8_t i;
	for (i=0; i<COMMON_TIMERS;i++)
	{
		if (*decrement_common[i].counter == 0)
    1916:	e8 81       	ld	r30, Y
    1918:	f9 81       	ldd	r31, Y+1	; 0x01
    191a:	80 81       	ld	r24, Z
    191c:	91 81       	ldd	r25, Z+1	; 0x01
    191e:	89 2b       	or	r24, r25
    1920:	19 f4       	brne	.+6      	; 0x1928 <CheckCommonTimer+0x22>
		{
			*decrement_common[i].counter == 0xffff;
			decrement_common[i].timer_service();
    1922:	ea 81       	ldd	r30, Y+2	; 0x02
    1924:	fb 81       	ldd	r31, Y+3	; 0x03
    1926:	09 95       	icall
    1928:	24 96       	adiw	r28, 0x04	; 4
}

void CheckCommonTimer(void)
{
	uint8_t i;
	for (i=0; i<COMMON_TIMERS;i++)
    192a:	c0 17       	cp	r28, r16
    192c:	d1 07       	cpc	r29, r17
    192e:	99 f7       	brne	.-26     	; 0x1916 <CheckCommonTimer+0x10>
		{
			*decrement_common[i].counter == 0xffff;
			decrement_common[i].timer_service();
		}
	}
}
    1930:	df 91       	pop	r29
    1932:	cf 91       	pop	r28
    1934:	1f 91       	pop	r17
    1936:	0f 91       	pop	r16
    1938:	08 95       	ret

0000193a <__vector_16>:
		SendStringInt("B Y ", pos_y);
	}
}

ISR (TIMER0_OVF_vect)	//each 1,024ms
{
    193a:	1f 92       	push	r1
    193c:	0f 92       	push	r0
    193e:	0f b6       	in	r0, 0x3f	; 63
    1940:	0f 92       	push	r0
    1942:	11 24       	eor	r1, r1
    1944:	2f 93       	push	r18
    1946:	3f 93       	push	r19
    1948:	4f 93       	push	r20
    194a:	8f 93       	push	r24
    194c:	9f 93       	push	r25
    194e:	af 93       	push	r26
    1950:	bf 93       	push	r27
    1952:	ef 93       	push	r30
    1954:	ff 93       	push	r31
    1956:	e4 e0       	ldi	r30, 0x04	; 4
    1958:	f1 e0       	ldi	r31, 0x01	; 1
    195a:	28 e1       	ldi	r18, 0x18	; 24
    195c:	31 e0       	ldi	r19, 0x01	; 1
	uint8_t i;
	for (i=0; i<COMMON_TIMERS;i++)
	{
		if (*decrement_common[i].counter != 0 && *decrement_common[i].counter != 0xFFFF)
    195e:	a0 81       	ld	r26, Z
    1960:	b1 81       	ldd	r27, Z+1	; 0x01
    1962:	8d 91       	ld	r24, X+
    1964:	9c 91       	ld	r25, X
    1966:	11 97       	sbiw	r26, 0x01	; 1
    1968:	01 97       	sbiw	r24, 0x01	; 1
    196a:	8e 3f       	cpi	r24, 0xFE	; 254
    196c:	4f ef       	ldi	r20, 0xFF	; 255
    196e:	94 07       	cpc	r25, r20
    1970:	10 f4       	brcc	.+4      	; 0x1976 <__vector_16+0x3c>
		{
			*decrement_common[i].counter = *decrement_common[i].counter - 1;
    1972:	8d 93       	st	X+, r24
    1974:	9c 93       	st	X, r25
    1976:	34 96       	adiw	r30, 0x04	; 4
}

ISR (TIMER0_OVF_vect)	//each 1,024ms
{
	uint8_t i;
	for (i=0; i<COMMON_TIMERS;i++)
    1978:	e2 17       	cp	r30, r18
    197a:	f3 07       	cpc	r31, r19
    197c:	81 f7       	brne	.-32     	; 0x195e <__vector_16+0x24>
		{
			*decrement_common[i].counter = *decrement_common[i].counter - 1;
		}
	}

	if (sbus_buffor_start_counter != 0xFF) sbus_buffor_start_counter++;
    197e:	80 91 01 01 	lds	r24, 0x0101	; 0x800101 <sbus_buffor_start_counter>
    1982:	8f 3f       	cpi	r24, 0xFF	; 255
    1984:	19 f0       	breq	.+6      	; 0x198c <__vector_16+0x52>
    1986:	8f 5f       	subi	r24, 0xFF	; 255
    1988:	80 93 01 01 	sts	0x0101, r24	; 0x800101 <sbus_buffor_start_counter>
	if (sbus_frame_delay != 0xFF) sbus_frame_delay++;
    198c:	80 91 82 03 	lds	r24, 0x0382	; 0x800382 <sbus_frame_delay>
    1990:	8f 3f       	cpi	r24, 0xFF	; 255
    1992:	19 f0       	breq	.+6      	; 0x199a <__vector_16+0x60>
    1994:	8f 5f       	subi	r24, 0xFF	; 255
    1996:	80 93 82 03 	sts	0x0382, r24	; 0x800382 <sbus_frame_delay>
	if (sbus_last_frame_counter!= 0xFF) sbus_last_frame_counter++;
    199a:	80 91 00 01 	lds	r24, 0x0100	; 0x800100 <__data_start>
    199e:	8f 3f       	cpi	r24, 0xFF	; 255
    19a0:	19 f0       	breq	.+6      	; 0x19a8 <__vector_16+0x6e>
    19a2:	8f 5f       	subi	r24, 0xFF	; 255
    19a4:	80 93 00 01 	sts	0x0100, r24	; 0x800100 <__data_start>
}
    19a8:	ff 91       	pop	r31
    19aa:	ef 91       	pop	r30
    19ac:	bf 91       	pop	r27
    19ae:	af 91       	pop	r26
    19b0:	9f 91       	pop	r25
    19b2:	8f 91       	pop	r24
    19b4:	4f 91       	pop	r20
    19b6:	3f 91       	pop	r19
    19b8:	2f 91       	pop	r18
    19ba:	0f 90       	pop	r0
    19bc:	0f be       	out	0x3f, r0	; 63
    19be:	0f 90       	pop	r0
    19c0:	1f 90       	pop	r1
    19c2:	18 95       	reti

000019c4 <InitTimer3>:


void InitTimer3(void)
{
	//TC3 General timer
	TCCR3B |= (1<<WGM32);	//Mode 4: CTC top on OCR3A
    19c4:	e1 e9       	ldi	r30, 0x91	; 145
    19c6:	f0 e0       	ldi	r31, 0x00	; 0
    19c8:	80 81       	ld	r24, Z
    19ca:	88 60       	ori	r24, 0x08	; 8
    19cc:	80 83       	st	Z, r24
	OCR3A   = 40000;		//Timer each 20ms = 50Hz
    19ce:	80 e4       	ldi	r24, 0x40	; 64
    19d0:	9c e9       	ldi	r25, 0x9C	; 156
    19d2:	90 93 99 00 	sts	0x0099, r25	; 0x800099 <__TEXT_REGION_LENGTH__+0x7e0099>
    19d6:	80 93 98 00 	sts	0x0098, r24	; 0x800098 <__TEXT_REGION_LENGTH__+0x7e0098>

	//Overflow interupt
	TIFR3  |= (1<<OCF3A);	//Interrupt compare A
    19da:	c1 9a       	sbi	0x18, 1	; 24
	TIMSK3 |= (1<<OCIE3A);	//Enable interrupt on A
    19dc:	a1 e7       	ldi	r26, 0x71	; 113
    19de:	b0 e0       	ldi	r27, 0x00	; 0
    19e0:	8c 91       	ld	r24, X
    19e2:	82 60       	ori	r24, 0x02	; 2
    19e4:	8c 93       	st	X, r24

	//Compare interrupt
	TIFR3  |= (1<<OCF3B);	//Interrupt compare B
    19e6:	c2 9a       	sbi	0x18, 2	; 24
	TIMSK3 |= (1<<OCIE3B);	//Enable interrupt on B
    19e8:	8c 91       	ld	r24, X
    19ea:	84 60       	ori	r24, 0x04	; 4
    19ec:	8c 93       	st	X, r24

	TCCR3B |= (1<<CS31);	//Prescaler: 8
    19ee:	80 81       	ld	r24, Z
    19f0:	82 60       	ori	r24, 0x02	; 2
    19f2:	80 83       	st	Z, r24
    19f4:	08 95       	ret

000019f6 <__vector_33>:
}

ISR (TIMER3_COMPA_vect)		//Interrupt on top value
{
    19f6:	1f 92       	push	r1
    19f8:	0f 92       	push	r0
    19fa:	0f b6       	in	r0, 0x3f	; 63
    19fc:	0f 92       	push	r0
    19fe:	11 24       	eor	r1, r1
    1a00:	8f 93       	push	r24
    1a02:	9f 93       	push	r25
 	//set flag to process
	events.flag.process_PWMs = 1;
    1a04:	80 91 09 03 	lds	r24, 0x0309	; 0x800309 <events>
    1a08:	81 60       	ori	r24, 0x01	; 1
    1a0a:	80 93 09 03 	sts	0x0309, r24	; 0x800309 <events>
	//processing new values will be done in main loop as event (to keep interrupt short)

	OCR3B = FIRST_INTERRUPT;	//first interrupt after processing values
    1a0e:	88 e8       	ldi	r24, 0x88	; 136
    1a10:	93 e1       	ldi	r25, 0x13	; 19
    1a12:	90 93 9b 00 	sts	0x009B, r25	; 0x80009b <__TEXT_REGION_LENGTH__+0x7e009b>
    1a16:	80 93 9a 00 	sts	0x009A, r24	; 0x80009a <__TEXT_REGION_LENGTH__+0x7e009a>
	selected_PWM_channel = 0;
    1a1a:	10 92 ab 03 	sts	0x03AB, r1	; 0x8003ab <selected_PWM_channel>
}
    1a1e:	9f 91       	pop	r25
    1a20:	8f 91       	pop	r24
    1a22:	0f 90       	pop	r0
    1a24:	0f be       	out	0x3f, r0	; 63
    1a26:	0f 90       	pop	r0
    1a28:	1f 90       	pop	r1
    1a2a:	18 95       	reti

00001a2c <__vector_34>:

ISR (TIMER3_COMPB_vect)		//PWM init interrupt
{
    1a2c:	1f 92       	push	r1
    1a2e:	0f 92       	push	r0
    1a30:	0f b6       	in	r0, 0x3f	; 63
    1a32:	0f 92       	push	r0
    1a34:	11 24       	eor	r1, r1
    1a36:	2f 93       	push	r18
    1a38:	3f 93       	push	r19
    1a3a:	4f 93       	push	r20
    1a3c:	5f 93       	push	r21
    1a3e:	6f 93       	push	r22
    1a40:	7f 93       	push	r23
    1a42:	8f 93       	push	r24
    1a44:	9f 93       	push	r25
    1a46:	af 93       	push	r26
    1a48:	bf 93       	push	r27
    1a4a:	ef 93       	push	r30
    1a4c:	ff 93       	push	r31
	if (pwm_channels[selected_PWM_channel].counter > PWM_MAX)
    1a4e:	60 91 ab 03 	lds	r22, 0x03AB	; 0x8003ab <selected_PWM_channel>
    1a52:	86 2f       	mov	r24, r22
    1a54:	90 e0       	ldi	r25, 0x00	; 0
    1a56:	fc 01       	movw	r30, r24
    1a58:	ee 0f       	add	r30, r30
    1a5a:	ff 1f       	adc	r31, r31
    1a5c:	e8 0f       	add	r30, r24
    1a5e:	f9 1f       	adc	r31, r25
    1a60:	e4 55       	subi	r30, 0x54	; 84
    1a62:	fc 4f       	sbci	r31, 0xFC	; 252
    1a64:	21 81       	ldd	r18, Z+1	; 0x01
    1a66:	32 81       	ldd	r19, Z+2	; 0x02
    1a68:	21 30       	cpi	r18, 0x01	; 1
    1a6a:	4d e7       	ldi	r20, 0x7D	; 125
    1a6c:	34 07       	cpc	r19, r20
    1a6e:	60 f0       	brcs	.+24     	; 0x1a88 <__vector_34+0x5c>
	{
		pwm_channels[selected_PWM_channel].counter = PWM_MAX;
    1a70:	fc 01       	movw	r30, r24
    1a72:	ee 0f       	add	r30, r30
    1a74:	ff 1f       	adc	r31, r31
    1a76:	e8 0f       	add	r30, r24
    1a78:	f9 1f       	adc	r31, r25
    1a7a:	e4 55       	subi	r30, 0x54	; 84
    1a7c:	fc 4f       	sbci	r31, 0xFC	; 252
    1a7e:	20 e0       	ldi	r18, 0x00	; 0
    1a80:	3d e7       	ldi	r19, 0x7D	; 125
    1a82:	32 83       	std	Z+2, r19	; 0x02
    1a84:	21 83       	std	Z+1, r18	; 0x01
    1a86:	0e c0       	rjmp	.+28     	; 0x1aa4 <__vector_34+0x78>
	}
	else if (pwm_channels[selected_PWM_channel].counter < PWM_MIN)
    1a88:	28 36       	cpi	r18, 0x68	; 104
    1a8a:	32 44       	sbci	r19, 0x42	; 66
    1a8c:	58 f4       	brcc	.+22     	; 0x1aa4 <__vector_34+0x78>
	{
		pwm_channels[selected_PWM_channel].counter = PWM_MIN;
    1a8e:	fc 01       	movw	r30, r24
    1a90:	ee 0f       	add	r30, r30
    1a92:	ff 1f       	adc	r31, r31
    1a94:	e8 0f       	add	r30, r24
    1a96:	f9 1f       	adc	r31, r25
    1a98:	e4 55       	subi	r30, 0x54	; 84
    1a9a:	fc 4f       	sbci	r31, 0xFC	; 252
    1a9c:	28 e6       	ldi	r18, 0x68	; 104
    1a9e:	32 e4       	ldi	r19, 0x42	; 66
    1aa0:	32 83       	std	Z+2, r19	; 0x02
    1aa2:	21 83       	std	Z+1, r18	; 0x01
	}
	Register_PWM_Pin(pwm_channels[selected_PWM_channel].counter, selected_PWM_channel);
    1aa4:	fc 01       	movw	r30, r24
    1aa6:	ee 0f       	add	r30, r30
    1aa8:	ff 1f       	adc	r31, r31
    1aaa:	8e 0f       	add	r24, r30
    1aac:	9f 1f       	adc	r25, r31
    1aae:	fc 01       	movw	r30, r24
    1ab0:	e4 55       	subi	r30, 0x54	; 84
    1ab2:	fc 4f       	sbci	r31, 0xFC	; 252
    1ab4:	81 81       	ldd	r24, Z+1	; 0x01
    1ab6:	92 81       	ldd	r25, Z+2	; 0x02
    1ab8:	0e 94 91 0d 	call	0x1b22	; 0x1b22 <Register_PWM_Pin>
	selected_PWM_channel++;
    1abc:	80 91 ab 03 	lds	r24, 0x03AB	; 0x8003ab <selected_PWM_channel>
    1ac0:	8f 5f       	subi	r24, 0xFF	; 255
    1ac2:	80 93 ab 03 	sts	0x03AB, r24	; 0x8003ab <selected_PWM_channel>
	if (selected_PWM_channel < PWM_CHANNELS){
    1ac6:	83 30       	cpi	r24, 0x03	; 3
    1ac8:	78 f4       	brcc	.+30     	; 0x1ae8 <__vector_34+0xbc>
		OCR3B = FIRST_INTERRUPT + NEXT_PWM_DELAY*(selected_PWM_channel);
    1aca:	90 e0       	ldi	r25, 0x00	; 0
    1acc:	01 96       	adiw	r24, 0x01	; 1
    1ace:	48 e8       	ldi	r20, 0x88	; 136
    1ad0:	53 e1       	ldi	r21, 0x13	; 19
    1ad2:	84 9f       	mul	r24, r20
    1ad4:	90 01       	movw	r18, r0
    1ad6:	85 9f       	mul	r24, r21
    1ad8:	30 0d       	add	r19, r0
    1ada:	94 9f       	mul	r25, r20
    1adc:	30 0d       	add	r19, r0
    1ade:	11 24       	eor	r1, r1
    1ae0:	30 93 9b 00 	sts	0x009B, r19	; 0x80009b <__TEXT_REGION_LENGTH__+0x7e009b>
    1ae4:	20 93 9a 00 	sts	0x009A, r18	; 0x80009a <__TEXT_REGION_LENGTH__+0x7e009a>
	}
    1ae8:	ff 91       	pop	r31
    1aea:	ef 91       	pop	r30
    1aec:	bf 91       	pop	r27
    1aee:	af 91       	pop	r26
    1af0:	9f 91       	pop	r25
    1af2:	8f 91       	pop	r24
    1af4:	7f 91       	pop	r23
    1af6:	6f 91       	pop	r22
    1af8:	5f 91       	pop	r21
    1afa:	4f 91       	pop	r20
    1afc:	3f 91       	pop	r19
    1afe:	2f 91       	pop	r18
    1b00:	0f 90       	pop	r0
    1b02:	0f be       	out	0x3f, r0	; 63
    1b04:	0f 90       	pop	r0
    1b06:	1f 90       	pop	r1
    1b08:	18 95       	reti

00001b0a <InitTimer4>:
uint8_t *PORT;
uint8_t PIN;

void InitTimer4(void)
{
	TCCR4B |= (1<<WGM42);	//Mode 4: CTC top on OCR4A
    1b0a:	e1 ea       	ldi	r30, 0xA1	; 161
    1b0c:	f0 e0       	ldi	r31, 0x00	; 0
    1b0e:	80 81       	ld	r24, Z
    1b10:	88 60       	ori	r24, 0x08	; 8
    1b12:	80 83       	st	Z, r24

	//Overflow interupt
	TIFR4  |= (1<<OCF4A);	//Interrupt compare A
    1b14:	c9 9a       	sbi	0x19, 1	; 25
	TIMSK4 |= (1<<OCIE4A);	//Enable interrupt on A
    1b16:	e2 e7       	ldi	r30, 0x72	; 114
    1b18:	f0 e0       	ldi	r31, 0x00	; 0
    1b1a:	80 81       	ld	r24, Z
    1b1c:	82 60       	ori	r24, 0x02	; 2
    1b1e:	80 83       	st	Z, r24
    1b20:	08 95       	ret

00001b22 <Register_PWM_Pin>:
}

void Register_PWM_Pin (uint16_t time_value, uint8_t new_pin)
{
//Register pin for PWM :
	if (time_value != 0)	//check if timer value is not 0
    1b22:	00 97       	sbiw	r24, 0x00	; 0
    1b24:	d9 f0       	breq	.+54     	; 0x1b5c <Register_PWM_Pin+0x3a>
	{
		PIN = new_pin;
    1b26:	60 93 b7 03 	sts	0x03B7, r22	; 0x8003b7 <PIN>

		TCNT4 = 0;			//clear timer
    1b2a:	10 92 a5 00 	sts	0x00A5, r1	; 0x8000a5 <__TEXT_REGION_LENGTH__+0x7e00a5>
    1b2e:	10 92 a4 00 	sts	0x00A4, r1	; 0x8000a4 <__TEXT_REGION_LENGTH__+0x7e00a4>
		OCR4A = time_value;	//set new top value
    1b32:	90 93 a9 00 	sts	0x00A9, r25	; 0x8000a9 <__TEXT_REGION_LENGTH__+0x7e00a9>
    1b36:	80 93 a8 00 	sts	0x00A8, r24	; 0x8000a8 <__TEXT_REGION_LENGTH__+0x7e00a8>

		PORTC |= (1<<PIN);	//Set pin high
    1b3a:	28 b1       	in	r18, 0x08	; 8
    1b3c:	81 e0       	ldi	r24, 0x01	; 1
    1b3e:	90 e0       	ldi	r25, 0x00	; 0
    1b40:	00 90 b7 03 	lds	r0, 0x03B7	; 0x8003b7 <PIN>
    1b44:	02 c0       	rjmp	.+4      	; 0x1b4a <Register_PWM_Pin+0x28>
    1b46:	88 0f       	add	r24, r24
    1b48:	99 1f       	adc	r25, r25
    1b4a:	0a 94       	dec	r0
    1b4c:	e2 f7       	brpl	.-8      	; 0x1b46 <Register_PWM_Pin+0x24>
    1b4e:	82 2b       	or	r24, r18
    1b50:	88 b9       	out	0x08, r24	; 8

		TCCR4B |= (1<<CS40);	//prescaller 1
    1b52:	e1 ea       	ldi	r30, 0xA1	; 161
    1b54:	f0 e0       	ldi	r31, 0x00	; 0
    1b56:	80 81       	ld	r24, Z
    1b58:	81 60       	ori	r24, 0x01	; 1
    1b5a:	80 83       	st	Z, r24
    1b5c:	08 95       	ret

00001b5e <__vector_42>:
	}
}

ISR (TIMER4_COMPA_vect)
{
    1b5e:	1f 92       	push	r1
    1b60:	0f 92       	push	r0
    1b62:	0f b6       	in	r0, 0x3f	; 63
    1b64:	0f 92       	push	r0
    1b66:	11 24       	eor	r1, r1
    1b68:	2f 93       	push	r18
    1b6a:	8f 93       	push	r24
    1b6c:	9f 93       	push	r25
    1b6e:	ef 93       	push	r30
    1b70:	ff 93       	push	r31
	PORTC &= ~(1<<PIN);	//Set pin Low
    1b72:	28 b1       	in	r18, 0x08	; 8
    1b74:	81 e0       	ldi	r24, 0x01	; 1
    1b76:	90 e0       	ldi	r25, 0x00	; 0
    1b78:	00 90 b7 03 	lds	r0, 0x03B7	; 0x8003b7 <PIN>
    1b7c:	02 c0       	rjmp	.+4      	; 0x1b82 <__vector_42+0x24>
    1b7e:	88 0f       	add	r24, r24
    1b80:	99 1f       	adc	r25, r25
    1b82:	0a 94       	dec	r0
    1b84:	e2 f7       	brpl	.-8      	; 0x1b7e <__vector_42+0x20>
    1b86:	80 95       	com	r24
    1b88:	82 23       	and	r24, r18
    1b8a:	88 b9       	out	0x08, r24	; 8
	//TCCR4B &= ~((1<<CS40) | (1<<CS41) | (1<<CS42));	//turn of timer
	TCCR4B &= ~(1<<CS40);	//turn off timer
    1b8c:	e1 ea       	ldi	r30, 0xA1	; 161
    1b8e:	f0 e0       	ldi	r31, 0x00	; 0
    1b90:	80 81       	ld	r24, Z
    1b92:	8e 7f       	andi	r24, 0xFE	; 254
    1b94:	80 83       	st	Z, r24
    1b96:	ff 91       	pop	r31
    1b98:	ef 91       	pop	r30
    1b9a:	9f 91       	pop	r25
    1b9c:	8f 91       	pop	r24
    1b9e:	2f 91       	pop	r18
    1ba0:	0f 90       	pop	r0
    1ba2:	0f be       	out	0x3f, r0	; 63
    1ba4:	0f 90       	pop	r0
    1ba6:	1f 90       	pop	r1
    1ba8:	18 95       	reti

00001baa <__vector_24>:
void TWI_read(uint8_t ack) {
	TWCR0 = (1<<TWINT)|(ack<<TWEA)|(1<<TWEN)|(1<<TWIE);
}

ISR (TWI0_vect)	//TWI finished vector
{	//TWI interrupt
    1baa:	1f 92       	push	r1
    1bac:	0f 92       	push	r0
    1bae:	0f b6       	in	r0, 0x3f	; 63
    1bb0:	0f 92       	push	r0
    1bb2:	11 24       	eor	r1, r1
    1bb4:	2f 93       	push	r18
    1bb6:	3f 93       	push	r19
    1bb8:	4f 93       	push	r20
    1bba:	5f 93       	push	r21
    1bbc:	8f 93       	push	r24
    1bbe:	9f 93       	push	r25
    1bc0:	af 93       	push	r26
    1bc2:	bf 93       	push	r27
    1bc4:	ef 93       	push	r30
    1bc6:	ff 93       	push	r31

	uint8_t SLA = ((uint8_t)twi_bufor[twi_buf_pos.tail].sla << 1);
    1bc8:	e0 91 bb 03 	lds	r30, 0x03BB	; 0x8003bb <twi_buf_pos>
    1bcc:	e6 95       	lsr	r30
    1bce:	e6 95       	lsr	r30
    1bd0:	e6 95       	lsr	r30
    1bd2:	e7 70       	andi	r30, 0x07	; 7
    1bd4:	4e 2f       	mov	r20, r30
    1bd6:	50 e0       	ldi	r21, 0x00	; 0
    1bd8:	84 e1       	ldi	r24, 0x14	; 20
    1bda:	e8 9f       	mul	r30, r24
    1bdc:	f0 01       	movw	r30, r0
    1bde:	11 24       	eor	r1, r1
    1be0:	e4 54       	subi	r30, 0x44	; 68
    1be2:	fc 4f       	sbci	r31, 0xFC	; 252
    1be4:	80 81       	ld	r24, Z
    1be6:	28 2f       	mov	r18, r24
    1be8:	2e 7f       	andi	r18, 0xFE	; 254
	uint8_t REG = twi_bufor[twi_buf_pos.tail].reg;
	
	switch (twi_bufor[twi_buf_pos.tail].status){
    1bea:	e3 89       	ldd	r30, Z+19	; 0x13
    1bec:	8e 2f       	mov	r24, r30
    1bee:	90 e0       	ldi	r25, 0x00	; 0
    1bf0:	fc 01       	movw	r30, r24
    1bf2:	34 97       	sbiw	r30, 0x04	; 4
    1bf4:	e9 30       	cpi	r30, 0x09	; 9
    1bf6:	f1 05       	cpc	r31, r1
    1bf8:	08 f0       	brcs	.+2      	; 0x1bfc <__vector_24+0x52>
    1bfa:	e4 c1       	rjmp	.+968    	; 0x1fc4 <__vector_24+0x41a>
    1bfc:	e6 5a       	subi	r30, 0xA6	; 166
    1bfe:	ff 4f       	sbci	r31, 0xFF	; 255
    1c00:	0c 94 a0 16 	jmp	0x2d40	; 0x2d40 <__tablejump2__>
void TWI_stop(void) {
	TWCR0 = (1<<TWINT)|(1<<TWEN)|(1<<TWSTO)|(1<<TWIE);
}

void TWI_write(uint8_t bajt) {
	TWDR0 = bajt;
    1c04:	20 93 bb 00 	sts	0x00BB, r18	; 0x8000bb <__TEXT_REGION_LENGTH__+0x7e00bb>
	TWCR0 = (1<<TWINT)|(1<<TWEN)|(1<<TWIE);
    1c08:	85 e8       	ldi	r24, 0x85	; 133
    1c0a:	80 93 bc 00 	sts	0x00BC, r24	; 0x8000bc <__TEXT_REGION_LENGTH__+0x7e00bc>
	uint8_t REG = twi_bufor[twi_buf_pos.tail].reg;
	
	switch (twi_bufor[twi_buf_pos.tail].status){
		case start:
			TWI_write(SLA);
			twi_bufor[twi_buf_pos.tail].status = write_adress;
    1c0e:	e0 91 bb 03 	lds	r30, 0x03BB	; 0x8003bb <twi_buf_pos>
    1c12:	e6 95       	lsr	r30
    1c14:	e6 95       	lsr	r30
    1c16:	e6 95       	lsr	r30
    1c18:	e7 70       	andi	r30, 0x07	; 7
    1c1a:	84 e1       	ldi	r24, 0x14	; 20
    1c1c:	e8 9f       	mul	r30, r24
    1c1e:	f0 01       	movw	r30, r0
    1c20:	11 24       	eor	r1, r1
    1c22:	e4 54       	subi	r30, 0x44	; 68
    1c24:	fc 4f       	sbci	r31, 0xFC	; 252
    1c26:	85 e0       	ldi	r24, 0x05	; 5
    1c28:	83 8b       	std	Z+19, r24	; 0x13
			break;
    1c2a:	cc c1       	rjmp	.+920    	; 0x1fc4 <__vector_24+0x41a>

ISR (TWI0_vect)	//TWI finished vector
{	//TWI interrupt

	uint8_t SLA = ((uint8_t)twi_bufor[twi_buf_pos.tail].sla << 1);
	uint8_t REG = twi_bufor[twi_buf_pos.tail].reg;
    1c2c:	84 e1       	ldi	r24, 0x14	; 20
    1c2e:	84 9f       	mul	r24, r20
    1c30:	f0 01       	movw	r30, r0
    1c32:	85 9f       	mul	r24, r21
    1c34:	f0 0d       	add	r31, r0
    1c36:	11 24       	eor	r1, r1
    1c38:	e4 54       	subi	r30, 0x44	; 68
    1c3a:	fc 4f       	sbci	r31, 0xFC	; 252
    1c3c:	91 81       	ldd	r25, Z+1	; 0x01
void TWI_stop(void) {
	TWCR0 = (1<<TWINT)|(1<<TWEN)|(1<<TWSTO)|(1<<TWIE);
}

void TWI_write(uint8_t bajt) {
	TWDR0 = bajt;
    1c3e:	90 93 bb 00 	sts	0x00BB, r25	; 0x8000bb <__TEXT_REGION_LENGTH__+0x7e00bb>
	TWCR0 = (1<<TWINT)|(1<<TWEN)|(1<<TWIE);
    1c42:	95 e8       	ldi	r25, 0x85	; 133
    1c44:	90 93 bc 00 	sts	0x00BC, r25	; 0x8000bc <__TEXT_REGION_LENGTH__+0x7e00bc>
			twi_bufor[twi_buf_pos.tail].status = write_adress;
			break;

		case write_adress:
			TWI_write(REG);
			twi_bufor[twi_buf_pos.tail].status = write_register;
    1c48:	e0 91 bb 03 	lds	r30, 0x03BB	; 0x8003bb <twi_buf_pos>
    1c4c:	e6 95       	lsr	r30
    1c4e:	e6 95       	lsr	r30
    1c50:	e6 95       	lsr	r30
    1c52:	e7 70       	andi	r30, 0x07	; 7
    1c54:	8e 9f       	mul	r24, r30
    1c56:	f0 01       	movw	r30, r0
    1c58:	11 24       	eor	r1, r1
    1c5a:	e4 54       	subi	r30, 0x44	; 68
    1c5c:	fc 4f       	sbci	r31, 0xFC	; 252
    1c5e:	86 e0       	ldi	r24, 0x06	; 6
    1c60:	83 8b       	std	Z+19, r24	; 0x13
			break;
    1c62:	b0 c1       	rjmp	.+864    	; 0x1fc4 <__vector_24+0x41a>

		case write_register:
			if (twi_bufor[twi_buf_pos.tail].read)	//check if reading is required
    1c64:	84 e1       	ldi	r24, 0x14	; 20
    1c66:	84 9f       	mul	r24, r20
    1c68:	f0 01       	movw	r30, r0
    1c6a:	85 9f       	mul	r24, r21
    1c6c:	f0 0d       	add	r31, r0
    1c6e:	11 24       	eor	r1, r1
    1c70:	e4 54       	subi	r30, 0x44	; 68
    1c72:	fc 4f       	sbci	r31, 0xFC	; 252
    1c74:	80 81       	ld	r24, Z
    1c76:	80 ff       	sbrs	r24, 0
    1c78:	12 c0       	rjmp	.+36     	; 0x1c9e <__vector_24+0xf4>
}

//low level functions

void TWI_start(void) {
	TWCR0 = (1<<TWINT)|(1<<TWEN)|(1<<TWSTA)|(1<<TWIE);
    1c7a:	85 ea       	ldi	r24, 0xA5	; 165
    1c7c:	80 93 bc 00 	sts	0x00BC, r24	; 0x8000bc <__TEXT_REGION_LENGTH__+0x7e00bc>

		case write_register:
			if (twi_bufor[twi_buf_pos.tail].read)	//check if reading is required
			{
				TWI_start();
				twi_bufor[twi_buf_pos.tail].status = restart;
    1c80:	e0 91 bb 03 	lds	r30, 0x03BB	; 0x8003bb <twi_buf_pos>
    1c84:	e6 95       	lsr	r30
    1c86:	e6 95       	lsr	r30
    1c88:	e6 95       	lsr	r30
    1c8a:	e7 70       	andi	r30, 0x07	; 7
    1c8c:	84 e1       	ldi	r24, 0x14	; 20
    1c8e:	e8 9f       	mul	r30, r24
    1c90:	f0 01       	movw	r30, r0
    1c92:	11 24       	eor	r1, r1
    1c94:	e4 54       	subi	r30, 0x44	; 68
    1c96:	fc 4f       	sbci	r31, 0xFC	; 252
    1c98:	87 e0       	ldi	r24, 0x07	; 7
    1c9a:	83 8b       	std	Z+19, r24	; 0x13
    1c9c:	93 c1       	rjmp	.+806    	; 0x1fc4 <__vector_24+0x41a>
			}
			else	//process writing
			{
				if (twi_bufor[twi_buf_pos.tail].lenght > 1){	//if more than 1 char to write
    1c9e:	84 e1       	ldi	r24, 0x14	; 20
    1ca0:	84 9f       	mul	r24, r20
    1ca2:	f0 01       	movw	r30, r0
    1ca4:	85 9f       	mul	r24, r21
    1ca6:	f0 0d       	add	r31, r0
    1ca8:	11 24       	eor	r1, r1
    1caa:	e4 54       	subi	r30, 0x44	; 68
    1cac:	fc 4f       	sbci	r31, 0xFC	; 252
    1cae:	87 85       	ldd	r24, Z+15	; 0x0f
    1cb0:	82 30       	cpi	r24, 0x02	; 2
    1cb2:	e8 f0       	brcs	.+58     	; 0x1cee <__vector_24+0x144>
					TWI_write(twi_bufor[twi_buf_pos.tail].bufor[0]);
    1cb4:	84 e1       	ldi	r24, 0x14	; 20
    1cb6:	84 9f       	mul	r24, r20
    1cb8:	f0 01       	movw	r30, r0
    1cba:	85 9f       	mul	r24, r21
    1cbc:	f0 0d       	add	r31, r0
    1cbe:	11 24       	eor	r1, r1
    1cc0:	e4 54       	subi	r30, 0x44	; 68
    1cc2:	fc 4f       	sbci	r31, 0xFC	; 252
    1cc4:	92 81       	ldd	r25, Z+2	; 0x02
void TWI_stop(void) {
	TWCR0 = (1<<TWINT)|(1<<TWEN)|(1<<TWSTO)|(1<<TWIE);
}

void TWI_write(uint8_t bajt) {
	TWDR0 = bajt;
    1cc6:	90 93 bb 00 	sts	0x00BB, r25	; 0x8000bb <__TEXT_REGION_LENGTH__+0x7e00bb>
	TWCR0 = (1<<TWINT)|(1<<TWEN)|(1<<TWIE);
    1cca:	95 e8       	ldi	r25, 0x85	; 133
    1ccc:	90 93 bc 00 	sts	0x00BC, r25	; 0x8000bc <__TEXT_REGION_LENGTH__+0x7e00bc>
			}
			else	//process writing
			{
				if (twi_bufor[twi_buf_pos.tail].lenght > 1){	//if more than 1 char to write
					TWI_write(twi_bufor[twi_buf_pos.tail].bufor[0]);
					twi_bufor[twi_buf_pos.tail].status = write;
    1cd0:	e0 91 bb 03 	lds	r30, 0x03BB	; 0x8003bb <twi_buf_pos>
    1cd4:	e6 95       	lsr	r30
    1cd6:	e6 95       	lsr	r30
    1cd8:	e6 95       	lsr	r30
    1cda:	e7 70       	andi	r30, 0x07	; 7
    1cdc:	8e 9f       	mul	r24, r30
    1cde:	f0 01       	movw	r30, r0
    1ce0:	11 24       	eor	r1, r1
    1ce2:	e4 54       	subi	r30, 0x44	; 68
    1ce4:	fc 4f       	sbci	r31, 0xFC	; 252
    1ce6:	8b e0       	ldi	r24, 0x0B	; 11
    1ce8:	83 8b       	std	Z+19, r24	; 0x13
					twi_bufor[twi_buf_pos.tail].buf_pos = 0;
    1cea:	14 86       	std	Z+12, r1	; 0x0c
    1cec:	1b c0       	rjmp	.+54     	; 0x1d24 <__vector_24+0x17a>
				}

				else {	//only 1 byte to send
					TWI_write(twi_bufor[twi_buf_pos.tail].bufor[0]);
    1cee:	84 e1       	ldi	r24, 0x14	; 20
    1cf0:	84 9f       	mul	r24, r20
    1cf2:	f0 01       	movw	r30, r0
    1cf4:	85 9f       	mul	r24, r21
    1cf6:	f0 0d       	add	r31, r0
    1cf8:	11 24       	eor	r1, r1
    1cfa:	e4 54       	subi	r30, 0x44	; 68
    1cfc:	fc 4f       	sbci	r31, 0xFC	; 252
    1cfe:	92 81       	ldd	r25, Z+2	; 0x02
void TWI_stop(void) {
	TWCR0 = (1<<TWINT)|(1<<TWEN)|(1<<TWSTO)|(1<<TWIE);
}

void TWI_write(uint8_t bajt) {
	TWDR0 = bajt;
    1d00:	90 93 bb 00 	sts	0x00BB, r25	; 0x8000bb <__TEXT_REGION_LENGTH__+0x7e00bb>
	TWCR0 = (1<<TWINT)|(1<<TWEN)|(1<<TWIE);
    1d04:	95 e8       	ldi	r25, 0x85	; 133
    1d06:	90 93 bc 00 	sts	0x00BC, r25	; 0x8000bc <__TEXT_REGION_LENGTH__+0x7e00bc>
					twi_bufor[twi_buf_pos.tail].buf_pos = 0;
				}

				else {	//only 1 byte to send
					TWI_write(twi_bufor[twi_buf_pos.tail].bufor[0]);
					twi_bufor[twi_buf_pos.tail].status = last_byte_write;
    1d0a:	e0 91 bb 03 	lds	r30, 0x03BB	; 0x8003bb <twi_buf_pos>
    1d0e:	e6 95       	lsr	r30
    1d10:	e6 95       	lsr	r30
    1d12:	e6 95       	lsr	r30
    1d14:	e7 70       	andi	r30, 0x07	; 7
    1d16:	8e 9f       	mul	r24, r30
    1d18:	f0 01       	movw	r30, r0
    1d1a:	11 24       	eor	r1, r1
    1d1c:	e4 54       	subi	r30, 0x44	; 68
    1d1e:	fc 4f       	sbci	r31, 0xFC	; 252
    1d20:	8c e0       	ldi	r24, 0x0C	; 12
    1d22:	83 8b       	std	Z+19, r24	; 0x13
				}
				twi_bufor[twi_buf_pos.tail].lenght --;
    1d24:	e0 91 bb 03 	lds	r30, 0x03BB	; 0x8003bb <twi_buf_pos>
    1d28:	e6 95       	lsr	r30
    1d2a:	e6 95       	lsr	r30
    1d2c:	e6 95       	lsr	r30
    1d2e:	e7 70       	andi	r30, 0x07	; 7
    1d30:	84 e1       	ldi	r24, 0x14	; 20
    1d32:	e8 9f       	mul	r30, r24
    1d34:	f0 01       	movw	r30, r0
    1d36:	11 24       	eor	r1, r1
    1d38:	e4 54       	subi	r30, 0x44	; 68
    1d3a:	fc 4f       	sbci	r31, 0xFC	; 252
    1d3c:	87 85       	ldd	r24, Z+15	; 0x0f
    1d3e:	81 50       	subi	r24, 0x01	; 1
    1d40:	87 87       	std	Z+15, r24	; 0x0f
    1d42:	40 c1       	rjmp	.+640    	; 0x1fc4 <__vector_24+0x41a>
			}
			break;

		case restart:
			SLA++;
    1d44:	81 e0       	ldi	r24, 0x01	; 1
    1d46:	82 0f       	add	r24, r18
void TWI_stop(void) {
	TWCR0 = (1<<TWINT)|(1<<TWEN)|(1<<TWSTO)|(1<<TWIE);
}

void TWI_write(uint8_t bajt) {
	TWDR0 = bajt;
    1d48:	80 93 bb 00 	sts	0x00BB, r24	; 0x8000bb <__TEXT_REGION_LENGTH__+0x7e00bb>
	TWCR0 = (1<<TWINT)|(1<<TWEN)|(1<<TWIE);
    1d4c:	85 e8       	ldi	r24, 0x85	; 133
    1d4e:	80 93 bc 00 	sts	0x00BC, r24	; 0x8000bc <__TEXT_REGION_LENGTH__+0x7e00bc>
			break;

		case restart:
			SLA++;
			TWI_write(SLA);
			twi_bufor[twi_buf_pos.tail].status = set_to_read;
    1d52:	e0 91 bb 03 	lds	r30, 0x03BB	; 0x8003bb <twi_buf_pos>
    1d56:	e6 95       	lsr	r30
    1d58:	e6 95       	lsr	r30
    1d5a:	e6 95       	lsr	r30
    1d5c:	e7 70       	andi	r30, 0x07	; 7
    1d5e:	84 e1       	ldi	r24, 0x14	; 20
    1d60:	e8 9f       	mul	r30, r24
    1d62:	f0 01       	movw	r30, r0
    1d64:	11 24       	eor	r1, r1
    1d66:	e4 54       	subi	r30, 0x44	; 68
    1d68:	fc 4f       	sbci	r31, 0xFC	; 252
    1d6a:	88 e0       	ldi	r24, 0x08	; 8
    1d6c:	83 8b       	std	Z+19, r24	; 0x13
			break;
    1d6e:	2a c1       	rjmp	.+596    	; 0x1fc4 <__vector_24+0x41a>

		case set_to_read:
			if (twi_bufor[twi_buf_pos.tail].lenght > 1){
    1d70:	84 e1       	ldi	r24, 0x14	; 20
    1d72:	84 9f       	mul	r24, r20
    1d74:	f0 01       	movw	r30, r0
    1d76:	85 9f       	mul	r24, r21
    1d78:	f0 0d       	add	r31, r0
    1d7a:	11 24       	eor	r1, r1
    1d7c:	e4 54       	subi	r30, 0x44	; 68
    1d7e:	fc 4f       	sbci	r31, 0xFC	; 252
    1d80:	87 85       	ldd	r24, Z+15	; 0x0f
    1d82:	82 30       	cpi	r24, 0x02	; 2
    1d84:	90 f0       	brcs	.+36     	; 0x1daa <__vector_24+0x200>
	TWDR0 = bajt;
	TWCR0 = (1<<TWINT)|(1<<TWEN)|(1<<TWIE);
}

void TWI_read(uint8_t ack) {
	TWCR0 = (1<<TWINT)|(ack<<TWEA)|(1<<TWEN)|(1<<TWIE);
    1d86:	85 ec       	ldi	r24, 0xC5	; 197
    1d88:	80 93 bc 00 	sts	0x00BC, r24	; 0x8000bc <__TEXT_REGION_LENGTH__+0x7e00bc>
			break;

		case set_to_read:
			if (twi_bufor[twi_buf_pos.tail].lenght > 1){
				TWI_read(ACK);
				twi_bufor[twi_buf_pos.tail].status = read;
    1d8c:	e0 91 bb 03 	lds	r30, 0x03BB	; 0x8003bb <twi_buf_pos>
    1d90:	e6 95       	lsr	r30
    1d92:	e6 95       	lsr	r30
    1d94:	e6 95       	lsr	r30
    1d96:	e7 70       	andi	r30, 0x07	; 7
    1d98:	84 e1       	ldi	r24, 0x14	; 20
    1d9a:	e8 9f       	mul	r30, r24
    1d9c:	f0 01       	movw	r30, r0
    1d9e:	11 24       	eor	r1, r1
    1da0:	e4 54       	subi	r30, 0x44	; 68
    1da2:	fc 4f       	sbci	r31, 0xFC	; 252
    1da4:	89 e0       	ldi	r24, 0x09	; 9
    1da6:	83 8b       	std	Z+19, r24	; 0x13
    1da8:	11 c0       	rjmp	.+34     	; 0x1dcc <__vector_24+0x222>
	TWDR0 = bajt;
	TWCR0 = (1<<TWINT)|(1<<TWEN)|(1<<TWIE);
}

void TWI_read(uint8_t ack) {
	TWCR0 = (1<<TWINT)|(ack<<TWEA)|(1<<TWEN)|(1<<TWIE);
    1daa:	85 e8       	ldi	r24, 0x85	; 133
    1dac:	80 93 bc 00 	sts	0x00BC, r24	; 0x8000bc <__TEXT_REGION_LENGTH__+0x7e00bc>

			}
			
			else{
				TWI_read(NACK);
				twi_bufor[twi_buf_pos.tail].status = stop_reading;
    1db0:	e0 91 bb 03 	lds	r30, 0x03BB	; 0x8003bb <twi_buf_pos>
    1db4:	e6 95       	lsr	r30
    1db6:	e6 95       	lsr	r30
    1db8:	e6 95       	lsr	r30
    1dba:	e7 70       	andi	r30, 0x07	; 7
    1dbc:	84 e1       	ldi	r24, 0x14	; 20
    1dbe:	e8 9f       	mul	r30, r24
    1dc0:	f0 01       	movw	r30, r0
    1dc2:	11 24       	eor	r1, r1
    1dc4:	e4 54       	subi	r30, 0x44	; 68
    1dc6:	fc 4f       	sbci	r31, 0xFC	; 252
    1dc8:	8a e0       	ldi	r24, 0x0A	; 10
    1dca:	83 8b       	std	Z+19, r24	; 0x13
			}

			twi_bufor[twi_buf_pos.tail].lenght --;
    1dcc:	e0 91 bb 03 	lds	r30, 0x03BB	; 0x8003bb <twi_buf_pos>
    1dd0:	e6 95       	lsr	r30
    1dd2:	e6 95       	lsr	r30
    1dd4:	e6 95       	lsr	r30
    1dd6:	e7 70       	andi	r30, 0x07	; 7
    1dd8:	84 e1       	ldi	r24, 0x14	; 20
    1dda:	e8 9f       	mul	r30, r24
    1ddc:	f0 01       	movw	r30, r0
    1dde:	11 24       	eor	r1, r1
    1de0:	e4 54       	subi	r30, 0x44	; 68
    1de2:	fc 4f       	sbci	r31, 0xFC	; 252
    1de4:	87 85       	ldd	r24, Z+15	; 0x0f
    1de6:	81 50       	subi	r24, 0x01	; 1
    1de8:	87 87       	std	Z+15, r24	; 0x0f
			break;
    1dea:	ec c0       	rjmp	.+472    	; 0x1fc4 <__vector_24+0x41a>

		case read:
			*twi_bufor[twi_buf_pos.tail].bufor_ref++ = TWDR0;	//read received byte
    1dec:	84 e1       	ldi	r24, 0x14	; 20
    1dee:	84 9f       	mul	r24, r20
    1df0:	f0 01       	movw	r30, r0
    1df2:	85 9f       	mul	r24, r21
    1df4:	f0 0d       	add	r31, r0
    1df6:	11 24       	eor	r1, r1
    1df8:	e4 54       	subi	r30, 0x44	; 68
    1dfa:	fc 4f       	sbci	r31, 0xFC	; 252
    1dfc:	a5 85       	ldd	r26, Z+13	; 0x0d
    1dfe:	b6 85       	ldd	r27, Z+14	; 0x0e
    1e00:	9d 01       	movw	r18, r26
    1e02:	2f 5f       	subi	r18, 0xFF	; 255
    1e04:	3f 4f       	sbci	r19, 0xFF	; 255
    1e06:	36 87       	std	Z+14, r19	; 0x0e
    1e08:	25 87       	std	Z+13, r18	; 0x0d
    1e0a:	90 91 bb 00 	lds	r25, 0x00BB	; 0x8000bb <__TEXT_REGION_LENGTH__+0x7e00bb>
    1e0e:	9c 93       	st	X, r25
			if (twi_bufor[twi_buf_pos.tail].lenght > 1){
    1e10:	e0 91 bb 03 	lds	r30, 0x03BB	; 0x8003bb <twi_buf_pos>
    1e14:	e6 95       	lsr	r30
    1e16:	e6 95       	lsr	r30
    1e18:	e6 95       	lsr	r30
    1e1a:	e7 70       	andi	r30, 0x07	; 7
    1e1c:	8e 9f       	mul	r24, r30
    1e1e:	f0 01       	movw	r30, r0
    1e20:	11 24       	eor	r1, r1
    1e22:	e4 54       	subi	r30, 0x44	; 68
    1e24:	fc 4f       	sbci	r31, 0xFC	; 252
    1e26:	87 85       	ldd	r24, Z+15	; 0x0f
    1e28:	82 30       	cpi	r24, 0x02	; 2
    1e2a:	90 f0       	brcs	.+36     	; 0x1e50 <__vector_24+0x2a6>
	TWDR0 = bajt;
	TWCR0 = (1<<TWINT)|(1<<TWEN)|(1<<TWIE);
}

void TWI_read(uint8_t ack) {
	TWCR0 = (1<<TWINT)|(ack<<TWEA)|(1<<TWEN)|(1<<TWIE);
    1e2c:	85 ec       	ldi	r24, 0xC5	; 197
    1e2e:	80 93 bc 00 	sts	0x00BC, r24	; 0x8000bc <__TEXT_REGION_LENGTH__+0x7e00bc>

		case read:
			*twi_bufor[twi_buf_pos.tail].bufor_ref++ = TWDR0;	//read received byte
			if (twi_bufor[twi_buf_pos.tail].lenght > 1){
				TWI_read(ACK);	//going to read more
				twi_bufor[twi_buf_pos.tail].status = read;
    1e32:	e0 91 bb 03 	lds	r30, 0x03BB	; 0x8003bb <twi_buf_pos>
    1e36:	e6 95       	lsr	r30
    1e38:	e6 95       	lsr	r30
    1e3a:	e6 95       	lsr	r30
    1e3c:	e7 70       	andi	r30, 0x07	; 7
    1e3e:	84 e1       	ldi	r24, 0x14	; 20
    1e40:	e8 9f       	mul	r30, r24
    1e42:	f0 01       	movw	r30, r0
    1e44:	11 24       	eor	r1, r1
    1e46:	e4 54       	subi	r30, 0x44	; 68
    1e48:	fc 4f       	sbci	r31, 0xFC	; 252
    1e4a:	89 e0       	ldi	r24, 0x09	; 9
    1e4c:	83 8b       	std	Z+19, r24	; 0x13
    1e4e:	11 c0       	rjmp	.+34     	; 0x1e72 <__vector_24+0x2c8>
	TWDR0 = bajt;
	TWCR0 = (1<<TWINT)|(1<<TWEN)|(1<<TWIE);
}

void TWI_read(uint8_t ack) {
	TWCR0 = (1<<TWINT)|(ack<<TWEA)|(1<<TWEN)|(1<<TWIE);
    1e50:	85 e8       	ldi	r24, 0x85	; 133
    1e52:	80 93 bc 00 	sts	0x00BC, r24	; 0x8000bc <__TEXT_REGION_LENGTH__+0x7e00bc>
				TWI_read(ACK);	//going to read more
				twi_bufor[twi_buf_pos.tail].status = read;
			}
			else{
				TWI_read(NACK);	//finishing reading
				twi_bufor[twi_buf_pos.tail].status = stop_reading;
    1e56:	e0 91 bb 03 	lds	r30, 0x03BB	; 0x8003bb <twi_buf_pos>
    1e5a:	e6 95       	lsr	r30
    1e5c:	e6 95       	lsr	r30
    1e5e:	e6 95       	lsr	r30
    1e60:	e7 70       	andi	r30, 0x07	; 7
    1e62:	84 e1       	ldi	r24, 0x14	; 20
    1e64:	e8 9f       	mul	r30, r24
    1e66:	f0 01       	movw	r30, r0
    1e68:	11 24       	eor	r1, r1
    1e6a:	e4 54       	subi	r30, 0x44	; 68
    1e6c:	fc 4f       	sbci	r31, 0xFC	; 252
    1e6e:	8a e0       	ldi	r24, 0x0A	; 10
    1e70:	83 8b       	std	Z+19, r24	; 0x13
			}
			twi_bufor[twi_buf_pos.tail].lenght --;
    1e72:	e0 91 bb 03 	lds	r30, 0x03BB	; 0x8003bb <twi_buf_pos>
    1e76:	e6 95       	lsr	r30
    1e78:	e6 95       	lsr	r30
    1e7a:	e6 95       	lsr	r30
    1e7c:	e7 70       	andi	r30, 0x07	; 7
    1e7e:	84 e1       	ldi	r24, 0x14	; 20
    1e80:	e8 9f       	mul	r30, r24
    1e82:	f0 01       	movw	r30, r0
    1e84:	11 24       	eor	r1, r1
    1e86:	e4 54       	subi	r30, 0x44	; 68
    1e88:	fc 4f       	sbci	r31, 0xFC	; 252
    1e8a:	87 85       	ldd	r24, Z+15	; 0x0f
    1e8c:	81 50       	subi	r24, 0x01	; 1
    1e8e:	87 87       	std	Z+15, r24	; 0x0f
			break;
    1e90:	99 c0       	rjmp	.+306    	; 0x1fc4 <__vector_24+0x41a>

		case stop_reading:
			*twi_bufor[twi_buf_pos.tail].bufor_ref++ = TWDR0;	//read last received byte
    1e92:	84 e1       	ldi	r24, 0x14	; 20
    1e94:	84 9f       	mul	r24, r20
    1e96:	f0 01       	movw	r30, r0
    1e98:	85 9f       	mul	r24, r21
    1e9a:	f0 0d       	add	r31, r0
    1e9c:	11 24       	eor	r1, r1
    1e9e:	e4 54       	subi	r30, 0x44	; 68
    1ea0:	fc 4f       	sbci	r31, 0xFC	; 252
    1ea2:	a5 85       	ldd	r26, Z+13	; 0x0d
    1ea4:	b6 85       	ldd	r27, Z+14	; 0x0e
    1ea6:	9d 01       	movw	r18, r26
    1ea8:	2f 5f       	subi	r18, 0xFF	; 255
    1eaa:	3f 4f       	sbci	r19, 0xFF	; 255
    1eac:	36 87       	std	Z+14, r19	; 0x0e
    1eae:	25 87       	std	Z+13, r18	; 0x0d
    1eb0:	90 91 bb 00 	lds	r25, 0x00BB	; 0x8000bb <__TEXT_REGION_LENGTH__+0x7e00bb>
    1eb4:	9c 93       	st	X, r25
			*twi_bufor[twi_buf_pos.tail].flag_register = twi_bufor[twi_buf_pos.tail].flag_mask;	//set read done flag
    1eb6:	e0 91 bb 03 	lds	r30, 0x03BB	; 0x8003bb <twi_buf_pos>
    1eba:	e6 95       	lsr	r30
    1ebc:	e6 95       	lsr	r30
    1ebe:	e6 95       	lsr	r30
    1ec0:	e7 70       	andi	r30, 0x07	; 7
    1ec2:	8e 9f       	mul	r24, r30
    1ec4:	f0 01       	movw	r30, r0
    1ec6:	11 24       	eor	r1, r1
    1ec8:	e4 54       	subi	r30, 0x44	; 68
    1eca:	fc 4f       	sbci	r31, 0xFC	; 252
    1ecc:	a0 89       	ldd	r26, Z+16	; 0x10
    1ece:	b1 89       	ldd	r27, Z+17	; 0x11
    1ed0:	92 89       	ldd	r25, Z+18	; 0x12
    1ed2:	9c 93       	st	X, r25
void TWI_start(void) {
	TWCR0 = (1<<TWINT)|(1<<TWEN)|(1<<TWSTA)|(1<<TWIE);
}

void TWI_stop(void) {
	TWCR0 = (1<<TWINT)|(1<<TWEN)|(1<<TWSTO)|(1<<TWIE);
    1ed4:	95 e9       	ldi	r25, 0x95	; 149
    1ed6:	90 93 bc 00 	sts	0x00BC, r25	; 0x8000bc <__TEXT_REGION_LENGTH__+0x7e00bc>

		case stop_reading:
			*twi_bufor[twi_buf_pos.tail].bufor_ref++ = TWDR0;	//read last received byte
			*twi_bufor[twi_buf_pos.tail].flag_register = twi_bufor[twi_buf_pos.tail].flag_mask;	//set read done flag
			TWI_stop();
			twi_bufor[twi_buf_pos.tail].status = done;
    1eda:	e0 91 bb 03 	lds	r30, 0x03BB	; 0x8003bb <twi_buf_pos>
    1ede:	e6 95       	lsr	r30
    1ee0:	e6 95       	lsr	r30
    1ee2:	e6 95       	lsr	r30
    1ee4:	e7 70       	andi	r30, 0x07	; 7
    1ee6:	8e 9f       	mul	r24, r30
    1ee8:	f0 01       	movw	r30, r0
    1eea:	11 24       	eor	r1, r1
    1eec:	e4 54       	subi	r30, 0x44	; 68
    1eee:	fc 4f       	sbci	r31, 0xFC	; 252
    1ef0:	81 e0       	ldi	r24, 0x01	; 1
    1ef2:	83 8b       	std	Z+19, r24	; 0x13
			break;
    1ef4:	67 c0       	rjmp	.+206    	; 0x1fc4 <__vector_24+0x41a>

		case write:
			if (twi_bufor[twi_buf_pos.tail].lenght > 1){	//if more than 1 char to write
    1ef6:	84 e1       	ldi	r24, 0x14	; 20
    1ef8:	84 9f       	mul	r24, r20
    1efa:	f0 01       	movw	r30, r0
    1efc:	85 9f       	mul	r24, r21
    1efe:	f0 0d       	add	r31, r0
    1f00:	11 24       	eor	r1, r1
    1f02:	e4 54       	subi	r30, 0x44	; 68
    1f04:	fc 4f       	sbci	r31, 0xFC	; 252
    1f06:	87 85       	ldd	r24, Z+15	; 0x0f
    1f08:	82 30       	cpi	r24, 0x02	; 2
    1f0a:	e8 f0       	brcs	.+58     	; 0x1f46 <__vector_24+0x39c>
				TWI_write(twi_bufor[twi_buf_pos.tail].bufor[0]);
    1f0c:	84 e1       	ldi	r24, 0x14	; 20
    1f0e:	84 9f       	mul	r24, r20
    1f10:	f0 01       	movw	r30, r0
    1f12:	85 9f       	mul	r24, r21
    1f14:	f0 0d       	add	r31, r0
    1f16:	11 24       	eor	r1, r1
    1f18:	e4 54       	subi	r30, 0x44	; 68
    1f1a:	fc 4f       	sbci	r31, 0xFC	; 252
    1f1c:	92 81       	ldd	r25, Z+2	; 0x02
void TWI_stop(void) {
	TWCR0 = (1<<TWINT)|(1<<TWEN)|(1<<TWSTO)|(1<<TWIE);
}

void TWI_write(uint8_t bajt) {
	TWDR0 = bajt;
    1f1e:	90 93 bb 00 	sts	0x00BB, r25	; 0x8000bb <__TEXT_REGION_LENGTH__+0x7e00bb>
	TWCR0 = (1<<TWINT)|(1<<TWEN)|(1<<TWIE);
    1f22:	95 e8       	ldi	r25, 0x85	; 133
    1f24:	90 93 bc 00 	sts	0x00BC, r25	; 0x8000bc <__TEXT_REGION_LENGTH__+0x7e00bc>
			break;

		case write:
			if (twi_bufor[twi_buf_pos.tail].lenght > 1){	//if more than 1 char to write
				TWI_write(twi_bufor[twi_buf_pos.tail].bufor[0]);
				twi_bufor[twi_buf_pos.tail].status = write;
    1f28:	e0 91 bb 03 	lds	r30, 0x03BB	; 0x8003bb <twi_buf_pos>
    1f2c:	e6 95       	lsr	r30
    1f2e:	e6 95       	lsr	r30
    1f30:	e6 95       	lsr	r30
    1f32:	e7 70       	andi	r30, 0x07	; 7
    1f34:	8e 9f       	mul	r24, r30
    1f36:	f0 01       	movw	r30, r0
    1f38:	11 24       	eor	r1, r1
    1f3a:	e4 54       	subi	r30, 0x44	; 68
    1f3c:	fc 4f       	sbci	r31, 0xFC	; 252
    1f3e:	8b e0       	ldi	r24, 0x0B	; 11
    1f40:	83 8b       	std	Z+19, r24	; 0x13
				twi_bufor[twi_buf_pos.tail].buf_pos = 0;
    1f42:	14 86       	std	Z+12, r1	; 0x0c
    1f44:	1b c0       	rjmp	.+54     	; 0x1f7c <__vector_24+0x3d2>
			}

			else {	//only 1 byte to send
				TWI_write(twi_bufor[twi_buf_pos.tail].bufor[0]);
    1f46:	84 e1       	ldi	r24, 0x14	; 20
    1f48:	84 9f       	mul	r24, r20
    1f4a:	f0 01       	movw	r30, r0
    1f4c:	85 9f       	mul	r24, r21
    1f4e:	f0 0d       	add	r31, r0
    1f50:	11 24       	eor	r1, r1
    1f52:	e4 54       	subi	r30, 0x44	; 68
    1f54:	fc 4f       	sbci	r31, 0xFC	; 252
    1f56:	92 81       	ldd	r25, Z+2	; 0x02
void TWI_stop(void) {
	TWCR0 = (1<<TWINT)|(1<<TWEN)|(1<<TWSTO)|(1<<TWIE);
}

void TWI_write(uint8_t bajt) {
	TWDR0 = bajt;
    1f58:	90 93 bb 00 	sts	0x00BB, r25	; 0x8000bb <__TEXT_REGION_LENGTH__+0x7e00bb>
	TWCR0 = (1<<TWINT)|(1<<TWEN)|(1<<TWIE);
    1f5c:	95 e8       	ldi	r25, 0x85	; 133
    1f5e:	90 93 bc 00 	sts	0x00BC, r25	; 0x8000bc <__TEXT_REGION_LENGTH__+0x7e00bc>
				twi_bufor[twi_buf_pos.tail].buf_pos = 0;
			}

			else {	//only 1 byte to send
				TWI_write(twi_bufor[twi_buf_pos.tail].bufor[0]);
				twi_bufor[twi_buf_pos.tail].status = last_byte_write;
    1f62:	e0 91 bb 03 	lds	r30, 0x03BB	; 0x8003bb <twi_buf_pos>
    1f66:	e6 95       	lsr	r30
    1f68:	e6 95       	lsr	r30
    1f6a:	e6 95       	lsr	r30
    1f6c:	e7 70       	andi	r30, 0x07	; 7
    1f6e:	8e 9f       	mul	r24, r30
    1f70:	f0 01       	movw	r30, r0
    1f72:	11 24       	eor	r1, r1
    1f74:	e4 54       	subi	r30, 0x44	; 68
    1f76:	fc 4f       	sbci	r31, 0xFC	; 252
    1f78:	8c e0       	ldi	r24, 0x0C	; 12
    1f7a:	83 8b       	std	Z+19, r24	; 0x13
			}
			twi_bufor[twi_buf_pos.tail].lenght --;
    1f7c:	e0 91 bb 03 	lds	r30, 0x03BB	; 0x8003bb <twi_buf_pos>
    1f80:	e6 95       	lsr	r30
    1f82:	e6 95       	lsr	r30
    1f84:	e6 95       	lsr	r30
    1f86:	e7 70       	andi	r30, 0x07	; 7
    1f88:	84 e1       	ldi	r24, 0x14	; 20
    1f8a:	e8 9f       	mul	r30, r24
    1f8c:	f0 01       	movw	r30, r0
    1f8e:	11 24       	eor	r1, r1
    1f90:	e4 54       	subi	r30, 0x44	; 68
    1f92:	fc 4f       	sbci	r31, 0xFC	; 252
    1f94:	87 85       	ldd	r24, Z+15	; 0x0f
    1f96:	81 50       	subi	r24, 0x01	; 1
    1f98:	87 87       	std	Z+15, r24	; 0x0f
			break;
    1f9a:	14 c0       	rjmp	.+40     	; 0x1fc4 <__vector_24+0x41a>
void TWI_start(void) {
	TWCR0 = (1<<TWINT)|(1<<TWEN)|(1<<TWSTA)|(1<<TWIE);
}

void TWI_stop(void) {
	TWCR0 = (1<<TWINT)|(1<<TWEN)|(1<<TWSTO)|(1<<TWIE);
    1f9c:	85 e9       	ldi	r24, 0x95	; 149
    1f9e:	80 93 bc 00 	sts	0x00BC, r24	; 0x8000bc <__TEXT_REGION_LENGTH__+0x7e00bc>
			twi_bufor[twi_buf_pos.tail].lenght --;
			break;

		case last_byte_write:
			TWI_stop();
			twi_bufor[twi_buf_pos.tail].status = done;
    1fa2:	e0 91 bb 03 	lds	r30, 0x03BB	; 0x8003bb <twi_buf_pos>
    1fa6:	e6 95       	lsr	r30
    1fa8:	e6 95       	lsr	r30
    1faa:	e6 95       	lsr	r30
    1fac:	e7 70       	andi	r30, 0x07	; 7
    1fae:	84 e1       	ldi	r24, 0x14	; 20
    1fb0:	e8 9f       	mul	r30, r24
    1fb2:	f0 01       	movw	r30, r0
    1fb4:	11 24       	eor	r1, r1
    1fb6:	e4 54       	subi	r30, 0x44	; 68
    1fb8:	fc 4f       	sbci	r31, 0xFC	; 252
    1fba:	81 e0       	ldi	r24, 0x01	; 1
    1fbc:	83 8b       	std	Z+19, r24	; 0x13
			twi_reset_counter = 0xFF;	//turn of timer, sending procedure finished correctly
    1fbe:	8f ef       	ldi	r24, 0xFF	; 255
    1fc0:	80 93 b8 03 	sts	0x03B8, r24	; 0x8003b8 <twi_reset_counter>

		default:

			break;
	}
    1fc4:	ff 91       	pop	r31
    1fc6:	ef 91       	pop	r30
    1fc8:	bf 91       	pop	r27
    1fca:	af 91       	pop	r26
    1fcc:	9f 91       	pop	r25
    1fce:	8f 91       	pop	r24
    1fd0:	5f 91       	pop	r21
    1fd2:	4f 91       	pop	r20
    1fd4:	3f 91       	pop	r19
    1fd6:	2f 91       	pop	r18
    1fd8:	0f 90       	pop	r0
    1fda:	0f be       	out	0x3f, r0	; 63
    1fdc:	0f 90       	pop	r0
    1fde:	1f 90       	pop	r1
    1fe0:	18 95       	reti

00001fe2 <er_service>:
		
}

int8_t er_service(char * params)
{
	SendLine("Uart is working");
    1fe2:	83 ef       	ldi	r24, 0xF3	; 243
    1fe4:	91 e0       	ldi	r25, 0x01	; 1
    1fe6:	0e 94 99 11 	call	0x2332	; 0x2332 <SendLine>
	return 0;
}
    1fea:	80 e0       	ldi	r24, 0x00	; 0
    1fec:	08 95       	ret

00001fee <er_read>:

int8_t er_read(char * params)
{
    1fee:	cf 93       	push	r28
    1ff0:	df 93       	push	r29
    1ff2:	cd b7       	in	r28, 0x3d	; 61
    1ff4:	de b7       	in	r29, 0x3e	; 62
    1ff6:	2c 97       	sbiw	r28, 0x0c	; 12
    1ff8:	0f b6       	in	r0, 0x3f	; 63
    1ffa:	f8 94       	cli
    1ffc:	de bf       	out	0x3e, r29	; 62
    1ffe:	0f be       	out	0x3f, r0	; 63
    2000:	cd bf       	out	0x3d, r28	; 61
	int16_t gyro[3];
	int16_t acc[3];
	
	ReadGyroSample_ViewOnly(gyro);
    2002:	ce 01       	movw	r24, r28
    2004:	01 96       	adiw	r24, 0x01	; 1
    2006:	0e 94 94 01 	call	0x328	; 0x328 <ReadGyroSample_ViewOnly>
	ReadAccSample_ViewOnly(acc);
    200a:	ce 01       	movw	r24, r28
    200c:	07 96       	adiw	r24, 0x07	; 7
    200e:	0e 94 b3 01 	call	0x366	; 0x366 <ReadAccSample_ViewOnly>

	SendStringInt("G X ", gyro[0]);
    2012:	49 81       	ldd	r20, Y+1	; 0x01
    2014:	5a 81       	ldd	r21, Y+2	; 0x02
    2016:	05 2e       	mov	r0, r21
    2018:	00 0c       	add	r0, r0
    201a:	66 0b       	sbc	r22, r22
    201c:	77 0b       	sbc	r23, r23
    201e:	85 ed       	ldi	r24, 0xD5	; 213
    2020:	91 e0       	ldi	r25, 0x01	; 1
    2022:	0e 94 8f 12 	call	0x251e	; 0x251e <SendStringInt>
	SendStringInt("G Y ", gyro[1]);
    2026:	4b 81       	ldd	r20, Y+3	; 0x03
    2028:	5c 81       	ldd	r21, Y+4	; 0x04
    202a:	05 2e       	mov	r0, r21
    202c:	00 0c       	add	r0, r0
    202e:	66 0b       	sbc	r22, r22
    2030:	77 0b       	sbc	r23, r23
    2032:	8a ed       	ldi	r24, 0xDA	; 218
    2034:	91 e0       	ldi	r25, 0x01	; 1
    2036:	0e 94 8f 12 	call	0x251e	; 0x251e <SendStringInt>
	SendStringInt("G Z ", gyro[2]);
    203a:	4d 81       	ldd	r20, Y+5	; 0x05
    203c:	5e 81       	ldd	r21, Y+6	; 0x06
    203e:	05 2e       	mov	r0, r21
    2040:	00 0c       	add	r0, r0
    2042:	66 0b       	sbc	r22, r22
    2044:	77 0b       	sbc	r23, r23
    2046:	8f ed       	ldi	r24, 0xDF	; 223
    2048:	91 e0       	ldi	r25, 0x01	; 1
    204a:	0e 94 8f 12 	call	0x251e	; 0x251e <SendStringInt>
	SendStringInt("A X ", acc[0]);
    204e:	4f 81       	ldd	r20, Y+7	; 0x07
    2050:	58 85       	ldd	r21, Y+8	; 0x08
    2052:	05 2e       	mov	r0, r21
    2054:	00 0c       	add	r0, r0
    2056:	66 0b       	sbc	r22, r22
    2058:	77 0b       	sbc	r23, r23
    205a:	84 ee       	ldi	r24, 0xE4	; 228
    205c:	91 e0       	ldi	r25, 0x01	; 1
    205e:	0e 94 8f 12 	call	0x251e	; 0x251e <SendStringInt>
	SendStringInt("A Y ", acc[1]);
    2062:	49 85       	ldd	r20, Y+9	; 0x09
    2064:	5a 85       	ldd	r21, Y+10	; 0x0a
    2066:	05 2e       	mov	r0, r21
    2068:	00 0c       	add	r0, r0
    206a:	66 0b       	sbc	r22, r22
    206c:	77 0b       	sbc	r23, r23
    206e:	89 ee       	ldi	r24, 0xE9	; 233
    2070:	91 e0       	ldi	r25, 0x01	; 1
    2072:	0e 94 8f 12 	call	0x251e	; 0x251e <SendStringInt>
	SendStringInt("A Z ", acc[2]);
    2076:	4b 85       	ldd	r20, Y+11	; 0x0b
    2078:	5c 85       	ldd	r21, Y+12	; 0x0c
    207a:	05 2e       	mov	r0, r21
    207c:	00 0c       	add	r0, r0
    207e:	66 0b       	sbc	r22, r22
    2080:	77 0b       	sbc	r23, r23
    2082:	8e ee       	ldi	r24, 0xEE	; 238
    2084:	91 e0       	ldi	r25, 0x01	; 1
    2086:	0e 94 8f 12 	call	0x251e	; 0x251e <SendStringInt>

	return 0;
}
    208a:	80 e0       	ldi	r24, 0x00	; 0
    208c:	2c 96       	adiw	r28, 0x0c	; 12
    208e:	0f b6       	in	r0, 0x3f	; 63
    2090:	f8 94       	cli
    2092:	de bf       	out	0x3e, r29	; 62
    2094:	0f be       	out	0x3f, r0	; 63
    2096:	cd bf       	out	0x3d, r28	; 61
    2098:	df 91       	pop	r29
    209a:	cf 91       	pop	r28
    209c:	08 95       	ret

0000209e <er_buf>:

int8_t er_buf(char * params)
{
    209e:	cf 93       	push	r28
    20a0:	df 93       	push	r29
    20a2:	00 d0       	rcall	.+0      	; 0x20a4 <er_buf+0x6>
    20a4:	00 d0       	rcall	.+0      	; 0x20a6 <er_buf+0x8>
    20a6:	00 d0       	rcall	.+0      	; 0x20a8 <er_buf+0xa>
    20a8:	cd b7       	in	r28, 0x3d	; 61
    20aa:	de b7       	in	r29, 0x3e	; 62
	int16_t data[3];

	if (SamplesGyroBuf())
    20ac:	0e 94 d2 01 	call	0x3a4	; 0x3a4 <SamplesGyroBuf>
    20b0:	88 23       	and	r24, r24
    20b2:	c1 f0       	breq	.+48     	; 0x20e4 <er_buf+0x46>
	{
		ReadGyroBufAveraged(data);
    20b4:	ce 01       	movw	r24, r28
    20b6:	01 96       	adiw	r24, 0x01	; 1
    20b8:	0e 94 ea 02 	call	0x5d4	; 0x5d4 <ReadGyroBufAveraged>

 	 	SendStringInt("G X ", data[0]);
    20bc:	49 81       	ldd	r20, Y+1	; 0x01
    20be:	5a 81       	ldd	r21, Y+2	; 0x02
    20c0:	05 2e       	mov	r0, r21
    20c2:	00 0c       	add	r0, r0
    20c4:	66 0b       	sbc	r22, r22
    20c6:	77 0b       	sbc	r23, r23
    20c8:	85 ed       	ldi	r24, 0xD5	; 213
    20ca:	91 e0       	ldi	r25, 0x01	; 1
    20cc:	0e 94 8f 12 	call	0x251e	; 0x251e <SendStringInt>
 	 	SendStringInt("G Y ", data[1]);
    20d0:	4b 81       	ldd	r20, Y+3	; 0x03
    20d2:	5c 81       	ldd	r21, Y+4	; 0x04
    20d4:	05 2e       	mov	r0, r21
    20d6:	00 0c       	add	r0, r0
    20d8:	66 0b       	sbc	r22, r22
    20da:	77 0b       	sbc	r23, r23
    20dc:	8a ed       	ldi	r24, 0xDA	; 218
    20de:	91 e0       	ldi	r25, 0x01	; 1
    20e0:	0e 94 8f 12 	call	0x251e	; 0x251e <SendStringInt>
// 	 	SendStringInt("G Z ", data[2]);
	}

 	if (SamplesAccBuf())
    20e4:	0e 94 db 01 	call	0x3b6	; 0x3b6 <SamplesAccBuf>
    20e8:	88 23       	and	r24, r24
    20ea:	11 f1       	breq	.+68     	; 0x2130 <er_buf+0x92>
 	{
		ReadAccBufAveraged(data);
    20ec:	ce 01       	movw	r24, r28
    20ee:	01 96       	adiw	r24, 0x01	; 1
    20f0:	0e 94 e4 03 	call	0x7c8	; 0x7c8 <ReadAccBufAveraged>

		SendStringInt("A X ", data[0]);
    20f4:	49 81       	ldd	r20, Y+1	; 0x01
    20f6:	5a 81       	ldd	r21, Y+2	; 0x02
    20f8:	05 2e       	mov	r0, r21
    20fa:	00 0c       	add	r0, r0
    20fc:	66 0b       	sbc	r22, r22
    20fe:	77 0b       	sbc	r23, r23
    2100:	84 ee       	ldi	r24, 0xE4	; 228
    2102:	91 e0       	ldi	r25, 0x01	; 1
    2104:	0e 94 8f 12 	call	0x251e	; 0x251e <SendStringInt>
		SendStringInt("A Y ", data[1]);
    2108:	4b 81       	ldd	r20, Y+3	; 0x03
    210a:	5c 81       	ldd	r21, Y+4	; 0x04
    210c:	05 2e       	mov	r0, r21
    210e:	00 0c       	add	r0, r0
    2110:	66 0b       	sbc	r22, r22
    2112:	77 0b       	sbc	r23, r23
    2114:	89 ee       	ldi	r24, 0xE9	; 233
    2116:	91 e0       	ldi	r25, 0x01	; 1
    2118:	0e 94 8f 12 	call	0x251e	; 0x251e <SendStringInt>
		SendStringInt("A Z ", data[2]);
    211c:	4d 81       	ldd	r20, Y+5	; 0x05
    211e:	5e 81       	ldd	r21, Y+6	; 0x06
    2120:	05 2e       	mov	r0, r21
    2122:	00 0c       	add	r0, r0
    2124:	66 0b       	sbc	r22, r22
    2126:	77 0b       	sbc	r23, r23
    2128:	8e ee       	ldi	r24, 0xEE	; 238
    212a:	91 e0       	ldi	r25, 0x01	; 1
    212c:	0e 94 8f 12 	call	0x251e	; 0x251e <SendStringInt>
 	}

	SendStringInt("S ", SamplesAccBuf());
    2130:	0e 94 db 01 	call	0x3b6	; 0x3b6 <SamplesAccBuf>
    2134:	48 2f       	mov	r20, r24
    2136:	50 e0       	ldi	r21, 0x00	; 0
    2138:	60 e0       	ldi	r22, 0x00	; 0
    213a:	70 e0       	ldi	r23, 0x00	; 0
    213c:	83 e0       	ldi	r24, 0x03	; 3
    213e:	92 e0       	ldi	r25, 0x02	; 2
    2140:	0e 94 8f 12 	call	0x251e	; 0x251e <SendStringInt>
	return 0;
}
    2144:	80 e0       	ldi	r24, 0x00	; 0
    2146:	26 96       	adiw	r28, 0x06	; 6
    2148:	0f b6       	in	r0, 0x3f	; 63
    214a:	f8 94       	cli
    214c:	de bf       	out	0x3e, r29	; 62
    214e:	0f be       	out	0x3f, r0	; 63
    2150:	cd bf       	out	0x3d, r28	; 61
    2152:	df 91       	pop	r29
    2154:	cf 91       	pop	r28
    2156:	08 95       	ret

00002158 <er_dbg>:

int8_t er_dbg(char * params)
{
	EnableDebug();
    2158:	0e 94 0e 04 	call	0x81c	; 0x81c <EnableDebug>
}
    215c:	08 95       	ret

0000215e <er_sbus>:

int8_t er_sbus(char * params)
{
    215e:	cf 93       	push	r28
    2160:	df 93       	push	r29
	SendStringUint("Ch 1 ", channel_value[1]);
    2162:	c6 e3       	ldi	r28, 0x36	; 54
    2164:	d3 e0       	ldi	r29, 0x03	; 3
    2166:	6a 81       	ldd	r22, Y+2	; 0x02
    2168:	7b 81       	ldd	r23, Y+3	; 0x03
    216a:	81 e9       	ldi	r24, 0x91	; 145
    216c:	91 e0       	ldi	r25, 0x01	; 1
    216e:	0e 94 51 13 	call	0x26a2	; 0x26a2 <SendStringUint>
	SendStringUint("Ch 2 ", channel_value[2]);
    2172:	6c 81       	ldd	r22, Y+4	; 0x04
    2174:	7d 81       	ldd	r23, Y+5	; 0x05
    2176:	87 e9       	ldi	r24, 0x97	; 151
    2178:	91 e0       	ldi	r25, 0x01	; 1
    217a:	0e 94 51 13 	call	0x26a2	; 0x26a2 <SendStringUint>
	SendStringUint("Ch 3 ", channel_value[3]);
    217e:	6e 81       	ldd	r22, Y+6	; 0x06
    2180:	7f 81       	ldd	r23, Y+7	; 0x07
    2182:	8d e9       	ldi	r24, 0x9D	; 157
    2184:	91 e0       	ldi	r25, 0x01	; 1
    2186:	0e 94 51 13 	call	0x26a2	; 0x26a2 <SendStringUint>
	SendStringUint("Ch 4 ", channel_value[4]);
    218a:	68 85       	ldd	r22, Y+8	; 0x08
    218c:	79 85       	ldd	r23, Y+9	; 0x09
    218e:	83 ea       	ldi	r24, 0xA3	; 163
    2190:	91 e0       	ldi	r25, 0x01	; 1
    2192:	0e 94 51 13 	call	0x26a2	; 0x26a2 <SendStringUint>
	return 0;
    2196:	80 e0       	ldi	r24, 0x00	; 0
    2198:	df 91       	pop	r29
    219a:	cf 91       	pop	r28
    219c:	08 95       	ret

0000219e <ProcessString>:
	{"ER_SBUS", er_sbus},
};


void ProcessString(uint8_t start, uint8_t stop)
{
    219e:	4f 92       	push	r4
    21a0:	5f 92       	push	r5
    21a2:	6f 92       	push	r6
    21a4:	8f 92       	push	r8
    21a6:	9f 92       	push	r9
    21a8:	af 92       	push	r10
    21aa:	bf 92       	push	r11
    21ac:	cf 92       	push	r12
    21ae:	df 92       	push	r13
    21b0:	ef 92       	push	r14
    21b2:	ff 92       	push	r15
    21b4:	1f 93       	push	r17
    21b6:	cf 93       	push	r28
    21b8:	df 93       	push	r29
    21ba:	cd b7       	in	r28, 0x3d	; 61
    21bc:	de b7       	in	r29, 0x3e	; 62
    21be:	a2 97       	sbiw	r28, 0x22	; 34
    21c0:	0f b6       	in	r0, 0x3f	; 63
    21c2:	f8 94       	cli
    21c4:	de bf       	out	0x3e, r29	; 62
    21c6:	0f be       	out	0x3f, r0	; 63
    21c8:	cd bf       	out	0x3d, r28	; 61
    21ca:	fe 01       	movw	r30, r28
    21cc:	31 96       	adiw	r30, 0x01	; 1
    21ce:	9e 01       	movw	r18, r28
    21d0:	2f 5d       	subi	r18, 0xDF	; 223
    21d2:	3f 4f       	sbci	r19, 0xFF	; 255
	char string[RX_SIZE];
	uint8_t i;	//counter value

	for (i=0; i<RX_SIZE; i++)
	{
		string[i] = 0;
    21d4:	11 92       	st	Z+, r1
	
	//	stop = (stop +1) & RX_SIZE_BIN;
	char string[RX_SIZE];
	uint8_t i;	//counter value

	for (i=0; i<RX_SIZE; i++)
    21d6:	2e 17       	cp	r18, r30
    21d8:	3f 07       	cpc	r19, r31
    21da:	e1 f7       	brne	.-8      	; 0x21d4 <ProcessString+0x36>
	}

	i=0;

	// Assign rX string to command
	while (start!=stop)
    21dc:	86 17       	cp	r24, r22
    21de:	99 f0       	breq	.+38     	; 0x2206 <ProcessString+0x68>
    21e0:	e1 2c       	mov	r14, r1
	{
		string[i] = RxBuffor[start];
    21e2:	a1 e0       	ldi	r26, 0x01	; 1
    21e4:	b0 e0       	ldi	r27, 0x00	; 0
    21e6:	ac 0f       	add	r26, r28
    21e8:	bd 1f       	adc	r27, r29
    21ea:	ae 0d       	add	r26, r14
    21ec:	b1 1d       	adc	r27, r1
    21ee:	e8 2f       	mov	r30, r24
    21f0:	f0 e0       	ldi	r31, 0x00	; 0
    21f2:	e4 5a       	subi	r30, 0xA4	; 164
    21f4:	fb 4f       	sbci	r31, 0xFB	; 251
    21f6:	90 81       	ld	r25, Z
    21f8:	9c 93       	st	X, r25
		start = (start + 1) & RX_SIZE_BIN;
    21fa:	8f 5f       	subi	r24, 0xFF	; 255
    21fc:	8f 71       	andi	r24, 0x1F	; 31
		i++;
    21fe:	e3 94       	inc	r14
	}

	i=0;

	// Assign rX string to command
	while (start!=stop)
    2200:	68 13       	cpse	r22, r24
    2202:	ef cf       	rjmp	.-34     	; 0x21e2 <ProcessString+0x44>
    2204:	01 c0       	rjmp	.+2      	; 0x2208 <ProcessString+0x6a>
    2206:	e1 2c       	mov	r14, r1
	}

	char * rest;
	char * begining;

	begining = strtok_r(string, " ", &rest);
    2208:	ae 01       	movw	r20, r28
    220a:	4f 5d       	subi	r20, 0xDF	; 223
    220c:	5f 4f       	sbci	r21, 0xFF	; 255
    220e:	6c ec       	ldi	r22, 0xCC	; 204
    2210:	71 e0       	ldi	r23, 0x01	; 1
    2212:	ce 01       	movw	r24, r28
    2214:	01 96       	adiw	r24, 0x01	; 1
    2216:	0e 94 1a 17 	call	0x2e34	; 0x2e34 <strtok_r>
    221a:	4c 01       	movw	r8, r24

	uint8_t j;
	uint8_t command_length;
	uint8_t string_length = strlen(begining);
    221c:	fc 01       	movw	r30, r24
    221e:	01 90       	ld	r0, Z+
    2220:	00 20       	and	r0, r0
    2222:	e9 f7       	brne	.-6      	; 0x221e <ProcessString+0x80>
    2224:	31 97       	sbiw	r30, 0x01	; 1
    2226:	6e 2e       	mov	r6, r30
    2228:	68 1a       	sub	r6, r24
    222a:	0f 2e       	mov	r0, r31
    222c:	f4 ef       	ldi	r31, 0xF4	; 244
    222e:	cf 2e       	mov	r12, r31
    2230:	f0 e0       	ldi	r31, 0x00	; 0
    2232:	df 2e       	mov	r13, r31
    2234:	f0 2d       	mov	r31, r0
    2236:	a1 2c       	mov	r10, r1
    2238:	b1 2c       	mov	r11, r1
	for (j=0; j < RX_COMMANDS; j++)
    223a:	10 e0       	ldi	r17, 0x00	; 0
	{
		command_length = strlen_P(ER_commands[j].command);
		
		if (command_length == string_length)
		{
			if (0 == strncasecmp_P(begining, ER_commands[j].command, i))
    223c:	f1 2c       	mov	r15, r1
#else
extern size_t __strlen_P(const char *) __ATTR_CONST__;  /* internal helper function */
__attribute__((__always_inline__)) static __inline__ size_t strlen_P(const char * s);
static __inline__ size_t strlen_P(const char *s) {
  return __builtin_constant_p(__builtin_strlen(s))
     ? __builtin_strlen(s) : __strlen_P(s);
    223e:	c6 01       	movw	r24, r12
    2240:	0e 94 f9 16 	call	0x2df2	; 0x2df2 <__strlen_P>
	uint8_t string_length = strlen(begining);
	for (j=0; j < RX_COMMANDS; j++)
	{
		command_length = strlen_P(ER_commands[j].command);
		
		if (command_length == string_length)
    2244:	68 12       	cpse	r6, r24
    2246:	18 c0       	rjmp	.+48     	; 0x2278 <ProcessString+0xda>
		{
			if (0 == strncasecmp_P(begining, ER_commands[j].command, i))
    2248:	a7 01       	movw	r20, r14
    224a:	b6 01       	movw	r22, r12
    224c:	c4 01       	movw	r24, r8
    224e:	0e 94 02 17 	call	0x2e04	; 0x2e04 <strncasecmp_P>
    2252:	89 2b       	or	r24, r25
    2254:	89 f4       	brne	.+34     	; 0x2278 <ProcessString+0xda>
			{
				_er_srv = (void *)pgm_read_word(&ER_commands[j].ER_service);
    2256:	86 e1       	ldi	r24, 0x16	; 22
    2258:	8a 9d       	mul	r24, r10
    225a:	f0 01       	movw	r30, r0
    225c:	8b 9d       	mul	r24, r11
    225e:	f0 0d       	add	r31, r0
    2260:	11 24       	eor	r1, r1
    2262:	e8 5f       	subi	r30, 0xF8	; 248
    2264:	fe 4f       	sbci	r31, 0xFE	; 254
    2266:	25 91       	lpm	r18, Z+
    2268:	34 91       	lpm	r19, Z
				_er_srv(rest);
    226a:	89 a1       	ldd	r24, Y+33	; 0x21
    226c:	9a a1       	ldd	r25, Y+34	; 0x22
    226e:	f9 01       	movw	r30, r18
    2270:	09 95       	icall
				break;
			}
		}
	}
	if (j==RX_COMMANDS)
    2272:	15 30       	cpi	r17, 0x05	; 5
    2274:	a1 f4       	brne	.+40     	; 0x229e <ProcessString+0x100>
    2276:	09 c0       	rjmp	.+18     	; 0x228a <ProcessString+0xec>
	begining = strtok_r(string, " ", &rest);

	uint8_t j;
	uint8_t command_length;
	uint8_t string_length = strlen(begining);
	for (j=0; j < RX_COMMANDS; j++)
    2278:	1f 5f       	subi	r17, 0xFF	; 255
    227a:	ff ef       	ldi	r31, 0xFF	; 255
    227c:	af 1a       	sub	r10, r31
    227e:	bf 0a       	sbc	r11, r31
    2280:	86 e1       	ldi	r24, 0x16	; 22
    2282:	c8 0e       	add	r12, r24
    2284:	d1 1c       	adc	r13, r1
    2286:	15 30       	cpi	r17, 0x05	; 5
    2288:	d1 f6       	brne	.-76     	; 0x223e <ProcessString+0xa0>
			}
		}
	}
	if (j==RX_COMMANDS)
	{
		SendString("Wrong command: ");
    228a:	86 e0       	ldi	r24, 0x06	; 6
    228c:	92 e0       	ldi	r25, 0x02	; 2
    228e:	0e 94 7c 11 	call	0x22f8	; 0x22f8 <SendString>
		SendString(string);
    2292:	ce 01       	movw	r24, r28
    2294:	01 96       	adiw	r24, 0x01	; 1
    2296:	0e 94 7c 11 	call	0x22f8	; 0x22f8 <SendString>
		SendEnter();
    229a:	0e 94 92 11 	call	0x2324	; 0x2324 <SendEnter>
	}
		
}
    229e:	a2 96       	adiw	r28, 0x22	; 34
    22a0:	0f b6       	in	r0, 0x3f	; 63
    22a2:	f8 94       	cli
    22a4:	de bf       	out	0x3e, r29	; 62
    22a6:	0f be       	out	0x3f, r0	; 63
    22a8:	cd bf       	out	0x3d, r28	; 61
    22aa:	df 91       	pop	r29
    22ac:	cf 91       	pop	r28
    22ae:	1f 91       	pop	r17
    22b0:	ff 90       	pop	r15
    22b2:	ef 90       	pop	r14
    22b4:	df 90       	pop	r13
    22b6:	cf 90       	pop	r12
    22b8:	bf 90       	pop	r11
    22ba:	af 90       	pop	r10
    22bc:	9f 90       	pop	r9
    22be:	8f 90       	pop	r8
    22c0:	6f 90       	pop	r6
    22c2:	5f 90       	pop	r5
    22c4:	4f 90       	pop	r4
    22c6:	08 95       	ret

000022c8 <InitUartCOM>:
	}
}

void SendChar(char x)
{
	PutCharToBuffor(x);
    22c8:	0e 94 8c 13 	call	0x2718	; 0x2718 <InitUartCOM_HW>
    22cc:	08 95       	ret

000022ce <ReceiveChar>:
    22ce:	88 23       	and	r24, r24
    22d0:	91 f0       	breq	.+36     	; 0x22f6 <ReceiveChar+0x28>
    22d2:	8a 30       	cpi	r24, 0x0A	; 10
    22d4:	81 f0       	breq	.+32     	; 0x22f6 <ReceiveChar+0x28>
    22d6:	e0 91 1c 02 	lds	r30, 0x021C	; 0x80021c <RxHead>
    22da:	f0 e0       	ldi	r31, 0x00	; 0
    22dc:	e4 5a       	subi	r30, 0xA4	; 164
    22de:	fb 4f       	sbci	r31, 0xFB	; 251
    22e0:	80 83       	st	Z, r24
    22e2:	80 91 1c 02 	lds	r24, 0x021C	; 0x80021c <RxHead>
    22e6:	8f 5f       	subi	r24, 0xFF	; 255
    22e8:	8f 71       	andi	r24, 0x1F	; 31
    22ea:	80 93 1c 02 	sts	0x021C, r24	; 0x80021c <RxHead>
    22ee:	80 91 1c 02 	lds	r24, 0x021C	; 0x80021c <RxHead>
    22f2:	80 91 1d 02 	lds	r24, 0x021D	; 0x80021d <RxTail>
    22f6:	08 95       	ret

000022f8 <SendString>:
}

void SendString(char string[])
{
    22f8:	0f 93       	push	r16
    22fa:	1f 93       	push	r17
    22fc:	cf 93       	push	r28
    22fe:	fc 01       	movw	r30, r24
	uint8_t i=0;

	while (string[i] != 0)
    2300:	80 81       	ld	r24, Z
    2302:	88 23       	and	r24, r24
    2304:	59 f0       	breq	.+22     	; 0x231c <SendString+0x24>
    2306:	8f 01       	movw	r16, r30
    2308:	c0 e0       	ldi	r28, 0x00	; 0
	}
}

void SendChar(char x)
{
	PutCharToBuffor(x);
    230a:	0e 94 96 13 	call	0x272c	; 0x272c <PutCharToBuffor>
	uint8_t i=0;

	while (string[i] != 0)
	{
		SendChar(string[i]);
		i++;
    230e:	cf 5f       	subi	r28, 0xFF	; 255

void SendString(char string[])
{
	uint8_t i=0;

	while (string[i] != 0)
    2310:	f8 01       	movw	r30, r16
    2312:	ec 0f       	add	r30, r28
    2314:	f1 1d       	adc	r31, r1
    2316:	80 81       	ld	r24, Z
    2318:	81 11       	cpse	r24, r1
    231a:	f7 cf       	rjmp	.-18     	; 0x230a <SendString+0x12>
	{
		SendChar(string[i]);
		i++;
	}
}
    231c:	cf 91       	pop	r28
    231e:	1f 91       	pop	r17
    2320:	0f 91       	pop	r16
    2322:	08 95       	ret

00002324 <SendEnter>:
	}
}

void SendChar(char x)
{
	PutCharToBuffor(x);
    2324:	8d e0       	ldi	r24, 0x0D	; 13
    2326:	0e 94 96 13 	call	0x272c	; 0x272c <PutCharToBuffor>
    232a:	8a e0       	ldi	r24, 0x0A	; 10
    232c:	0e 94 96 13 	call	0x272c	; 0x272c <PutCharToBuffor>
    2330:	08 95       	ret

00002332 <SendLine>:
	}
}

void SendLine(char string[])
{
	SendString(string);
    2332:	0e 94 7c 11 	call	0x22f8	; 0x22f8 <SendString>
	//End of line:
	SendEnter();
    2336:	0e 94 92 11 	call	0x2324	; 0x2324 <SendEnter>
    233a:	08 95       	ret

0000233c <SendInt>:
	SendChar(13);
	SendChar(10);
}

void SendInt(int32_t number)
{
    233c:	4f 92       	push	r4
    233e:	5f 92       	push	r5
    2340:	6f 92       	push	r6
    2342:	7f 92       	push	r7
    2344:	8f 92       	push	r8
    2346:	9f 92       	push	r9
    2348:	af 92       	push	r10
    234a:	bf 92       	push	r11
    234c:	cf 92       	push	r12
    234e:	df 92       	push	r13
    2350:	ef 92       	push	r14
    2352:	ff 92       	push	r15
    2354:	0f 93       	push	r16
    2356:	1f 93       	push	r17
    2358:	cf 93       	push	r28
    235a:	df 93       	push	r29
    235c:	cd b7       	in	r28, 0x3d	; 61
    235e:	de b7       	in	r29, 0x3e	; 62
    2360:	a8 97       	sbiw	r28, 0x28	; 40
    2362:	0f b6       	in	r0, 0x3f	; 63
    2364:	f8 94       	cli
    2366:	de bf       	out	0x3e, r29	; 62
    2368:	0f be       	out	0x3f, r0	; 63
    236a:	cd bf       	out	0x3d, r28	; 61
    236c:	6b 01       	movw	r12, r22
    236e:	7c 01       	movw	r14, r24
    2370:	fe 01       	movw	r30, r28
    2372:	75 96       	adiw	r30, 0x15	; 21
    2374:	8e 01       	movw	r16, r28
    2376:	0f 5f       	subi	r16, 0xFF	; 255
    2378:	1f 4f       	sbci	r17, 0xFF	; 255
    237a:	ce 01       	movw	r24, r28
    237c:	4d 96       	adiw	r24, 0x1d	; 29
    237e:	d8 01       	movw	r26, r16
	uint8_t pozycja = 0;
	uint8_t mnoznik = 10;
	
	for (uint8_t i=0; i<8; i++)	//zmienna tablicowa lokalna, trzeba wyzerowa wartoci
	{
		reverse[i] = 0;
    2380:	11 92       	st	Z+, r1
		string[i] = 0;
    2382:	1d 92       	st	X+, r1
	char reverse[20];	//int16 = 6 cyfr + znak + 0
	int8_t znak = 1;
	uint8_t pozycja = 0;
	uint8_t mnoznik = 10;
	
	for (uint8_t i=0; i<8; i++)	//zmienna tablicowa lokalna, trzeba wyzerowa wartoci
    2384:	e8 17       	cp	r30, r24
    2386:	f9 07       	cpc	r31, r25
    2388:	d9 f7       	brne	.-10     	; 0x2380 <SendInt+0x44>
	{
		reverse[i] = 0;
		string[i] = 0;
	}
	
	if (number<0) znak = -1;
    238a:	ff 20       	and	r15, r15
    238c:	0c f0       	brlt	.+2      	; 0x2390 <SendInt+0x54>
    238e:	5d c0       	rjmp	.+186    	; 0x244a <SendInt+0x10e>
    2390:	81 c0       	rjmp	.+258    	; 0x2494 <SendInt+0x158>
    2392:	5e 01       	movw	r10, r28
    2394:	26 e1       	ldi	r18, 0x16	; 22
    2396:	a2 0e       	add	r10, r18
    2398:	b1 1c       	adc	r11, r1
	
	number = number * znak;
	
	for (uint8_t i=0; i<20; i++)
    239a:	99 24       	eor	r9, r9
    239c:	93 94       	inc	r9
	{
		reverse[i] = number % mnoznik + 48;
    239e:	0f 2e       	mov	r0, r31
    23a0:	fa e0       	ldi	r31, 0x0A	; 10
    23a2:	4f 2e       	mov	r4, r31
    23a4:	51 2c       	mov	r5, r1
    23a6:	61 2c       	mov	r6, r1
    23a8:	71 2c       	mov	r7, r1
    23aa:	f0 2d       	mov	r31, r0
    23ac:	01 c0       	rjmp	.+2      	; 0x23b0 <SendInt+0x74>
	
	if (number<0) znak = -1;
	
	number = number * znak;
	
	for (uint8_t i=0; i<20; i++)
    23ae:	98 2e       	mov	r9, r24
	{
		reverse[i] = number % mnoznik + 48;
    23b0:	c7 01       	movw	r24, r14
    23b2:	b6 01       	movw	r22, r12
    23b4:	a3 01       	movw	r20, r6
    23b6:	92 01       	movw	r18, r4
    23b8:	0e 94 81 16 	call	0x2d02	; 0x2d02 <__divmodsi4>
    23bc:	20 e3       	ldi	r18, 0x30	; 48
    23be:	26 0f       	add	r18, r22
    23c0:	d5 01       	movw	r26, r10
    23c2:	2d 93       	st	X+, r18
    23c4:	5d 01       	movw	r10, r26
		number = number - number % mnoznik;
    23c6:	a7 01       	movw	r20, r14
    23c8:	96 01       	movw	r18, r12
    23ca:	26 1b       	sub	r18, r22
    23cc:	37 0b       	sbc	r19, r23
    23ce:	48 0b       	sbc	r20, r24
    23d0:	59 0b       	sbc	r21, r25
    23d2:	ca 01       	movw	r24, r20
    23d4:	b9 01       	movw	r22, r18
		number = number / 10;
    23d6:	a3 01       	movw	r20, r6
    23d8:	92 01       	movw	r18, r4
    23da:	0e 94 81 16 	call	0x2d02	; 0x2d02 <__divmodsi4>
    23de:	69 01       	movw	r12, r18
    23e0:	7a 01       	movw	r14, r20
		pozycja = i;
		if (number == 0) break;
    23e2:	23 2b       	or	r18, r19
    23e4:	24 2b       	or	r18, r20
    23e6:	25 2b       	or	r18, r21
    23e8:	21 f0       	breq	.+8      	; 0x23f2 <SendInt+0xb6>
	
	if (number<0) znak = -1;
	
	number = number * znak;
	
	for (uint8_t i=0; i<20; i++)
    23ea:	81 e0       	ldi	r24, 0x01	; 1
    23ec:	89 0d       	add	r24, r9
    23ee:	84 31       	cpi	r24, 0x14	; 20
    23f0:	f1 f6       	brne	.-68     	; 0x23ae <SendInt+0x72>
		number = number / 10;
		pozycja = i;
		if (number == 0) break;
	}
	
	pozycja++;
    23f2:	21 e0       	ldi	r18, 0x01	; 1
    23f4:	29 0d       	add	r18, r9
	
	if (znak<0)
    23f6:	88 20       	and	r8, r8
    23f8:	54 f4       	brge	.+20     	; 0x240e <SendInt+0xd2>
    23fa:	02 c0       	rjmp	.+4      	; 0x2400 <SendInt+0xc4>
		number = number / 10;
		pozycja = i;
		if (number == 0) break;
	}
	
	pozycja++;
    23fc:	21 e0       	ldi	r18, 0x01	; 1
	
	if (number<0) znak = -1;
	
	number = number * znak;
	
	for (uint8_t i=0; i<20; i++)
    23fe:	91 2c       	mov	r9, r1
	
	pozycja++;
	
	if (znak<0)
	{
		reverse[pozycja] = 45;
    2400:	fe 01       	movw	r30, r28
    2402:	e2 0f       	add	r30, r18
    2404:	f1 1d       	adc	r31, r1
    2406:	8d e2       	ldi	r24, 0x2D	; 45
    2408:	85 8b       	std	Z+21, r24	; 0x15
		pozycja++;
    240a:	22 e0       	ldi	r18, 0x02	; 2
    240c:	29 0d       	add	r18, r9
	}
	
	for (uint8_t i=0; i<pozycja; i++)
    240e:	21 11       	cpse	r18, r1
    2410:	02 c0       	rjmp	.+4      	; 0x2416 <SendInt+0xda>
    2412:	0f c0       	rjmp	.+30     	; 0x2432 <SendInt+0xf6>
		number = number / 10;
		pozycja = i;
		if (number == 0) break;
	}
	
	pozycja++;
    2414:	21 e0       	ldi	r18, 0x01	; 1
    2416:	e5 e1       	ldi	r30, 0x15	; 21
    2418:	f0 e0       	ldi	r31, 0x00	; 0
    241a:	ec 0f       	add	r30, r28
    241c:	fd 1f       	adc	r31, r29
    241e:	e2 0f       	add	r30, r18
    2420:	f1 1d       	adc	r31, r1
    2422:	80 e0       	ldi	r24, 0x00	; 0
		pozycja++;
	}
	
	for (uint8_t i=0; i<pozycja; i++)
	{
		string[i] = reverse[pozycja-1-i];
    2424:	92 91       	ld	r25, -Z
    2426:	d8 01       	movw	r26, r16
    2428:	9d 93       	st	X+, r25
    242a:	8d 01       	movw	r16, r26
	{
		reverse[pozycja] = 45;
		pozycja++;
	}
	
	for (uint8_t i=0; i<pozycja; i++)
    242c:	8f 5f       	subi	r24, 0xFF	; 255
    242e:	82 17       	cp	r24, r18
    2430:	c8 f3       	brcs	.-14     	; 0x2424 <SendInt+0xe8>
	{
		string[i] = reverse[pozycja-1-i];
	}
	string[pozycja] = 0;
    2432:	e1 e0       	ldi	r30, 0x01	; 1
    2434:	f0 e0       	ldi	r31, 0x00	; 0
    2436:	ec 0f       	add	r30, r28
    2438:	fd 1f       	adc	r31, r29
    243a:	e2 0f       	add	r30, r18
    243c:	f1 1d       	adc	r31, r1
    243e:	10 82       	st	Z, r1
	SendString(string);
    2440:	ce 01       	movw	r24, r28
    2442:	01 96       	adiw	r24, 0x01	; 1
    2444:	0e 94 7c 11 	call	0x22f8	; 0x22f8 <SendString>
}
    2448:	53 c0       	rjmp	.+166    	; 0x24f0 <SendInt+0x1b4>
	
	number = number * znak;
	
	for (uint8_t i=0; i<20; i++)
	{
		reverse[i] = number % mnoznik + 48;
    244a:	0f 2e       	mov	r0, r31
    244c:	fa e0       	ldi	r31, 0x0A	; 10
    244e:	8f 2e       	mov	r8, r31
    2450:	91 2c       	mov	r9, r1
    2452:	a1 2c       	mov	r10, r1
    2454:	b1 2c       	mov	r11, r1
    2456:	f0 2d       	mov	r31, r0
    2458:	c7 01       	movw	r24, r14
    245a:	b6 01       	movw	r22, r12
    245c:	a5 01       	movw	r20, r10
    245e:	94 01       	movw	r18, r8
    2460:	0e 94 81 16 	call	0x2d02	; 0x2d02 <__divmodsi4>
    2464:	20 e3       	ldi	r18, 0x30	; 48
    2466:	26 0f       	add	r18, r22
    2468:	2d 8b       	std	Y+21, r18	; 0x15
		number = number - number % mnoznik;
    246a:	a7 01       	movw	r20, r14
    246c:	96 01       	movw	r18, r12
    246e:	26 1b       	sub	r18, r22
    2470:	37 0b       	sbc	r19, r23
    2472:	48 0b       	sbc	r20, r24
    2474:	59 0b       	sbc	r21, r25
    2476:	ca 01       	movw	r24, r20
    2478:	b9 01       	movw	r22, r18
		number = number / 10;
    247a:	a5 01       	movw	r20, r10
    247c:	94 01       	movw	r18, r8
    247e:	0e 94 81 16 	call	0x2d02	; 0x2d02 <__divmodsi4>
    2482:	69 01       	movw	r12, r18
    2484:	7a 01       	movw	r14, r20
		pozycja = i;
		if (number == 0) break;
    2486:	23 2b       	or	r18, r19
    2488:	24 2b       	or	r18, r20
    248a:	25 2b       	or	r18, r21
    248c:	19 f2       	breq	.-122    	; 0x2414 <SendInt+0xd8>

void SendInt(int32_t number)
{
	char string[20];
	char reverse[20];	//int16 = 6 cyfr + znak + 0
	int8_t znak = 1;
    248e:	88 24       	eor	r8, r8
    2490:	83 94       	inc	r8
    2492:	7f cf       	rjmp	.-258    	; 0x2392 <SendInt+0x56>
		string[i] = 0;
	}
	
	if (number<0) znak = -1;
	
	number = number * znak;
    2494:	f0 94       	com	r15
    2496:	e0 94       	com	r14
    2498:	d0 94       	com	r13
    249a:	c0 94       	com	r12
    249c:	c1 1c       	adc	r12, r1
    249e:	d1 1c       	adc	r13, r1
    24a0:	e1 1c       	adc	r14, r1
    24a2:	f1 1c       	adc	r15, r1
	
	for (uint8_t i=0; i<20; i++)
	{
		reverse[i] = number % mnoznik + 48;
    24a4:	0f 2e       	mov	r0, r31
    24a6:	fa e0       	ldi	r31, 0x0A	; 10
    24a8:	8f 2e       	mov	r8, r31
    24aa:	91 2c       	mov	r9, r1
    24ac:	a1 2c       	mov	r10, r1
    24ae:	b1 2c       	mov	r11, r1
    24b0:	f0 2d       	mov	r31, r0
    24b2:	c7 01       	movw	r24, r14
    24b4:	b6 01       	movw	r22, r12
    24b6:	a5 01       	movw	r20, r10
    24b8:	94 01       	movw	r18, r8
    24ba:	0e 94 81 16 	call	0x2d02	; 0x2d02 <__divmodsi4>
    24be:	20 e3       	ldi	r18, 0x30	; 48
    24c0:	26 0f       	add	r18, r22
    24c2:	2d 8b       	std	Y+21, r18	; 0x15
		number = number - number % mnoznik;
    24c4:	a7 01       	movw	r20, r14
    24c6:	96 01       	movw	r18, r12
    24c8:	26 1b       	sub	r18, r22
    24ca:	37 0b       	sbc	r19, r23
    24cc:	48 0b       	sbc	r20, r24
    24ce:	59 0b       	sbc	r21, r25
    24d0:	ca 01       	movw	r24, r20
    24d2:	b9 01       	movw	r22, r18
		number = number / 10;
    24d4:	a5 01       	movw	r20, r10
    24d6:	94 01       	movw	r18, r8
    24d8:	0e 94 81 16 	call	0x2d02	; 0x2d02 <__divmodsi4>
    24dc:	69 01       	movw	r12, r18
    24de:	7a 01       	movw	r14, r20
		pozycja = i;
		if (number == 0) break;
    24e0:	23 2b       	or	r18, r19
    24e2:	24 2b       	or	r18, r20
    24e4:	25 2b       	or	r18, r21
    24e6:	09 f4       	brne	.+2      	; 0x24ea <SendInt+0x1ae>
    24e8:	89 cf       	rjmp	.-238    	; 0x23fc <SendInt+0xc0>
	{
		reverse[i] = 0;
		string[i] = 0;
	}
	
	if (number<0) znak = -1;
    24ea:	88 24       	eor	r8, r8
    24ec:	8a 94       	dec	r8
    24ee:	51 cf       	rjmp	.-350    	; 0x2392 <SendInt+0x56>
	{
		string[i] = reverse[pozycja-1-i];
	}
	string[pozycja] = 0;
	SendString(string);
}
    24f0:	a8 96       	adiw	r28, 0x28	; 40
    24f2:	0f b6       	in	r0, 0x3f	; 63
    24f4:	f8 94       	cli
    24f6:	de bf       	out	0x3e, r29	; 62
    24f8:	0f be       	out	0x3f, r0	; 63
    24fa:	cd bf       	out	0x3d, r28	; 61
    24fc:	df 91       	pop	r29
    24fe:	cf 91       	pop	r28
    2500:	1f 91       	pop	r17
    2502:	0f 91       	pop	r16
    2504:	ff 90       	pop	r15
    2506:	ef 90       	pop	r14
    2508:	df 90       	pop	r13
    250a:	cf 90       	pop	r12
    250c:	bf 90       	pop	r11
    250e:	af 90       	pop	r10
    2510:	9f 90       	pop	r9
    2512:	8f 90       	pop	r8
    2514:	7f 90       	pop	r7
    2516:	6f 90       	pop	r6
    2518:	5f 90       	pop	r5
    251a:	4f 90       	pop	r4
    251c:	08 95       	ret

0000251e <SendStringInt>:
	SendUint(number);
	SendEnter();
}

void SendStringInt(char string[], int32_t number)
{
    251e:	cf 92       	push	r12
    2520:	df 92       	push	r13
    2522:	ef 92       	push	r14
    2524:	ff 92       	push	r15
    2526:	6a 01       	movw	r12, r20
    2528:	7b 01       	movw	r14, r22
	SendString(string);
    252a:	0e 94 7c 11 	call	0x22f8	; 0x22f8 <SendString>
	SendInt(number);
    252e:	c7 01       	movw	r24, r14
    2530:	b6 01       	movw	r22, r12
    2532:	0e 94 9e 11 	call	0x233c	; 0x233c <SendInt>
	SendEnter();
    2536:	0e 94 92 11 	call	0x2324	; 0x2324 <SendEnter>
}
    253a:	ff 90       	pop	r15
    253c:	ef 90       	pop	r14
    253e:	df 90       	pop	r13
    2540:	cf 90       	pop	r12
    2542:	08 95       	ret

00002544 <SendUint>:
	string[pozycja] = 0;
	SendString(string);
}

void SendUint(uint16_t number)
{
    2544:	ef 92       	push	r14
    2546:	ff 92       	push	r15
    2548:	0f 93       	push	r16
    254a:	1f 93       	push	r17
    254c:	cf 93       	push	r28
    254e:	df 93       	push	r29
    2550:	cd b7       	in	r28, 0x3d	; 61
    2552:	de b7       	in	r29, 0x3e	; 62
    2554:	60 97       	sbiw	r28, 0x10	; 16
    2556:	0f b6       	in	r0, 0x3f	; 63
    2558:	f8 94       	cli
    255a:	de bf       	out	0x3e, r29	; 62
    255c:	0f be       	out	0x3f, r0	; 63
    255e:	cd bf       	out	0x3d, r28	; 61
    2560:	ac 01       	movw	r20, r24
    2562:	fe 01       	movw	r30, r28
    2564:	39 96       	adiw	r30, 0x09	; 9
    2566:	8e 01       	movw	r16, r28
    2568:	0f 5f       	subi	r16, 0xFF	; 255
    256a:	1f 4f       	sbci	r17, 0xFF	; 255
    256c:	ce 01       	movw	r24, r28
    256e:	41 96       	adiw	r24, 0x11	; 17
    2570:	d8 01       	movw	r26, r16
		uint8_t pozycja = 0;
		uint8_t mnoznik = 10;
		
		for (uint8_t i=0; i<8; i++)	//zmienna tablicowa lokalna, trzeba wyzerowa wartoci
		{
			reverse[i] = 0;
    2572:	11 92       	st	Z+, r1
			string[i] = 0;
    2574:	1d 92       	st	X+, r1
		char string[8];
		char reverse[8];	//int16 = 6 cyfr + znak + 0
		uint8_t pozycja = 0;
		uint8_t mnoznik = 10;
		
		for (uint8_t i=0; i<8; i++)	//zmienna tablicowa lokalna, trzeba wyzerowa wartoci
    2576:	e8 17       	cp	r30, r24
    2578:	f9 07       	cpc	r31, r25
    257a:	d9 f7       	brne	.-10     	; 0x2572 <SendUint+0x2e>
		}
		
		
		for (uint8_t i=0; i<8; i++)
		{
			reverse[i] = number % mnoznik + 48;
    257c:	9a 01       	movw	r18, r20
    257e:	ad ec       	ldi	r26, 0xCD	; 205
    2580:	bc ec       	ldi	r27, 0xCC	; 204
    2582:	0e 94 ae 16 	call	0x2d5c	; 0x2d5c <__umulhisi3>
    2586:	96 95       	lsr	r25
    2588:	87 95       	ror	r24
    258a:	96 95       	lsr	r25
    258c:	87 95       	ror	r24
    258e:	96 95       	lsr	r25
    2590:	87 95       	ror	r24
    2592:	9c 01       	movw	r18, r24
    2594:	22 0f       	add	r18, r18
    2596:	33 1f       	adc	r19, r19
    2598:	88 0f       	add	r24, r24
    259a:	99 1f       	adc	r25, r25
    259c:	88 0f       	add	r24, r24
    259e:	99 1f       	adc	r25, r25
    25a0:	88 0f       	add	r24, r24
    25a2:	99 1f       	adc	r25, r25
    25a4:	82 0f       	add	r24, r18
    25a6:	93 1f       	adc	r25, r19
    25a8:	9a 01       	movw	r18, r20
    25aa:	28 1b       	sub	r18, r24
    25ac:	39 0b       	sbc	r19, r25
    25ae:	c9 01       	movw	r24, r18
    25b0:	20 e3       	ldi	r18, 0x30	; 48
    25b2:	28 0f       	add	r18, r24
    25b4:	29 87       	std	Y+9, r18	; 0x09
			number = number - number % mnoznik;
    25b6:	9a 01       	movw	r18, r20
    25b8:	28 1b       	sub	r18, r24
    25ba:	39 0b       	sbc	r19, r25
			number = number / 10;
    25bc:	0e 94 ae 16 	call	0x2d5c	; 0x2d5c <__umulhisi3>
    25c0:	ac 01       	movw	r20, r24
    25c2:	56 95       	lsr	r21
    25c4:	47 95       	ror	r20
    25c6:	56 95       	lsr	r21
    25c8:	47 95       	ror	r20
    25ca:	56 95       	lsr	r21
    25cc:	47 95       	ror	r20
			pozycja = i;
			if (number == 0) break;
    25ce:	41 15       	cp	r20, r1
    25d0:	51 05       	cpc	r21, r1
    25d2:	09 f4       	brne	.+2      	; 0x25d6 <SendUint+0x92>
    25d4:	3f c0       	rjmp	.+126    	; 0x2654 <SendUint+0x110>
    25d6:	7e 01       	movw	r14, r28
    25d8:	3a e0       	ldi	r19, 0x0A	; 10
    25da:	e3 0e       	add	r14, r19
    25dc:	f1 1c       	adc	r15, r1
			reverse[i] = 0;
			string[i] = 0;
		}
		
		
		for (uint8_t i=0; i<8; i++)
    25de:	e1 e0       	ldi	r30, 0x01	; 1
    25e0:	01 c0       	rjmp	.+2      	; 0x25e4 <SendUint+0xa0>
    25e2:	e8 2f       	mov	r30, r24
		{
			reverse[i] = number % mnoznik + 48;
    25e4:	9a 01       	movw	r18, r20
    25e6:	ad ec       	ldi	r26, 0xCD	; 205
    25e8:	bc ec       	ldi	r27, 0xCC	; 204
    25ea:	0e 94 ae 16 	call	0x2d5c	; 0x2d5c <__umulhisi3>
    25ee:	96 95       	lsr	r25
    25f0:	87 95       	ror	r24
    25f2:	96 95       	lsr	r25
    25f4:	87 95       	ror	r24
    25f6:	96 95       	lsr	r25
    25f8:	87 95       	ror	r24
    25fa:	9c 01       	movw	r18, r24
    25fc:	22 0f       	add	r18, r18
    25fe:	33 1f       	adc	r19, r19
    2600:	88 0f       	add	r24, r24
    2602:	99 1f       	adc	r25, r25
    2604:	88 0f       	add	r24, r24
    2606:	99 1f       	adc	r25, r25
    2608:	88 0f       	add	r24, r24
    260a:	99 1f       	adc	r25, r25
    260c:	82 0f       	add	r24, r18
    260e:	93 1f       	adc	r25, r19
    2610:	da 01       	movw	r26, r20
    2612:	a8 1b       	sub	r26, r24
    2614:	b9 0b       	sbc	r27, r25
    2616:	cd 01       	movw	r24, r26
    2618:	20 e3       	ldi	r18, 0x30	; 48
    261a:	2a 0f       	add	r18, r26
    261c:	d7 01       	movw	r26, r14
    261e:	2d 93       	st	X+, r18
    2620:	7d 01       	movw	r14, r26
			number = number - number % mnoznik;
    2622:	9a 01       	movw	r18, r20
    2624:	28 1b       	sub	r18, r24
    2626:	39 0b       	sbc	r19, r25
			number = number / 10;
    2628:	ad ec       	ldi	r26, 0xCD	; 205
    262a:	bc ec       	ldi	r27, 0xCC	; 204
    262c:	0e 94 ae 16 	call	0x2d5c	; 0x2d5c <__umulhisi3>
    2630:	ac 01       	movw	r20, r24
    2632:	56 95       	lsr	r21
    2634:	47 95       	ror	r20
    2636:	56 95       	lsr	r21
    2638:	47 95       	ror	r20
    263a:	56 95       	lsr	r21
    263c:	47 95       	ror	r20
			pozycja = i;
			if (number == 0) break;
    263e:	41 15       	cp	r20, r1
    2640:	51 05       	cpc	r21, r1
    2642:	21 f0       	breq	.+8      	; 0x264c <SendUint+0x108>
			reverse[i] = 0;
			string[i] = 0;
		}
		
		
		for (uint8_t i=0; i<8; i++)
    2644:	81 e0       	ldi	r24, 0x01	; 1
    2646:	8e 0f       	add	r24, r30
    2648:	88 30       	cpi	r24, 0x08	; 8
    264a:	59 f6       	brne	.-106    	; 0x25e2 <SendUint+0x9e>
			number = number / 10;
			pozycja = i;
			if (number == 0) break;
		}
		
		pozycja++;
    264c:	91 e0       	ldi	r25, 0x01	; 1
    264e:	9e 0f       	add	r25, r30
		
		for (uint8_t i=0; i<pozycja; i++)
    2650:	11 f4       	brne	.+4      	; 0x2656 <SendUint+0x112>
    2652:	0f c0       	rjmp	.+30     	; 0x2672 <SendUint+0x12e>
			number = number / 10;
			pozycja = i;
			if (number == 0) break;
		}
		
		pozycja++;
    2654:	91 e0       	ldi	r25, 0x01	; 1
    2656:	e9 e0       	ldi	r30, 0x09	; 9
    2658:	f0 e0       	ldi	r31, 0x00	; 0
    265a:	ec 0f       	add	r30, r28
    265c:	fd 1f       	adc	r31, r29
    265e:	e9 0f       	add	r30, r25
    2660:	f1 1d       	adc	r31, r1
    2662:	80 e0       	ldi	r24, 0x00	; 0
		
		for (uint8_t i=0; i<pozycja; i++)
		{
			string[i] = reverse[pozycja-1-i];
    2664:	22 91       	ld	r18, -Z
    2666:	d8 01       	movw	r26, r16
    2668:	2d 93       	st	X+, r18
    266a:	8d 01       	movw	r16, r26
			if (number == 0) break;
		}
		
		pozycja++;
		
		for (uint8_t i=0; i<pozycja; i++)
    266c:	8f 5f       	subi	r24, 0xFF	; 255
    266e:	89 17       	cp	r24, r25
    2670:	c8 f3       	brcs	.-14     	; 0x2664 <SendUint+0x120>
		{
			string[i] = reverse[pozycja-1-i];
		}
		string[pozycja] = 0;
    2672:	e1 e0       	ldi	r30, 0x01	; 1
    2674:	f0 e0       	ldi	r31, 0x00	; 0
    2676:	ec 0f       	add	r30, r28
    2678:	fd 1f       	adc	r31, r29
    267a:	e9 0f       	add	r30, r25
    267c:	f1 1d       	adc	r31, r1
    267e:	10 82       	st	Z, r1
		SendString(string);
    2680:	ce 01       	movw	r24, r28
    2682:	01 96       	adiw	r24, 0x01	; 1
    2684:	0e 94 7c 11 	call	0x22f8	; 0x22f8 <SendString>
}
    2688:	60 96       	adiw	r28, 0x10	; 16
    268a:	0f b6       	in	r0, 0x3f	; 63
    268c:	f8 94       	cli
    268e:	de bf       	out	0x3e, r29	; 62
    2690:	0f be       	out	0x3f, r0	; 63
    2692:	cd bf       	out	0x3d, r28	; 61
    2694:	df 91       	pop	r29
    2696:	cf 91       	pop	r28
    2698:	1f 91       	pop	r17
    269a:	0f 91       	pop	r16
    269c:	ff 90       	pop	r15
    269e:	ef 90       	pop	r14
    26a0:	08 95       	ret

000026a2 <SendStringUint>:
	//End of line:
	SendEnter();
}

void SendStringUint(char string[], uint16_t number)
{
    26a2:	cf 93       	push	r28
    26a4:	df 93       	push	r29
    26a6:	eb 01       	movw	r28, r22
	SendString(string);
    26a8:	0e 94 7c 11 	call	0x22f8	; 0x22f8 <SendString>
	SendUint(number);
    26ac:	ce 01       	movw	r24, r28
    26ae:	0e 94 a2 12 	call	0x2544	; 0x2544 <SendUint>
	SendEnter();
    26b2:	0e 94 92 11 	call	0x2324	; 0x2324 <SendEnter>
}
    26b6:	df 91       	pop	r29
    26b8:	cf 91       	pop	r28
    26ba:	08 95       	ret

000026bc <CheckRxBuffor>:
		string[pozycja] = 0;
		SendString(string);
}

void CheckRxBuffor(void)
{
    26bc:	cf 93       	push	r28
	if (RxHead != RxTail)	//Check if buffer is not empty
    26be:	90 91 1c 02 	lds	r25, 0x021C	; 0x80021c <RxHead>
    26c2:	80 91 1d 02 	lds	r24, 0x021D	; 0x80021d <RxTail>
    26c6:	98 17       	cp	r25, r24
    26c8:	29 f1       	breq	.+74     	; 0x2714 <CheckRxBuffor+0x58>
	{
		uint8_t i = RxTail;
    26ca:	c0 91 1d 02 	lds	r28, 0x021D	; 0x80021d <RxTail>

		while(i != RxHead)	//search for end of line
    26ce:	80 91 1c 02 	lds	r24, 0x021C	; 0x80021c <RxHead>
    26d2:	c8 17       	cp	r28, r24
    26d4:	f9 f0       	breq	.+62     	; 0x2714 <CheckRxBuffor+0x58>
		{
			//If end of line process Command
			
			if (RxBuffor[i] == 13)
    26d6:	ec 2f       	mov	r30, r28
    26d8:	f0 e0       	ldi	r31, 0x00	; 0
    26da:	e4 5a       	subi	r30, 0xA4	; 164
    26dc:	fb 4f       	sbci	r31, 0xFB	; 251
    26de:	80 81       	ld	r24, Z
    26e0:	8d 30       	cpi	r24, 0x0D	; 13
    26e2:	91 f4       	brne	.+36     	; 0x2708 <CheckRxBuffor+0x4c>
    26e4:	07 c0       	rjmp	.+14     	; 0x26f4 <CheckRxBuffor+0x38>
    26e6:	ec 2f       	mov	r30, r28
    26e8:	f0 e0       	ldi	r31, 0x00	; 0
    26ea:	e4 5a       	subi	r30, 0xA4	; 164
    26ec:	fb 4f       	sbci	r31, 0xFB	; 251
    26ee:	80 81       	ld	r24, Z
    26f0:	8d 30       	cpi	r24, 0x0D	; 13
    26f2:	51 f4       	brne	.+20     	; 0x2708 <CheckRxBuffor+0x4c>
			{
				ProcessString(RxTail, i);
    26f4:	80 91 1d 02 	lds	r24, 0x021D	; 0x80021d <RxTail>
    26f8:	6c 2f       	mov	r22, r28
    26fa:	0e 94 cf 10 	call	0x219e	; 0x219e <ProcessString>
				i = (i+1) & RX_SIZE_BIN;
    26fe:	cf 5f       	subi	r28, 0xFF	; 255
    2700:	cf 71       	andi	r28, 0x1F	; 31
				RxTail = i;
    2702:	c0 93 1d 02 	sts	0x021D, r28	; 0x80021d <RxTail>
				break;
    2706:	06 c0       	rjmp	.+12     	; 0x2714 <CheckRxBuffor+0x58>
			}

			i = (i+1) & RX_SIZE_BIN;
    2708:	cf 5f       	subi	r28, 0xFF	; 255
    270a:	cf 71       	andi	r28, 0x1F	; 31
{
	if (RxHead != RxTail)	//Check if buffer is not empty
	{
		uint8_t i = RxTail;

		while(i != RxHead)	//search for end of line
    270c:	80 91 1c 02 	lds	r24, 0x021C	; 0x80021c <RxHead>
    2710:	8c 13       	cpse	r24, r28
    2712:	e9 cf       	rjmp	.-46     	; 0x26e6 <CheckRxBuffor+0x2a>
			}

			i = (i+1) & RX_SIZE_BIN;
		}
	}
    2714:	cf 91       	pop	r28
    2716:	08 95       	ret

00002718 <InitUartCOM_HW>:


	UBRR0 = 9;	//100k at 16MHz clock

	//Init COM Uart
	UCSR0B = (1<<RXEN0) | (1<<RXCIE0) |
    2718:	83 e0       	ldi	r24, 0x03	; 3
    271a:	90 e0       	ldi	r25, 0x00	; 0
    271c:	90 93 c5 00 	sts	0x00C5, r25	; 0x8000c5 <__TEXT_REGION_LENGTH__+0x7e00c5>
    2720:	80 93 c4 00 	sts	0x00C4, r24	; 0x8000c4 <__TEXT_REGION_LENGTH__+0x7e00c4>
    2724:	88 ed       	ldi	r24, 0xD8	; 216
    2726:	80 93 c1 00 	sts	0x00C1, r24	; 0x8000c1 <__TEXT_REGION_LENGTH__+0x7e00c1>
    272a:	08 95       	ret

0000272c <PutCharToBuffor>:
}


void PutCharToBuffor(uint8_t x)
{
	if ((UCSR0A & (1<<UDRE0)) && (TxHead == TxTail))	//check if can put next char
    272c:	90 91 c0 00 	lds	r25, 0x00C0	; 0x8000c0 <__TEXT_REGION_LENGTH__+0x7e00c0>
    2730:	95 ff       	sbrs	r25, 5
    2732:	09 c0       	rjmp	.+18     	; 0x2746 <PutCharToBuffor+0x1a>
    2734:	20 91 1a 02 	lds	r18, 0x021A	; 0x80021a <TxHead>
    2738:	90 91 1b 02 	lds	r25, 0x021B	; 0x80021b <TxTail>
    273c:	29 13       	cpse	r18, r25
    273e:	03 c0       	rjmp	.+6      	; 0x2746 <PutCharToBuffor+0x1a>
	{
		UDR0 = x;		
    2740:	80 93 c6 00 	sts	0x00C6, r24	; 0x8000c6 <__TEXT_REGION_LENGTH__+0x7e00c6>
    2744:	08 95       	ret
	}
	else	//if not ready put char to sending queue
	{
		TxBuffor[TxHead] = x;
    2746:	e0 91 1a 02 	lds	r30, 0x021A	; 0x80021a <TxHead>
    274a:	f0 e0       	ldi	r31, 0x00	; 0
    274c:	e4 58       	subi	r30, 0x84	; 132
    274e:	fb 4f       	sbci	r31, 0xFB	; 251
    2750:	80 83       	st	Z, r24
		TxHead = (TxHead+1) & TX_SIZE_BIN;
    2752:	80 91 1a 02 	lds	r24, 0x021A	; 0x80021a <TxHead>
    2756:	8f 5f       	subi	r24, 0xFF	; 255
    2758:	8f 77       	andi	r24, 0x7F	; 127
    275a:	80 93 1a 02 	sts	0x021A, r24	; 0x80021a <TxHead>
    275e:	08 95       	ret

00002760 <__vector_20>:
	}
}


ISR (USART0_TX_vect)
{
    2760:	1f 92       	push	r1
    2762:	0f 92       	push	r0
    2764:	0f b6       	in	r0, 0x3f	; 63
    2766:	0f 92       	push	r0
    2768:	11 24       	eor	r1, r1
    276a:	8f 93       	push	r24
    276c:	9f 93       	push	r25
    276e:	ef 93       	push	r30
    2770:	ff 93       	push	r31
	if (TxTail == TxHead)
    2772:	90 91 1b 02 	lds	r25, 0x021B	; 0x80021b <TxTail>
    2776:	80 91 1a 02 	lds	r24, 0x021A	; 0x80021a <TxHead>
    277a:	98 13       	cpse	r25, r24
    277c:	03 c0       	rjmp	.+6      	; 0x2784 <__vector_20+0x24>
	{
		uint8_t x = UDR0;
    277e:	80 91 c6 00 	lds	r24, 0x00C6	; 0x8000c6 <__TEXT_REGION_LENGTH__+0x7e00c6>
    2782:	0e c0       	rjmp	.+28     	; 0x27a0 <__vector_20+0x40>
	}

	else
	{
		UDR0 = TxBuffor[TxTail];
    2784:	e0 91 1b 02 	lds	r30, 0x021B	; 0x80021b <TxTail>
    2788:	f0 e0       	ldi	r31, 0x00	; 0
    278a:	e4 58       	subi	r30, 0x84	; 132
    278c:	fb 4f       	sbci	r31, 0xFB	; 251
    278e:	80 81       	ld	r24, Z
    2790:	80 93 c6 00 	sts	0x00C6, r24	; 0x8000c6 <__TEXT_REGION_LENGTH__+0x7e00c6>
		TxTail = (TxTail+1) & TX_SIZE_BIN;
    2794:	80 91 1b 02 	lds	r24, 0x021B	; 0x80021b <TxTail>
    2798:	8f 5f       	subi	r24, 0xFF	; 255
    279a:	8f 77       	andi	r24, 0x7F	; 127
    279c:	80 93 1b 02 	sts	0x021B, r24	; 0x80021b <TxTail>
	}
}
    27a0:	ff 91       	pop	r31
    27a2:	ef 91       	pop	r30
    27a4:	9f 91       	pop	r25
    27a6:	8f 91       	pop	r24
    27a8:	0f 90       	pop	r0
    27aa:	0f be       	out	0x3f, r0	; 63
    27ac:	0f 90       	pop	r0
    27ae:	1f 90       	pop	r1
    27b0:	18 95       	reti

000027b2 <__vector_18>:

ISR (USART0_RX_vect)	//COM Rx
{
    27b2:	1f 92       	push	r1
    27b4:	0f 92       	push	r0
    27b6:	0f b6       	in	r0, 0x3f	; 63
    27b8:	0f 92       	push	r0
    27ba:	11 24       	eor	r1, r1
    27bc:	2f 93       	push	r18
    27be:	3f 93       	push	r19
    27c0:	4f 93       	push	r20
    27c2:	5f 93       	push	r21
    27c4:	6f 93       	push	r22
    27c6:	7f 93       	push	r23
    27c8:	8f 93       	push	r24
    27ca:	9f 93       	push	r25
    27cc:	af 93       	push	r26
    27ce:	bf 93       	push	r27
    27d0:	ef 93       	push	r30
    27d2:	ff 93       	push	r31
// 	uint8_t x = UDR0;
// 	ReceiveChar(x);
// 	PutCharToBuffor(x);
	ReceiveChar(UDR0);
    27d4:	80 91 c6 00 	lds	r24, 0x00C6	; 0x8000c6 <__TEXT_REGION_LENGTH__+0x7e00c6>
    27d8:	0e 94 67 11 	call	0x22ce	; 0x22ce <ReceiveChar>
    27dc:	ff 91       	pop	r31
    27de:	ef 91       	pop	r30
    27e0:	bf 91       	pop	r27
    27e2:	af 91       	pop	r26
    27e4:	9f 91       	pop	r25
    27e6:	8f 91       	pop	r24
    27e8:	7f 91       	pop	r23
    27ea:	6f 91       	pop	r22
    27ec:	5f 91       	pop	r21
    27ee:	4f 91       	pop	r20
    27f0:	3f 91       	pop	r19
    27f2:	2f 91       	pop	r18
    27f4:	0f 90       	pop	r0
    27f6:	0f be       	out	0x3f, r0	; 63
    27f8:	0f 90       	pop	r0
    27fa:	1f 90       	pop	r1
    27fc:	18 95       	reti

000027fe <__subsf3>:
    27fe:	50 58       	subi	r21, 0x80	; 128

00002800 <__addsf3>:
    2800:	bb 27       	eor	r27, r27
    2802:	aa 27       	eor	r26, r26
    2804:	0e 94 17 14 	call	0x282e	; 0x282e <__addsf3x>
    2808:	0c 94 be 15 	jmp	0x2b7c	; 0x2b7c <__fp_round>
    280c:	0e 94 b0 15 	call	0x2b60	; 0x2b60 <__fp_pscA>
    2810:	38 f0       	brcs	.+14     	; 0x2820 <__addsf3+0x20>
    2812:	0e 94 b7 15 	call	0x2b6e	; 0x2b6e <__fp_pscB>
    2816:	20 f0       	brcs	.+8      	; 0x2820 <__addsf3+0x20>
    2818:	39 f4       	brne	.+14     	; 0x2828 <__addsf3+0x28>
    281a:	9f 3f       	cpi	r25, 0xFF	; 255
    281c:	19 f4       	brne	.+6      	; 0x2824 <__addsf3+0x24>
    281e:	26 f4       	brtc	.+8      	; 0x2828 <__addsf3+0x28>
    2820:	0c 94 86 15 	jmp	0x2b0c	; 0x2b0c <__fp_nan>
    2824:	0e f4       	brtc	.+2      	; 0x2828 <__addsf3+0x28>
    2826:	e0 95       	com	r30
    2828:	e7 fb       	bst	r30, 7
    282a:	0c 94 80 15 	jmp	0x2b00	; 0x2b00 <__fp_inf>

0000282e <__addsf3x>:
    282e:	e9 2f       	mov	r30, r25
    2830:	0e 94 cf 15 	call	0x2b9e	; 0x2b9e <__fp_split3>
    2834:	58 f3       	brcs	.-42     	; 0x280c <__addsf3+0xc>
    2836:	ba 17       	cp	r27, r26
    2838:	62 07       	cpc	r22, r18
    283a:	73 07       	cpc	r23, r19
    283c:	84 07       	cpc	r24, r20
    283e:	95 07       	cpc	r25, r21
    2840:	20 f0       	brcs	.+8      	; 0x284a <__addsf3x+0x1c>
    2842:	79 f4       	brne	.+30     	; 0x2862 <__addsf3x+0x34>
    2844:	a6 f5       	brtc	.+104    	; 0x28ae <__addsf3x+0x80>
    2846:	0c 94 f1 15 	jmp	0x2be2	; 0x2be2 <__fp_zero>
    284a:	0e f4       	brtc	.+2      	; 0x284e <__addsf3x+0x20>
    284c:	e0 95       	com	r30
    284e:	0b 2e       	mov	r0, r27
    2850:	ba 2f       	mov	r27, r26
    2852:	a0 2d       	mov	r26, r0
    2854:	0b 01       	movw	r0, r22
    2856:	b9 01       	movw	r22, r18
    2858:	90 01       	movw	r18, r0
    285a:	0c 01       	movw	r0, r24
    285c:	ca 01       	movw	r24, r20
    285e:	a0 01       	movw	r20, r0
    2860:	11 24       	eor	r1, r1
    2862:	ff 27       	eor	r31, r31
    2864:	59 1b       	sub	r21, r25
    2866:	99 f0       	breq	.+38     	; 0x288e <__addsf3x+0x60>
    2868:	59 3f       	cpi	r21, 0xF9	; 249
    286a:	50 f4       	brcc	.+20     	; 0x2880 <__addsf3x+0x52>
    286c:	50 3e       	cpi	r21, 0xE0	; 224
    286e:	68 f1       	brcs	.+90     	; 0x28ca <__addsf3x+0x9c>
    2870:	1a 16       	cp	r1, r26
    2872:	f0 40       	sbci	r31, 0x00	; 0
    2874:	a2 2f       	mov	r26, r18
    2876:	23 2f       	mov	r18, r19
    2878:	34 2f       	mov	r19, r20
    287a:	44 27       	eor	r20, r20
    287c:	58 5f       	subi	r21, 0xF8	; 248
    287e:	f3 cf       	rjmp	.-26     	; 0x2866 <__addsf3x+0x38>
    2880:	46 95       	lsr	r20
    2882:	37 95       	ror	r19
    2884:	27 95       	ror	r18
    2886:	a7 95       	ror	r26
    2888:	f0 40       	sbci	r31, 0x00	; 0
    288a:	53 95       	inc	r21
    288c:	c9 f7       	brne	.-14     	; 0x2880 <__addsf3x+0x52>
    288e:	7e f4       	brtc	.+30     	; 0x28ae <__addsf3x+0x80>
    2890:	1f 16       	cp	r1, r31
    2892:	ba 0b       	sbc	r27, r26
    2894:	62 0b       	sbc	r22, r18
    2896:	73 0b       	sbc	r23, r19
    2898:	84 0b       	sbc	r24, r20
    289a:	ba f0       	brmi	.+46     	; 0x28ca <__addsf3x+0x9c>
    289c:	91 50       	subi	r25, 0x01	; 1
    289e:	a1 f0       	breq	.+40     	; 0x28c8 <__addsf3x+0x9a>
    28a0:	ff 0f       	add	r31, r31
    28a2:	bb 1f       	adc	r27, r27
    28a4:	66 1f       	adc	r22, r22
    28a6:	77 1f       	adc	r23, r23
    28a8:	88 1f       	adc	r24, r24
    28aa:	c2 f7       	brpl	.-16     	; 0x289c <__addsf3x+0x6e>
    28ac:	0e c0       	rjmp	.+28     	; 0x28ca <__addsf3x+0x9c>
    28ae:	ba 0f       	add	r27, r26
    28b0:	62 1f       	adc	r22, r18
    28b2:	73 1f       	adc	r23, r19
    28b4:	84 1f       	adc	r24, r20
    28b6:	48 f4       	brcc	.+18     	; 0x28ca <__addsf3x+0x9c>
    28b8:	87 95       	ror	r24
    28ba:	77 95       	ror	r23
    28bc:	67 95       	ror	r22
    28be:	b7 95       	ror	r27
    28c0:	f7 95       	ror	r31
    28c2:	9e 3f       	cpi	r25, 0xFE	; 254
    28c4:	08 f0       	brcs	.+2      	; 0x28c8 <__addsf3x+0x9a>
    28c6:	b0 cf       	rjmp	.-160    	; 0x2828 <__addsf3+0x28>
    28c8:	93 95       	inc	r25
    28ca:	88 0f       	add	r24, r24
    28cc:	08 f0       	brcs	.+2      	; 0x28d0 <__addsf3x+0xa2>
    28ce:	99 27       	eor	r25, r25
    28d0:	ee 0f       	add	r30, r30
    28d2:	97 95       	ror	r25
    28d4:	87 95       	ror	r24
    28d6:	08 95       	ret

000028d8 <atan>:
    28d8:	df 93       	push	r29
    28da:	dd 27       	eor	r29, r29
    28dc:	b9 2f       	mov	r27, r25
    28de:	bf 77       	andi	r27, 0x7F	; 127
    28e0:	40 e8       	ldi	r20, 0x80	; 128
    28e2:	5f e3       	ldi	r21, 0x3F	; 63
    28e4:	16 16       	cp	r1, r22
    28e6:	17 06       	cpc	r1, r23
    28e8:	48 07       	cpc	r20, r24
    28ea:	5b 07       	cpc	r21, r27
    28ec:	18 f4       	brcc	.+6      	; 0x28f4 <atan+0x1c>
    28ee:	d9 2f       	mov	r29, r25
    28f0:	0e 94 f8 15 	call	0x2bf0	; 0x2bf0 <inverse>
    28f4:	9f 93       	push	r25
    28f6:	8f 93       	push	r24
    28f8:	7f 93       	push	r23
    28fa:	6f 93       	push	r22
    28fc:	0e 94 6d 16 	call	0x2cda	; 0x2cda <square>
    2900:	e6 ec       	ldi	r30, 0xC6	; 198
    2902:	f0 e0       	ldi	r31, 0x00	; 0
    2904:	0e 94 89 15 	call	0x2b12	; 0x2b12 <__fp_powser>
    2908:	0e 94 be 15 	call	0x2b7c	; 0x2b7c <__fp_round>
    290c:	2f 91       	pop	r18
    290e:	3f 91       	pop	r19
    2910:	4f 91       	pop	r20
    2912:	5f 91       	pop	r21
    2914:	0e 94 13 16 	call	0x2c26	; 0x2c26 <__mulsf3x>
    2918:	dd 23       	and	r29, r29
    291a:	51 f0       	breq	.+20     	; 0x2930 <atan+0x58>
    291c:	90 58       	subi	r25, 0x80	; 128
    291e:	a2 ea       	ldi	r26, 0xA2	; 162
    2920:	2a ed       	ldi	r18, 0xDA	; 218
    2922:	3f e0       	ldi	r19, 0x0F	; 15
    2924:	49 ec       	ldi	r20, 0xC9	; 201
    2926:	5f e3       	ldi	r21, 0x3F	; 63
    2928:	d0 78       	andi	r29, 0x80	; 128
    292a:	5d 27       	eor	r21, r29
    292c:	0e 94 17 14 	call	0x282e	; 0x282e <__addsf3x>
    2930:	df 91       	pop	r29
    2932:	0c 94 be 15 	jmp	0x2b7c	; 0x2b7c <__fp_round>

00002936 <__divsf3>:
    2936:	0e 94 af 14 	call	0x295e	; 0x295e <__divsf3x>
    293a:	0c 94 be 15 	jmp	0x2b7c	; 0x2b7c <__fp_round>
    293e:	0e 94 b7 15 	call	0x2b6e	; 0x2b6e <__fp_pscB>
    2942:	58 f0       	brcs	.+22     	; 0x295a <__divsf3+0x24>
    2944:	0e 94 b0 15 	call	0x2b60	; 0x2b60 <__fp_pscA>
    2948:	40 f0       	brcs	.+16     	; 0x295a <__divsf3+0x24>
    294a:	29 f4       	brne	.+10     	; 0x2956 <__divsf3+0x20>
    294c:	5f 3f       	cpi	r21, 0xFF	; 255
    294e:	29 f0       	breq	.+10     	; 0x295a <__divsf3+0x24>
    2950:	0c 94 80 15 	jmp	0x2b00	; 0x2b00 <__fp_inf>
    2954:	51 11       	cpse	r21, r1
    2956:	0c 94 f2 15 	jmp	0x2be4	; 0x2be4 <__fp_szero>
    295a:	0c 94 86 15 	jmp	0x2b0c	; 0x2b0c <__fp_nan>

0000295e <__divsf3x>:
    295e:	0e 94 cf 15 	call	0x2b9e	; 0x2b9e <__fp_split3>
    2962:	68 f3       	brcs	.-38     	; 0x293e <__divsf3+0x8>

00002964 <__divsf3_pse>:
    2964:	99 23       	and	r25, r25
    2966:	b1 f3       	breq	.-20     	; 0x2954 <__divsf3+0x1e>
    2968:	55 23       	and	r21, r21
    296a:	91 f3       	breq	.-28     	; 0x2950 <__divsf3+0x1a>
    296c:	95 1b       	sub	r25, r21
    296e:	55 0b       	sbc	r21, r21
    2970:	bb 27       	eor	r27, r27
    2972:	aa 27       	eor	r26, r26
    2974:	62 17       	cp	r22, r18
    2976:	73 07       	cpc	r23, r19
    2978:	84 07       	cpc	r24, r20
    297a:	38 f0       	brcs	.+14     	; 0x298a <__divsf3_pse+0x26>
    297c:	9f 5f       	subi	r25, 0xFF	; 255
    297e:	5f 4f       	sbci	r21, 0xFF	; 255
    2980:	22 0f       	add	r18, r18
    2982:	33 1f       	adc	r19, r19
    2984:	44 1f       	adc	r20, r20
    2986:	aa 1f       	adc	r26, r26
    2988:	a9 f3       	breq	.-22     	; 0x2974 <__divsf3_pse+0x10>
    298a:	35 d0       	rcall	.+106    	; 0x29f6 <__divsf3_pse+0x92>
    298c:	0e 2e       	mov	r0, r30
    298e:	3a f0       	brmi	.+14     	; 0x299e <__divsf3_pse+0x3a>
    2990:	e0 e8       	ldi	r30, 0x80	; 128
    2992:	32 d0       	rcall	.+100    	; 0x29f8 <__divsf3_pse+0x94>
    2994:	91 50       	subi	r25, 0x01	; 1
    2996:	50 40       	sbci	r21, 0x00	; 0
    2998:	e6 95       	lsr	r30
    299a:	00 1c       	adc	r0, r0
    299c:	ca f7       	brpl	.-14     	; 0x2990 <__divsf3_pse+0x2c>
    299e:	2b d0       	rcall	.+86     	; 0x29f6 <__divsf3_pse+0x92>
    29a0:	fe 2f       	mov	r31, r30
    29a2:	29 d0       	rcall	.+82     	; 0x29f6 <__divsf3_pse+0x92>
    29a4:	66 0f       	add	r22, r22
    29a6:	77 1f       	adc	r23, r23
    29a8:	88 1f       	adc	r24, r24
    29aa:	bb 1f       	adc	r27, r27
    29ac:	26 17       	cp	r18, r22
    29ae:	37 07       	cpc	r19, r23
    29b0:	48 07       	cpc	r20, r24
    29b2:	ab 07       	cpc	r26, r27
    29b4:	b0 e8       	ldi	r27, 0x80	; 128
    29b6:	09 f0       	breq	.+2      	; 0x29ba <__divsf3_pse+0x56>
    29b8:	bb 0b       	sbc	r27, r27
    29ba:	80 2d       	mov	r24, r0
    29bc:	bf 01       	movw	r22, r30
    29be:	ff 27       	eor	r31, r31
    29c0:	93 58       	subi	r25, 0x83	; 131
    29c2:	5f 4f       	sbci	r21, 0xFF	; 255
    29c4:	3a f0       	brmi	.+14     	; 0x29d4 <__divsf3_pse+0x70>
    29c6:	9e 3f       	cpi	r25, 0xFE	; 254
    29c8:	51 05       	cpc	r21, r1
    29ca:	78 f0       	brcs	.+30     	; 0x29ea <__divsf3_pse+0x86>
    29cc:	0c 94 80 15 	jmp	0x2b00	; 0x2b00 <__fp_inf>
    29d0:	0c 94 f2 15 	jmp	0x2be4	; 0x2be4 <__fp_szero>
    29d4:	5f 3f       	cpi	r21, 0xFF	; 255
    29d6:	e4 f3       	brlt	.-8      	; 0x29d0 <__divsf3_pse+0x6c>
    29d8:	98 3e       	cpi	r25, 0xE8	; 232
    29da:	d4 f3       	brlt	.-12     	; 0x29d0 <__divsf3_pse+0x6c>
    29dc:	86 95       	lsr	r24
    29de:	77 95       	ror	r23
    29e0:	67 95       	ror	r22
    29e2:	b7 95       	ror	r27
    29e4:	f7 95       	ror	r31
    29e6:	9f 5f       	subi	r25, 0xFF	; 255
    29e8:	c9 f7       	brne	.-14     	; 0x29dc <__divsf3_pse+0x78>
    29ea:	88 0f       	add	r24, r24
    29ec:	91 1d       	adc	r25, r1
    29ee:	96 95       	lsr	r25
    29f0:	87 95       	ror	r24
    29f2:	97 f9       	bld	r25, 7
    29f4:	08 95       	ret
    29f6:	e1 e0       	ldi	r30, 0x01	; 1
    29f8:	66 0f       	add	r22, r22
    29fa:	77 1f       	adc	r23, r23
    29fc:	88 1f       	adc	r24, r24
    29fe:	bb 1f       	adc	r27, r27
    2a00:	62 17       	cp	r22, r18
    2a02:	73 07       	cpc	r23, r19
    2a04:	84 07       	cpc	r24, r20
    2a06:	ba 07       	cpc	r27, r26
    2a08:	20 f0       	brcs	.+8      	; 0x2a12 <__divsf3_pse+0xae>
    2a0a:	62 1b       	sub	r22, r18
    2a0c:	73 0b       	sbc	r23, r19
    2a0e:	84 0b       	sbc	r24, r20
    2a10:	ba 0b       	sbc	r27, r26
    2a12:	ee 1f       	adc	r30, r30
    2a14:	88 f7       	brcc	.-30     	; 0x29f8 <__divsf3_pse+0x94>
    2a16:	e0 95       	com	r30
    2a18:	08 95       	ret

00002a1a <__fixsfsi>:
    2a1a:	0e 94 14 15 	call	0x2a28	; 0x2a28 <__fixunssfsi>
    2a1e:	68 94       	set
    2a20:	b1 11       	cpse	r27, r1
    2a22:	0c 94 f2 15 	jmp	0x2be4	; 0x2be4 <__fp_szero>
    2a26:	08 95       	ret

00002a28 <__fixunssfsi>:
    2a28:	0e 94 d7 15 	call	0x2bae	; 0x2bae <__fp_splitA>
    2a2c:	88 f0       	brcs	.+34     	; 0x2a50 <__fixunssfsi+0x28>
    2a2e:	9f 57       	subi	r25, 0x7F	; 127
    2a30:	98 f0       	brcs	.+38     	; 0x2a58 <__fixunssfsi+0x30>
    2a32:	b9 2f       	mov	r27, r25
    2a34:	99 27       	eor	r25, r25
    2a36:	b7 51       	subi	r27, 0x17	; 23
    2a38:	b0 f0       	brcs	.+44     	; 0x2a66 <__fixunssfsi+0x3e>
    2a3a:	e1 f0       	breq	.+56     	; 0x2a74 <__fixunssfsi+0x4c>
    2a3c:	66 0f       	add	r22, r22
    2a3e:	77 1f       	adc	r23, r23
    2a40:	88 1f       	adc	r24, r24
    2a42:	99 1f       	adc	r25, r25
    2a44:	1a f0       	brmi	.+6      	; 0x2a4c <__fixunssfsi+0x24>
    2a46:	ba 95       	dec	r27
    2a48:	c9 f7       	brne	.-14     	; 0x2a3c <__fixunssfsi+0x14>
    2a4a:	14 c0       	rjmp	.+40     	; 0x2a74 <__fixunssfsi+0x4c>
    2a4c:	b1 30       	cpi	r27, 0x01	; 1
    2a4e:	91 f0       	breq	.+36     	; 0x2a74 <__fixunssfsi+0x4c>
    2a50:	0e 94 f1 15 	call	0x2be2	; 0x2be2 <__fp_zero>
    2a54:	b1 e0       	ldi	r27, 0x01	; 1
    2a56:	08 95       	ret
    2a58:	0c 94 f1 15 	jmp	0x2be2	; 0x2be2 <__fp_zero>
    2a5c:	67 2f       	mov	r22, r23
    2a5e:	78 2f       	mov	r23, r24
    2a60:	88 27       	eor	r24, r24
    2a62:	b8 5f       	subi	r27, 0xF8	; 248
    2a64:	39 f0       	breq	.+14     	; 0x2a74 <__fixunssfsi+0x4c>
    2a66:	b9 3f       	cpi	r27, 0xF9	; 249
    2a68:	cc f3       	brlt	.-14     	; 0x2a5c <__fixunssfsi+0x34>
    2a6a:	86 95       	lsr	r24
    2a6c:	77 95       	ror	r23
    2a6e:	67 95       	ror	r22
    2a70:	b3 95       	inc	r27
    2a72:	d9 f7       	brne	.-10     	; 0x2a6a <__fixunssfsi+0x42>
    2a74:	3e f4       	brtc	.+14     	; 0x2a84 <__fixunssfsi+0x5c>
    2a76:	90 95       	com	r25
    2a78:	80 95       	com	r24
    2a7a:	70 95       	com	r23
    2a7c:	61 95       	neg	r22
    2a7e:	7f 4f       	sbci	r23, 0xFF	; 255
    2a80:	8f 4f       	sbci	r24, 0xFF	; 255
    2a82:	9f 4f       	sbci	r25, 0xFF	; 255
    2a84:	08 95       	ret

00002a86 <__floatunsisf>:
    2a86:	e8 94       	clt
    2a88:	09 c0       	rjmp	.+18     	; 0x2a9c <__floatsisf+0x12>

00002a8a <__floatsisf>:
    2a8a:	97 fb       	bst	r25, 7
    2a8c:	3e f4       	brtc	.+14     	; 0x2a9c <__floatsisf+0x12>
    2a8e:	90 95       	com	r25
    2a90:	80 95       	com	r24
    2a92:	70 95       	com	r23
    2a94:	61 95       	neg	r22
    2a96:	7f 4f       	sbci	r23, 0xFF	; 255
    2a98:	8f 4f       	sbci	r24, 0xFF	; 255
    2a9a:	9f 4f       	sbci	r25, 0xFF	; 255
    2a9c:	99 23       	and	r25, r25
    2a9e:	a9 f0       	breq	.+42     	; 0x2aca <__floatsisf+0x40>
    2aa0:	f9 2f       	mov	r31, r25
    2aa2:	96 e9       	ldi	r25, 0x96	; 150
    2aa4:	bb 27       	eor	r27, r27
    2aa6:	93 95       	inc	r25
    2aa8:	f6 95       	lsr	r31
    2aaa:	87 95       	ror	r24
    2aac:	77 95       	ror	r23
    2aae:	67 95       	ror	r22
    2ab0:	b7 95       	ror	r27
    2ab2:	f1 11       	cpse	r31, r1
    2ab4:	f8 cf       	rjmp	.-16     	; 0x2aa6 <__floatsisf+0x1c>
    2ab6:	fa f4       	brpl	.+62     	; 0x2af6 <__floatsisf+0x6c>
    2ab8:	bb 0f       	add	r27, r27
    2aba:	11 f4       	brne	.+4      	; 0x2ac0 <__floatsisf+0x36>
    2abc:	60 ff       	sbrs	r22, 0
    2abe:	1b c0       	rjmp	.+54     	; 0x2af6 <__floatsisf+0x6c>
    2ac0:	6f 5f       	subi	r22, 0xFF	; 255
    2ac2:	7f 4f       	sbci	r23, 0xFF	; 255
    2ac4:	8f 4f       	sbci	r24, 0xFF	; 255
    2ac6:	9f 4f       	sbci	r25, 0xFF	; 255
    2ac8:	16 c0       	rjmp	.+44     	; 0x2af6 <__floatsisf+0x6c>
    2aca:	88 23       	and	r24, r24
    2acc:	11 f0       	breq	.+4      	; 0x2ad2 <__floatsisf+0x48>
    2ace:	96 e9       	ldi	r25, 0x96	; 150
    2ad0:	11 c0       	rjmp	.+34     	; 0x2af4 <__floatsisf+0x6a>
    2ad2:	77 23       	and	r23, r23
    2ad4:	21 f0       	breq	.+8      	; 0x2ade <__floatsisf+0x54>
    2ad6:	9e e8       	ldi	r25, 0x8E	; 142
    2ad8:	87 2f       	mov	r24, r23
    2ada:	76 2f       	mov	r23, r22
    2adc:	05 c0       	rjmp	.+10     	; 0x2ae8 <__floatsisf+0x5e>
    2ade:	66 23       	and	r22, r22
    2ae0:	71 f0       	breq	.+28     	; 0x2afe <__floatsisf+0x74>
    2ae2:	96 e8       	ldi	r25, 0x86	; 134
    2ae4:	86 2f       	mov	r24, r22
    2ae6:	70 e0       	ldi	r23, 0x00	; 0
    2ae8:	60 e0       	ldi	r22, 0x00	; 0
    2aea:	2a f0       	brmi	.+10     	; 0x2af6 <__floatsisf+0x6c>
    2aec:	9a 95       	dec	r25
    2aee:	66 0f       	add	r22, r22
    2af0:	77 1f       	adc	r23, r23
    2af2:	88 1f       	adc	r24, r24
    2af4:	da f7       	brpl	.-10     	; 0x2aec <__floatsisf+0x62>
    2af6:	88 0f       	add	r24, r24
    2af8:	96 95       	lsr	r25
    2afa:	87 95       	ror	r24
    2afc:	97 f9       	bld	r25, 7
    2afe:	08 95       	ret

00002b00 <__fp_inf>:
    2b00:	97 f9       	bld	r25, 7
    2b02:	9f 67       	ori	r25, 0x7F	; 127
    2b04:	80 e8       	ldi	r24, 0x80	; 128
    2b06:	70 e0       	ldi	r23, 0x00	; 0
    2b08:	60 e0       	ldi	r22, 0x00	; 0
    2b0a:	08 95       	ret

00002b0c <__fp_nan>:
    2b0c:	9f ef       	ldi	r25, 0xFF	; 255
    2b0e:	80 ec       	ldi	r24, 0xC0	; 192
    2b10:	08 95       	ret

00002b12 <__fp_powser>:
    2b12:	df 93       	push	r29
    2b14:	cf 93       	push	r28
    2b16:	1f 93       	push	r17
    2b18:	0f 93       	push	r16
    2b1a:	ff 92       	push	r15
    2b1c:	ef 92       	push	r14
    2b1e:	df 92       	push	r13
    2b20:	7b 01       	movw	r14, r22
    2b22:	8c 01       	movw	r16, r24
    2b24:	68 94       	set
    2b26:	06 c0       	rjmp	.+12     	; 0x2b34 <__fp_powser+0x22>
    2b28:	da 2e       	mov	r13, r26
    2b2a:	ef 01       	movw	r28, r30
    2b2c:	0e 94 13 16 	call	0x2c26	; 0x2c26 <__mulsf3x>
    2b30:	fe 01       	movw	r30, r28
    2b32:	e8 94       	clt
    2b34:	a5 91       	lpm	r26, Z+
    2b36:	25 91       	lpm	r18, Z+
    2b38:	35 91       	lpm	r19, Z+
    2b3a:	45 91       	lpm	r20, Z+
    2b3c:	55 91       	lpm	r21, Z+
    2b3e:	a6 f3       	brts	.-24     	; 0x2b28 <__fp_powser+0x16>
    2b40:	ef 01       	movw	r28, r30
    2b42:	0e 94 17 14 	call	0x282e	; 0x282e <__addsf3x>
    2b46:	fe 01       	movw	r30, r28
    2b48:	97 01       	movw	r18, r14
    2b4a:	a8 01       	movw	r20, r16
    2b4c:	da 94       	dec	r13
    2b4e:	69 f7       	brne	.-38     	; 0x2b2a <__fp_powser+0x18>
    2b50:	df 90       	pop	r13
    2b52:	ef 90       	pop	r14
    2b54:	ff 90       	pop	r15
    2b56:	0f 91       	pop	r16
    2b58:	1f 91       	pop	r17
    2b5a:	cf 91       	pop	r28
    2b5c:	df 91       	pop	r29
    2b5e:	08 95       	ret

00002b60 <__fp_pscA>:
    2b60:	00 24       	eor	r0, r0
    2b62:	0a 94       	dec	r0
    2b64:	16 16       	cp	r1, r22
    2b66:	17 06       	cpc	r1, r23
    2b68:	18 06       	cpc	r1, r24
    2b6a:	09 06       	cpc	r0, r25
    2b6c:	08 95       	ret

00002b6e <__fp_pscB>:
    2b6e:	00 24       	eor	r0, r0
    2b70:	0a 94       	dec	r0
    2b72:	12 16       	cp	r1, r18
    2b74:	13 06       	cpc	r1, r19
    2b76:	14 06       	cpc	r1, r20
    2b78:	05 06       	cpc	r0, r21
    2b7a:	08 95       	ret

00002b7c <__fp_round>:
    2b7c:	09 2e       	mov	r0, r25
    2b7e:	03 94       	inc	r0
    2b80:	00 0c       	add	r0, r0
    2b82:	11 f4       	brne	.+4      	; 0x2b88 <__fp_round+0xc>
    2b84:	88 23       	and	r24, r24
    2b86:	52 f0       	brmi	.+20     	; 0x2b9c <__fp_round+0x20>
    2b88:	bb 0f       	add	r27, r27
    2b8a:	40 f4       	brcc	.+16     	; 0x2b9c <__fp_round+0x20>
    2b8c:	bf 2b       	or	r27, r31
    2b8e:	11 f4       	brne	.+4      	; 0x2b94 <__fp_round+0x18>
    2b90:	60 ff       	sbrs	r22, 0
    2b92:	04 c0       	rjmp	.+8      	; 0x2b9c <__fp_round+0x20>
    2b94:	6f 5f       	subi	r22, 0xFF	; 255
    2b96:	7f 4f       	sbci	r23, 0xFF	; 255
    2b98:	8f 4f       	sbci	r24, 0xFF	; 255
    2b9a:	9f 4f       	sbci	r25, 0xFF	; 255
    2b9c:	08 95       	ret

00002b9e <__fp_split3>:
    2b9e:	57 fd       	sbrc	r21, 7
    2ba0:	90 58       	subi	r25, 0x80	; 128
    2ba2:	44 0f       	add	r20, r20
    2ba4:	55 1f       	adc	r21, r21
    2ba6:	59 f0       	breq	.+22     	; 0x2bbe <__fp_splitA+0x10>
    2ba8:	5f 3f       	cpi	r21, 0xFF	; 255
    2baa:	71 f0       	breq	.+28     	; 0x2bc8 <__fp_splitA+0x1a>
    2bac:	47 95       	ror	r20

00002bae <__fp_splitA>:
    2bae:	88 0f       	add	r24, r24
    2bb0:	97 fb       	bst	r25, 7
    2bb2:	99 1f       	adc	r25, r25
    2bb4:	61 f0       	breq	.+24     	; 0x2bce <__fp_splitA+0x20>
    2bb6:	9f 3f       	cpi	r25, 0xFF	; 255
    2bb8:	79 f0       	breq	.+30     	; 0x2bd8 <__fp_splitA+0x2a>
    2bba:	87 95       	ror	r24
    2bbc:	08 95       	ret
    2bbe:	12 16       	cp	r1, r18
    2bc0:	13 06       	cpc	r1, r19
    2bc2:	14 06       	cpc	r1, r20
    2bc4:	55 1f       	adc	r21, r21
    2bc6:	f2 cf       	rjmp	.-28     	; 0x2bac <__fp_split3+0xe>
    2bc8:	46 95       	lsr	r20
    2bca:	f1 df       	rcall	.-30     	; 0x2bae <__fp_splitA>
    2bcc:	08 c0       	rjmp	.+16     	; 0x2bde <__fp_splitA+0x30>
    2bce:	16 16       	cp	r1, r22
    2bd0:	17 06       	cpc	r1, r23
    2bd2:	18 06       	cpc	r1, r24
    2bd4:	99 1f       	adc	r25, r25
    2bd6:	f1 cf       	rjmp	.-30     	; 0x2bba <__fp_splitA+0xc>
    2bd8:	86 95       	lsr	r24
    2bda:	71 05       	cpc	r23, r1
    2bdc:	61 05       	cpc	r22, r1
    2bde:	08 94       	sec
    2be0:	08 95       	ret

00002be2 <__fp_zero>:
    2be2:	e8 94       	clt

00002be4 <__fp_szero>:
    2be4:	bb 27       	eor	r27, r27
    2be6:	66 27       	eor	r22, r22
    2be8:	77 27       	eor	r23, r23
    2bea:	cb 01       	movw	r24, r22
    2bec:	97 f9       	bld	r25, 7
    2bee:	08 95       	ret

00002bf0 <inverse>:
    2bf0:	9b 01       	movw	r18, r22
    2bf2:	ac 01       	movw	r20, r24
    2bf4:	60 e0       	ldi	r22, 0x00	; 0
    2bf6:	70 e0       	ldi	r23, 0x00	; 0
    2bf8:	80 e8       	ldi	r24, 0x80	; 128
    2bfa:	9f e3       	ldi	r25, 0x3F	; 63
    2bfc:	0c 94 9b 14 	jmp	0x2936	; 0x2936 <__divsf3>

00002c00 <__mulsf3>:
    2c00:	0e 94 13 16 	call	0x2c26	; 0x2c26 <__mulsf3x>
    2c04:	0c 94 be 15 	jmp	0x2b7c	; 0x2b7c <__fp_round>
    2c08:	0e 94 b0 15 	call	0x2b60	; 0x2b60 <__fp_pscA>
    2c0c:	38 f0       	brcs	.+14     	; 0x2c1c <__mulsf3+0x1c>
    2c0e:	0e 94 b7 15 	call	0x2b6e	; 0x2b6e <__fp_pscB>
    2c12:	20 f0       	brcs	.+8      	; 0x2c1c <__mulsf3+0x1c>
    2c14:	95 23       	and	r25, r21
    2c16:	11 f0       	breq	.+4      	; 0x2c1c <__mulsf3+0x1c>
    2c18:	0c 94 80 15 	jmp	0x2b00	; 0x2b00 <__fp_inf>
    2c1c:	0c 94 86 15 	jmp	0x2b0c	; 0x2b0c <__fp_nan>
    2c20:	11 24       	eor	r1, r1
    2c22:	0c 94 f2 15 	jmp	0x2be4	; 0x2be4 <__fp_szero>

00002c26 <__mulsf3x>:
    2c26:	0e 94 cf 15 	call	0x2b9e	; 0x2b9e <__fp_split3>
    2c2a:	70 f3       	brcs	.-36     	; 0x2c08 <__mulsf3+0x8>

00002c2c <__mulsf3_pse>:
    2c2c:	95 9f       	mul	r25, r21
    2c2e:	c1 f3       	breq	.-16     	; 0x2c20 <__mulsf3+0x20>
    2c30:	95 0f       	add	r25, r21
    2c32:	50 e0       	ldi	r21, 0x00	; 0
    2c34:	55 1f       	adc	r21, r21
    2c36:	62 9f       	mul	r22, r18
    2c38:	f0 01       	movw	r30, r0
    2c3a:	72 9f       	mul	r23, r18
    2c3c:	bb 27       	eor	r27, r27
    2c3e:	f0 0d       	add	r31, r0
    2c40:	b1 1d       	adc	r27, r1
    2c42:	63 9f       	mul	r22, r19
    2c44:	aa 27       	eor	r26, r26
    2c46:	f0 0d       	add	r31, r0
    2c48:	b1 1d       	adc	r27, r1
    2c4a:	aa 1f       	adc	r26, r26
    2c4c:	64 9f       	mul	r22, r20
    2c4e:	66 27       	eor	r22, r22
    2c50:	b0 0d       	add	r27, r0
    2c52:	a1 1d       	adc	r26, r1
    2c54:	66 1f       	adc	r22, r22
    2c56:	82 9f       	mul	r24, r18
    2c58:	22 27       	eor	r18, r18
    2c5a:	b0 0d       	add	r27, r0
    2c5c:	a1 1d       	adc	r26, r1
    2c5e:	62 1f       	adc	r22, r18
    2c60:	73 9f       	mul	r23, r19
    2c62:	b0 0d       	add	r27, r0
    2c64:	a1 1d       	adc	r26, r1
    2c66:	62 1f       	adc	r22, r18
    2c68:	83 9f       	mul	r24, r19
    2c6a:	a0 0d       	add	r26, r0
    2c6c:	61 1d       	adc	r22, r1
    2c6e:	22 1f       	adc	r18, r18
    2c70:	74 9f       	mul	r23, r20
    2c72:	33 27       	eor	r19, r19
    2c74:	a0 0d       	add	r26, r0
    2c76:	61 1d       	adc	r22, r1
    2c78:	23 1f       	adc	r18, r19
    2c7a:	84 9f       	mul	r24, r20
    2c7c:	60 0d       	add	r22, r0
    2c7e:	21 1d       	adc	r18, r1
    2c80:	82 2f       	mov	r24, r18
    2c82:	76 2f       	mov	r23, r22
    2c84:	6a 2f       	mov	r22, r26
    2c86:	11 24       	eor	r1, r1
    2c88:	9f 57       	subi	r25, 0x7F	; 127
    2c8a:	50 40       	sbci	r21, 0x00	; 0
    2c8c:	9a f0       	brmi	.+38     	; 0x2cb4 <__mulsf3_pse+0x88>
    2c8e:	f1 f0       	breq	.+60     	; 0x2ccc <__mulsf3_pse+0xa0>
    2c90:	88 23       	and	r24, r24
    2c92:	4a f0       	brmi	.+18     	; 0x2ca6 <__mulsf3_pse+0x7a>
    2c94:	ee 0f       	add	r30, r30
    2c96:	ff 1f       	adc	r31, r31
    2c98:	bb 1f       	adc	r27, r27
    2c9a:	66 1f       	adc	r22, r22
    2c9c:	77 1f       	adc	r23, r23
    2c9e:	88 1f       	adc	r24, r24
    2ca0:	91 50       	subi	r25, 0x01	; 1
    2ca2:	50 40       	sbci	r21, 0x00	; 0
    2ca4:	a9 f7       	brne	.-22     	; 0x2c90 <__mulsf3_pse+0x64>
    2ca6:	9e 3f       	cpi	r25, 0xFE	; 254
    2ca8:	51 05       	cpc	r21, r1
    2caa:	80 f0       	brcs	.+32     	; 0x2ccc <__mulsf3_pse+0xa0>
    2cac:	0c 94 80 15 	jmp	0x2b00	; 0x2b00 <__fp_inf>
    2cb0:	0c 94 f2 15 	jmp	0x2be4	; 0x2be4 <__fp_szero>
    2cb4:	5f 3f       	cpi	r21, 0xFF	; 255
    2cb6:	e4 f3       	brlt	.-8      	; 0x2cb0 <__mulsf3_pse+0x84>
    2cb8:	98 3e       	cpi	r25, 0xE8	; 232
    2cba:	d4 f3       	brlt	.-12     	; 0x2cb0 <__mulsf3_pse+0x84>
    2cbc:	86 95       	lsr	r24
    2cbe:	77 95       	ror	r23
    2cc0:	67 95       	ror	r22
    2cc2:	b7 95       	ror	r27
    2cc4:	f7 95       	ror	r31
    2cc6:	e7 95       	ror	r30
    2cc8:	9f 5f       	subi	r25, 0xFF	; 255
    2cca:	c1 f7       	brne	.-16     	; 0x2cbc <__mulsf3_pse+0x90>
    2ccc:	fe 2b       	or	r31, r30
    2cce:	88 0f       	add	r24, r24
    2cd0:	91 1d       	adc	r25, r1
    2cd2:	96 95       	lsr	r25
    2cd4:	87 95       	ror	r24
    2cd6:	97 f9       	bld	r25, 7
    2cd8:	08 95       	ret

00002cda <square>:
    2cda:	9b 01       	movw	r18, r22
    2cdc:	ac 01       	movw	r20, r24
    2cde:	0c 94 00 16 	jmp	0x2c00	; 0x2c00 <__mulsf3>

00002ce2 <__mulsi3>:
    2ce2:	db 01       	movw	r26, r22
    2ce4:	8f 93       	push	r24
    2ce6:	9f 93       	push	r25
    2ce8:	0e 94 c4 16 	call	0x2d88	; 0x2d88 <__muluhisi3>
    2cec:	bf 91       	pop	r27
    2cee:	af 91       	pop	r26
    2cf0:	a2 9f       	mul	r26, r18
    2cf2:	80 0d       	add	r24, r0
    2cf4:	91 1d       	adc	r25, r1
    2cf6:	a3 9f       	mul	r26, r19
    2cf8:	90 0d       	add	r25, r0
    2cfa:	b2 9f       	mul	r27, r18
    2cfc:	90 0d       	add	r25, r0
    2cfe:	11 24       	eor	r1, r1
    2d00:	08 95       	ret

00002d02 <__divmodsi4>:
    2d02:	05 2e       	mov	r0, r21
    2d04:	97 fb       	bst	r25, 7
    2d06:	1e f4       	brtc	.+6      	; 0x2d0e <__divmodsi4+0xc>
    2d08:	00 94       	com	r0
    2d0a:	0e 94 98 16 	call	0x2d30	; 0x2d30 <__negsi2>
    2d0e:	57 fd       	sbrc	r21, 7
    2d10:	07 d0       	rcall	.+14     	; 0x2d20 <__divmodsi4_neg2>
    2d12:	0e 94 d7 16 	call	0x2dae	; 0x2dae <__udivmodsi4>
    2d16:	07 fc       	sbrc	r0, 7
    2d18:	03 d0       	rcall	.+6      	; 0x2d20 <__divmodsi4_neg2>
    2d1a:	4e f4       	brtc	.+18     	; 0x2d2e <__divmodsi4_exit>
    2d1c:	0c 94 98 16 	jmp	0x2d30	; 0x2d30 <__negsi2>

00002d20 <__divmodsi4_neg2>:
    2d20:	50 95       	com	r21
    2d22:	40 95       	com	r20
    2d24:	30 95       	com	r19
    2d26:	21 95       	neg	r18
    2d28:	3f 4f       	sbci	r19, 0xFF	; 255
    2d2a:	4f 4f       	sbci	r20, 0xFF	; 255
    2d2c:	5f 4f       	sbci	r21, 0xFF	; 255

00002d2e <__divmodsi4_exit>:
    2d2e:	08 95       	ret

00002d30 <__negsi2>:
    2d30:	90 95       	com	r25
    2d32:	80 95       	com	r24
    2d34:	70 95       	com	r23
    2d36:	61 95       	neg	r22
    2d38:	7f 4f       	sbci	r23, 0xFF	; 255
    2d3a:	8f 4f       	sbci	r24, 0xFF	; 255
    2d3c:	9f 4f       	sbci	r25, 0xFF	; 255
    2d3e:	08 95       	ret

00002d40 <__tablejump2__>:
    2d40:	ee 0f       	add	r30, r30
    2d42:	ff 1f       	adc	r31, r31
    2d44:	05 90       	lpm	r0, Z+
    2d46:	f4 91       	lpm	r31, Z
    2d48:	e0 2d       	mov	r30, r0
    2d4a:	09 94       	ijmp

00002d4c <__mulhisi3>:
    2d4c:	0e 94 ae 16 	call	0x2d5c	; 0x2d5c <__umulhisi3>
    2d50:	33 23       	and	r19, r19
    2d52:	12 f4       	brpl	.+4      	; 0x2d58 <__mulhisi3+0xc>
    2d54:	8a 1b       	sub	r24, r26
    2d56:	9b 0b       	sbc	r25, r27
    2d58:	0c 94 bf 16 	jmp	0x2d7e	; 0x2d7e <__usmulhisi3_tail>

00002d5c <__umulhisi3>:
    2d5c:	a2 9f       	mul	r26, r18
    2d5e:	b0 01       	movw	r22, r0
    2d60:	b3 9f       	mul	r27, r19
    2d62:	c0 01       	movw	r24, r0
    2d64:	a3 9f       	mul	r26, r19
    2d66:	70 0d       	add	r23, r0
    2d68:	81 1d       	adc	r24, r1
    2d6a:	11 24       	eor	r1, r1
    2d6c:	91 1d       	adc	r25, r1
    2d6e:	b2 9f       	mul	r27, r18
    2d70:	70 0d       	add	r23, r0
    2d72:	81 1d       	adc	r24, r1
    2d74:	11 24       	eor	r1, r1
    2d76:	91 1d       	adc	r25, r1
    2d78:	08 95       	ret

00002d7a <__usmulhisi3>:
    2d7a:	0e 94 ae 16 	call	0x2d5c	; 0x2d5c <__umulhisi3>

00002d7e <__usmulhisi3_tail>:
    2d7e:	b7 ff       	sbrs	r27, 7
    2d80:	08 95       	ret
    2d82:	82 1b       	sub	r24, r18
    2d84:	93 0b       	sbc	r25, r19
    2d86:	08 95       	ret

00002d88 <__muluhisi3>:
    2d88:	0e 94 ae 16 	call	0x2d5c	; 0x2d5c <__umulhisi3>
    2d8c:	a5 9f       	mul	r26, r21
    2d8e:	90 0d       	add	r25, r0
    2d90:	b4 9f       	mul	r27, r20
    2d92:	90 0d       	add	r25, r0
    2d94:	a4 9f       	mul	r26, r20
    2d96:	80 0d       	add	r24, r0
    2d98:	91 1d       	adc	r25, r1
    2d9a:	11 24       	eor	r1, r1
    2d9c:	08 95       	ret

00002d9e <__mulshisi3>:
    2d9e:	b7 ff       	sbrs	r27, 7
    2da0:	0c 94 c4 16 	jmp	0x2d88	; 0x2d88 <__muluhisi3>

00002da4 <__mulohisi3>:
    2da4:	0e 94 c4 16 	call	0x2d88	; 0x2d88 <__muluhisi3>
    2da8:	82 1b       	sub	r24, r18
    2daa:	93 0b       	sbc	r25, r19
    2dac:	08 95       	ret

00002dae <__udivmodsi4>:
    2dae:	a1 e2       	ldi	r26, 0x21	; 33
    2db0:	1a 2e       	mov	r1, r26
    2db2:	aa 1b       	sub	r26, r26
    2db4:	bb 1b       	sub	r27, r27
    2db6:	fd 01       	movw	r30, r26
    2db8:	0d c0       	rjmp	.+26     	; 0x2dd4 <__udivmodsi4_ep>

00002dba <__udivmodsi4_loop>:
    2dba:	aa 1f       	adc	r26, r26
    2dbc:	bb 1f       	adc	r27, r27
    2dbe:	ee 1f       	adc	r30, r30
    2dc0:	ff 1f       	adc	r31, r31
    2dc2:	a2 17       	cp	r26, r18
    2dc4:	b3 07       	cpc	r27, r19
    2dc6:	e4 07       	cpc	r30, r20
    2dc8:	f5 07       	cpc	r31, r21
    2dca:	20 f0       	brcs	.+8      	; 0x2dd4 <__udivmodsi4_ep>
    2dcc:	a2 1b       	sub	r26, r18
    2dce:	b3 0b       	sbc	r27, r19
    2dd0:	e4 0b       	sbc	r30, r20
    2dd2:	f5 0b       	sbc	r31, r21

00002dd4 <__udivmodsi4_ep>:
    2dd4:	66 1f       	adc	r22, r22
    2dd6:	77 1f       	adc	r23, r23
    2dd8:	88 1f       	adc	r24, r24
    2dda:	99 1f       	adc	r25, r25
    2ddc:	1a 94       	dec	r1
    2dde:	69 f7       	brne	.-38     	; 0x2dba <__udivmodsi4_loop>
    2de0:	60 95       	com	r22
    2de2:	70 95       	com	r23
    2de4:	80 95       	com	r24
    2de6:	90 95       	com	r25
    2de8:	9b 01       	movw	r18, r22
    2dea:	ac 01       	movw	r20, r24
    2dec:	bd 01       	movw	r22, r26
    2dee:	cf 01       	movw	r24, r30
    2df0:	08 95       	ret

00002df2 <__strlen_P>:
    2df2:	fc 01       	movw	r30, r24
    2df4:	05 90       	lpm	r0, Z+
    2df6:	00 20       	and	r0, r0
    2df8:	e9 f7       	brne	.-6      	; 0x2df4 <__strlen_P+0x2>
    2dfa:	80 95       	com	r24
    2dfc:	90 95       	com	r25
    2dfe:	8e 0f       	add	r24, r30
    2e00:	9f 1f       	adc	r25, r31
    2e02:	08 95       	ret

00002e04 <strncasecmp_P>:
    2e04:	fb 01       	movw	r30, r22
    2e06:	dc 01       	movw	r26, r24
    2e08:	41 50       	subi	r20, 0x01	; 1
    2e0a:	50 40       	sbci	r21, 0x00	; 0
    2e0c:	88 f0       	brcs	.+34     	; 0x2e30 <strncasecmp_P+0x2c>
    2e0e:	8d 91       	ld	r24, X+
    2e10:	81 34       	cpi	r24, 0x41	; 65
    2e12:	1c f0       	brlt	.+6      	; 0x2e1a <strncasecmp_P+0x16>
    2e14:	8b 35       	cpi	r24, 0x5B	; 91
    2e16:	0c f4       	brge	.+2      	; 0x2e1a <strncasecmp_P+0x16>
    2e18:	80 5e       	subi	r24, 0xE0	; 224
    2e1a:	65 91       	lpm	r22, Z+
    2e1c:	61 34       	cpi	r22, 0x41	; 65
    2e1e:	1c f0       	brlt	.+6      	; 0x2e26 <strncasecmp_P+0x22>
    2e20:	6b 35       	cpi	r22, 0x5B	; 91
    2e22:	0c f4       	brge	.+2      	; 0x2e26 <strncasecmp_P+0x22>
    2e24:	60 5e       	subi	r22, 0xE0	; 224
    2e26:	86 1b       	sub	r24, r22
    2e28:	61 11       	cpse	r22, r1
    2e2a:	71 f3       	breq	.-36     	; 0x2e08 <strncasecmp_P+0x4>
    2e2c:	99 0b       	sbc	r25, r25
    2e2e:	08 95       	ret
    2e30:	88 1b       	sub	r24, r24
    2e32:	fc cf       	rjmp	.-8      	; 0x2e2c <strncasecmp_P+0x28>

00002e34 <strtok_r>:
    2e34:	fa 01       	movw	r30, r20
    2e36:	a1 91       	ld	r26, Z+
    2e38:	b0 81       	ld	r27, Z
    2e3a:	00 97       	sbiw	r24, 0x00	; 0
    2e3c:	19 f4       	brne	.+6      	; 0x2e44 <strtok_r+0x10>
    2e3e:	10 97       	sbiw	r26, 0x00	; 0
    2e40:	e1 f0       	breq	.+56     	; 0x2e7a <strtok_r+0x46>
    2e42:	cd 01       	movw	r24, r26
    2e44:	dc 01       	movw	r26, r24
    2e46:	cd 01       	movw	r24, r26
    2e48:	0d 90       	ld	r0, X+
    2e4a:	00 20       	and	r0, r0
    2e4c:	11 f4       	brne	.+4      	; 0x2e52 <strtok_r+0x1e>
    2e4e:	c0 01       	movw	r24, r0
    2e50:	13 c0       	rjmp	.+38     	; 0x2e78 <strtok_r+0x44>
    2e52:	fb 01       	movw	r30, r22
    2e54:	21 91       	ld	r18, Z+
    2e56:	22 23       	and	r18, r18
    2e58:	19 f0       	breq	.+6      	; 0x2e60 <strtok_r+0x2c>
    2e5a:	20 15       	cp	r18, r0
    2e5c:	d9 f7       	brne	.-10     	; 0x2e54 <strtok_r+0x20>
    2e5e:	f3 cf       	rjmp	.-26     	; 0x2e46 <strtok_r+0x12>
    2e60:	fb 01       	movw	r30, r22
    2e62:	21 91       	ld	r18, Z+
    2e64:	20 15       	cp	r18, r0
    2e66:	19 f4       	brne	.+6      	; 0x2e6e <strtok_r+0x3a>
    2e68:	1e 92       	st	-X, r1
    2e6a:	11 96       	adiw	r26, 0x01	; 1
    2e6c:	06 c0       	rjmp	.+12     	; 0x2e7a <strtok_r+0x46>
    2e6e:	22 23       	and	r18, r18
    2e70:	c1 f7       	brne	.-16     	; 0x2e62 <strtok_r+0x2e>
    2e72:	0d 90       	ld	r0, X+
    2e74:	00 20       	and	r0, r0
    2e76:	a1 f7       	brne	.-24     	; 0x2e60 <strtok_r+0x2c>
    2e78:	d0 01       	movw	r26, r0
    2e7a:	fa 01       	movw	r30, r20
    2e7c:	a1 93       	st	Z+, r26
    2e7e:	b0 83       	st	Z, r27
    2e80:	08 95       	ret

00002e82 <vfprintf>:
    2e82:	ab e0       	ldi	r26, 0x0B	; 11
    2e84:	b0 e0       	ldi	r27, 0x00	; 0
    2e86:	e7 e4       	ldi	r30, 0x47	; 71
    2e88:	f7 e1       	ldi	r31, 0x17	; 23
    2e8a:	0c 94 fa 19 	jmp	0x33f4	; 0x33f4 <__prologue_saves__>
    2e8e:	6c 01       	movw	r12, r24
    2e90:	7b 01       	movw	r14, r22
    2e92:	8a 01       	movw	r16, r20
    2e94:	fc 01       	movw	r30, r24
    2e96:	17 82       	std	Z+7, r1	; 0x07
    2e98:	16 82       	std	Z+6, r1	; 0x06
    2e9a:	83 81       	ldd	r24, Z+3	; 0x03
    2e9c:	81 ff       	sbrs	r24, 1
    2e9e:	cc c1       	rjmp	.+920    	; 0x3238 <vfprintf+0x3b6>
    2ea0:	ce 01       	movw	r24, r28
    2ea2:	01 96       	adiw	r24, 0x01	; 1
    2ea4:	3c 01       	movw	r6, r24
    2ea6:	f6 01       	movw	r30, r12
    2ea8:	93 81       	ldd	r25, Z+3	; 0x03
    2eaa:	f7 01       	movw	r30, r14
    2eac:	93 fd       	sbrc	r25, 3
    2eae:	85 91       	lpm	r24, Z+
    2eb0:	93 ff       	sbrs	r25, 3
    2eb2:	81 91       	ld	r24, Z+
    2eb4:	7f 01       	movw	r14, r30
    2eb6:	88 23       	and	r24, r24
    2eb8:	09 f4       	brne	.+2      	; 0x2ebc <vfprintf+0x3a>
    2eba:	ba c1       	rjmp	.+884    	; 0x3230 <vfprintf+0x3ae>
    2ebc:	85 32       	cpi	r24, 0x25	; 37
    2ebe:	39 f4       	brne	.+14     	; 0x2ece <vfprintf+0x4c>
    2ec0:	93 fd       	sbrc	r25, 3
    2ec2:	85 91       	lpm	r24, Z+
    2ec4:	93 ff       	sbrs	r25, 3
    2ec6:	81 91       	ld	r24, Z+
    2ec8:	7f 01       	movw	r14, r30
    2eca:	85 32       	cpi	r24, 0x25	; 37
    2ecc:	29 f4       	brne	.+10     	; 0x2ed8 <vfprintf+0x56>
    2ece:	b6 01       	movw	r22, r12
    2ed0:	90 e0       	ldi	r25, 0x00	; 0
    2ed2:	0e 94 38 19 	call	0x3270	; 0x3270 <fputc>
    2ed6:	e7 cf       	rjmp	.-50     	; 0x2ea6 <vfprintf+0x24>
    2ed8:	91 2c       	mov	r9, r1
    2eda:	21 2c       	mov	r2, r1
    2edc:	31 2c       	mov	r3, r1
    2ede:	ff e1       	ldi	r31, 0x1F	; 31
    2ee0:	f3 15       	cp	r31, r3
    2ee2:	d8 f0       	brcs	.+54     	; 0x2f1a <vfprintf+0x98>
    2ee4:	8b 32       	cpi	r24, 0x2B	; 43
    2ee6:	79 f0       	breq	.+30     	; 0x2f06 <vfprintf+0x84>
    2ee8:	38 f4       	brcc	.+14     	; 0x2ef8 <vfprintf+0x76>
    2eea:	80 32       	cpi	r24, 0x20	; 32
    2eec:	79 f0       	breq	.+30     	; 0x2f0c <vfprintf+0x8a>
    2eee:	83 32       	cpi	r24, 0x23	; 35
    2ef0:	a1 f4       	brne	.+40     	; 0x2f1a <vfprintf+0x98>
    2ef2:	23 2d       	mov	r18, r3
    2ef4:	20 61       	ori	r18, 0x10	; 16
    2ef6:	1d c0       	rjmp	.+58     	; 0x2f32 <vfprintf+0xb0>
    2ef8:	8d 32       	cpi	r24, 0x2D	; 45
    2efa:	61 f0       	breq	.+24     	; 0x2f14 <vfprintf+0x92>
    2efc:	80 33       	cpi	r24, 0x30	; 48
    2efe:	69 f4       	brne	.+26     	; 0x2f1a <vfprintf+0x98>
    2f00:	23 2d       	mov	r18, r3
    2f02:	21 60       	ori	r18, 0x01	; 1
    2f04:	16 c0       	rjmp	.+44     	; 0x2f32 <vfprintf+0xb0>
    2f06:	83 2d       	mov	r24, r3
    2f08:	82 60       	ori	r24, 0x02	; 2
    2f0a:	38 2e       	mov	r3, r24
    2f0c:	e3 2d       	mov	r30, r3
    2f0e:	e4 60       	ori	r30, 0x04	; 4
    2f10:	3e 2e       	mov	r3, r30
    2f12:	2a c0       	rjmp	.+84     	; 0x2f68 <vfprintf+0xe6>
    2f14:	f3 2d       	mov	r31, r3
    2f16:	f8 60       	ori	r31, 0x08	; 8
    2f18:	1d c0       	rjmp	.+58     	; 0x2f54 <vfprintf+0xd2>
    2f1a:	37 fc       	sbrc	r3, 7
    2f1c:	2d c0       	rjmp	.+90     	; 0x2f78 <vfprintf+0xf6>
    2f1e:	20 ed       	ldi	r18, 0xD0	; 208
    2f20:	28 0f       	add	r18, r24
    2f22:	2a 30       	cpi	r18, 0x0A	; 10
    2f24:	40 f0       	brcs	.+16     	; 0x2f36 <vfprintf+0xb4>
    2f26:	8e 32       	cpi	r24, 0x2E	; 46
    2f28:	b9 f4       	brne	.+46     	; 0x2f58 <vfprintf+0xd6>
    2f2a:	36 fc       	sbrc	r3, 6
    2f2c:	81 c1       	rjmp	.+770    	; 0x3230 <vfprintf+0x3ae>
    2f2e:	23 2d       	mov	r18, r3
    2f30:	20 64       	ori	r18, 0x40	; 64
    2f32:	32 2e       	mov	r3, r18
    2f34:	19 c0       	rjmp	.+50     	; 0x2f68 <vfprintf+0xe6>
    2f36:	36 fe       	sbrs	r3, 6
    2f38:	06 c0       	rjmp	.+12     	; 0x2f46 <vfprintf+0xc4>
    2f3a:	8a e0       	ldi	r24, 0x0A	; 10
    2f3c:	98 9e       	mul	r9, r24
    2f3e:	20 0d       	add	r18, r0
    2f40:	11 24       	eor	r1, r1
    2f42:	92 2e       	mov	r9, r18
    2f44:	11 c0       	rjmp	.+34     	; 0x2f68 <vfprintf+0xe6>
    2f46:	ea e0       	ldi	r30, 0x0A	; 10
    2f48:	2e 9e       	mul	r2, r30
    2f4a:	20 0d       	add	r18, r0
    2f4c:	11 24       	eor	r1, r1
    2f4e:	22 2e       	mov	r2, r18
    2f50:	f3 2d       	mov	r31, r3
    2f52:	f0 62       	ori	r31, 0x20	; 32
    2f54:	3f 2e       	mov	r3, r31
    2f56:	08 c0       	rjmp	.+16     	; 0x2f68 <vfprintf+0xe6>
    2f58:	8c 36       	cpi	r24, 0x6C	; 108
    2f5a:	21 f4       	brne	.+8      	; 0x2f64 <vfprintf+0xe2>
    2f5c:	83 2d       	mov	r24, r3
    2f5e:	80 68       	ori	r24, 0x80	; 128
    2f60:	38 2e       	mov	r3, r24
    2f62:	02 c0       	rjmp	.+4      	; 0x2f68 <vfprintf+0xe6>
    2f64:	88 36       	cpi	r24, 0x68	; 104
    2f66:	41 f4       	brne	.+16     	; 0x2f78 <vfprintf+0xf6>
    2f68:	f7 01       	movw	r30, r14
    2f6a:	93 fd       	sbrc	r25, 3
    2f6c:	85 91       	lpm	r24, Z+
    2f6e:	93 ff       	sbrs	r25, 3
    2f70:	81 91       	ld	r24, Z+
    2f72:	7f 01       	movw	r14, r30
    2f74:	81 11       	cpse	r24, r1
    2f76:	b3 cf       	rjmp	.-154    	; 0x2ede <vfprintf+0x5c>
    2f78:	98 2f       	mov	r25, r24
    2f7a:	9f 7d       	andi	r25, 0xDF	; 223
    2f7c:	95 54       	subi	r25, 0x45	; 69
    2f7e:	93 30       	cpi	r25, 0x03	; 3
    2f80:	28 f4       	brcc	.+10     	; 0x2f8c <vfprintf+0x10a>
    2f82:	0c 5f       	subi	r16, 0xFC	; 252
    2f84:	1f 4f       	sbci	r17, 0xFF	; 255
    2f86:	9f e3       	ldi	r25, 0x3F	; 63
    2f88:	99 83       	std	Y+1, r25	; 0x01
    2f8a:	0d c0       	rjmp	.+26     	; 0x2fa6 <vfprintf+0x124>
    2f8c:	83 36       	cpi	r24, 0x63	; 99
    2f8e:	31 f0       	breq	.+12     	; 0x2f9c <vfprintf+0x11a>
    2f90:	83 37       	cpi	r24, 0x73	; 115
    2f92:	71 f0       	breq	.+28     	; 0x2fb0 <vfprintf+0x12e>
    2f94:	83 35       	cpi	r24, 0x53	; 83
    2f96:	09 f0       	breq	.+2      	; 0x2f9a <vfprintf+0x118>
    2f98:	59 c0       	rjmp	.+178    	; 0x304c <vfprintf+0x1ca>
    2f9a:	21 c0       	rjmp	.+66     	; 0x2fde <vfprintf+0x15c>
    2f9c:	f8 01       	movw	r30, r16
    2f9e:	80 81       	ld	r24, Z
    2fa0:	89 83       	std	Y+1, r24	; 0x01
    2fa2:	0e 5f       	subi	r16, 0xFE	; 254
    2fa4:	1f 4f       	sbci	r17, 0xFF	; 255
    2fa6:	88 24       	eor	r8, r8
    2fa8:	83 94       	inc	r8
    2faa:	91 2c       	mov	r9, r1
    2fac:	53 01       	movw	r10, r6
    2fae:	13 c0       	rjmp	.+38     	; 0x2fd6 <vfprintf+0x154>
    2fb0:	28 01       	movw	r4, r16
    2fb2:	f2 e0       	ldi	r31, 0x02	; 2
    2fb4:	4f 0e       	add	r4, r31
    2fb6:	51 1c       	adc	r5, r1
    2fb8:	f8 01       	movw	r30, r16
    2fba:	a0 80       	ld	r10, Z
    2fbc:	b1 80       	ldd	r11, Z+1	; 0x01
    2fbe:	36 fe       	sbrs	r3, 6
    2fc0:	03 c0       	rjmp	.+6      	; 0x2fc8 <vfprintf+0x146>
    2fc2:	69 2d       	mov	r22, r9
    2fc4:	70 e0       	ldi	r23, 0x00	; 0
    2fc6:	02 c0       	rjmp	.+4      	; 0x2fcc <vfprintf+0x14a>
    2fc8:	6f ef       	ldi	r22, 0xFF	; 255
    2fca:	7f ef       	ldi	r23, 0xFF	; 255
    2fcc:	c5 01       	movw	r24, r10
    2fce:	0e 94 2d 19 	call	0x325a	; 0x325a <strnlen>
    2fd2:	4c 01       	movw	r8, r24
    2fd4:	82 01       	movw	r16, r4
    2fd6:	f3 2d       	mov	r31, r3
    2fd8:	ff 77       	andi	r31, 0x7F	; 127
    2fda:	3f 2e       	mov	r3, r31
    2fdc:	16 c0       	rjmp	.+44     	; 0x300a <vfprintf+0x188>
    2fde:	28 01       	movw	r4, r16
    2fe0:	22 e0       	ldi	r18, 0x02	; 2
    2fe2:	42 0e       	add	r4, r18
    2fe4:	51 1c       	adc	r5, r1
    2fe6:	f8 01       	movw	r30, r16
    2fe8:	a0 80       	ld	r10, Z
    2fea:	b1 80       	ldd	r11, Z+1	; 0x01
    2fec:	36 fe       	sbrs	r3, 6
    2fee:	03 c0       	rjmp	.+6      	; 0x2ff6 <vfprintf+0x174>
    2ff0:	69 2d       	mov	r22, r9
    2ff2:	70 e0       	ldi	r23, 0x00	; 0
    2ff4:	02 c0       	rjmp	.+4      	; 0x2ffa <vfprintf+0x178>
    2ff6:	6f ef       	ldi	r22, 0xFF	; 255
    2ff8:	7f ef       	ldi	r23, 0xFF	; 255
    2ffa:	c5 01       	movw	r24, r10
    2ffc:	0e 94 22 19 	call	0x3244	; 0x3244 <strnlen_P>
    3000:	4c 01       	movw	r8, r24
    3002:	f3 2d       	mov	r31, r3
    3004:	f0 68       	ori	r31, 0x80	; 128
    3006:	3f 2e       	mov	r3, r31
    3008:	82 01       	movw	r16, r4
    300a:	33 fc       	sbrc	r3, 3
    300c:	1b c0       	rjmp	.+54     	; 0x3044 <vfprintf+0x1c2>
    300e:	82 2d       	mov	r24, r2
    3010:	90 e0       	ldi	r25, 0x00	; 0
    3012:	88 16       	cp	r8, r24
    3014:	99 06       	cpc	r9, r25
    3016:	b0 f4       	brcc	.+44     	; 0x3044 <vfprintf+0x1c2>
    3018:	b6 01       	movw	r22, r12
    301a:	80 e2       	ldi	r24, 0x20	; 32
    301c:	90 e0       	ldi	r25, 0x00	; 0
    301e:	0e 94 38 19 	call	0x3270	; 0x3270 <fputc>
    3022:	2a 94       	dec	r2
    3024:	f4 cf       	rjmp	.-24     	; 0x300e <vfprintf+0x18c>
    3026:	f5 01       	movw	r30, r10
    3028:	37 fc       	sbrc	r3, 7
    302a:	85 91       	lpm	r24, Z+
    302c:	37 fe       	sbrs	r3, 7
    302e:	81 91       	ld	r24, Z+
    3030:	5f 01       	movw	r10, r30
    3032:	b6 01       	movw	r22, r12
    3034:	90 e0       	ldi	r25, 0x00	; 0
    3036:	0e 94 38 19 	call	0x3270	; 0x3270 <fputc>
    303a:	21 10       	cpse	r2, r1
    303c:	2a 94       	dec	r2
    303e:	21 e0       	ldi	r18, 0x01	; 1
    3040:	82 1a       	sub	r8, r18
    3042:	91 08       	sbc	r9, r1
    3044:	81 14       	cp	r8, r1
    3046:	91 04       	cpc	r9, r1
    3048:	71 f7       	brne	.-36     	; 0x3026 <vfprintf+0x1a4>
    304a:	e8 c0       	rjmp	.+464    	; 0x321c <vfprintf+0x39a>
    304c:	84 36       	cpi	r24, 0x64	; 100
    304e:	11 f0       	breq	.+4      	; 0x3054 <vfprintf+0x1d2>
    3050:	89 36       	cpi	r24, 0x69	; 105
    3052:	41 f5       	brne	.+80     	; 0x30a4 <vfprintf+0x222>
    3054:	f8 01       	movw	r30, r16
    3056:	37 fe       	sbrs	r3, 7
    3058:	07 c0       	rjmp	.+14     	; 0x3068 <vfprintf+0x1e6>
    305a:	60 81       	ld	r22, Z
    305c:	71 81       	ldd	r23, Z+1	; 0x01
    305e:	82 81       	ldd	r24, Z+2	; 0x02
    3060:	93 81       	ldd	r25, Z+3	; 0x03
    3062:	0c 5f       	subi	r16, 0xFC	; 252
    3064:	1f 4f       	sbci	r17, 0xFF	; 255
    3066:	08 c0       	rjmp	.+16     	; 0x3078 <vfprintf+0x1f6>
    3068:	60 81       	ld	r22, Z
    306a:	71 81       	ldd	r23, Z+1	; 0x01
    306c:	07 2e       	mov	r0, r23
    306e:	00 0c       	add	r0, r0
    3070:	88 0b       	sbc	r24, r24
    3072:	99 0b       	sbc	r25, r25
    3074:	0e 5f       	subi	r16, 0xFE	; 254
    3076:	1f 4f       	sbci	r17, 0xFF	; 255
    3078:	f3 2d       	mov	r31, r3
    307a:	ff 76       	andi	r31, 0x6F	; 111
    307c:	3f 2e       	mov	r3, r31
    307e:	97 ff       	sbrs	r25, 7
    3080:	09 c0       	rjmp	.+18     	; 0x3094 <vfprintf+0x212>
    3082:	90 95       	com	r25
    3084:	80 95       	com	r24
    3086:	70 95       	com	r23
    3088:	61 95       	neg	r22
    308a:	7f 4f       	sbci	r23, 0xFF	; 255
    308c:	8f 4f       	sbci	r24, 0xFF	; 255
    308e:	9f 4f       	sbci	r25, 0xFF	; 255
    3090:	f0 68       	ori	r31, 0x80	; 128
    3092:	3f 2e       	mov	r3, r31
    3094:	2a e0       	ldi	r18, 0x0A	; 10
    3096:	30 e0       	ldi	r19, 0x00	; 0
    3098:	a3 01       	movw	r20, r6
    309a:	0e 94 74 19 	call	0x32e8	; 0x32e8 <__ultoa_invert>
    309e:	88 2e       	mov	r8, r24
    30a0:	86 18       	sub	r8, r6
    30a2:	45 c0       	rjmp	.+138    	; 0x312e <vfprintf+0x2ac>
    30a4:	85 37       	cpi	r24, 0x75	; 117
    30a6:	31 f4       	brne	.+12     	; 0x30b4 <vfprintf+0x232>
    30a8:	23 2d       	mov	r18, r3
    30aa:	2f 7e       	andi	r18, 0xEF	; 239
    30ac:	b2 2e       	mov	r11, r18
    30ae:	2a e0       	ldi	r18, 0x0A	; 10
    30b0:	30 e0       	ldi	r19, 0x00	; 0
    30b2:	25 c0       	rjmp	.+74     	; 0x30fe <vfprintf+0x27c>
    30b4:	93 2d       	mov	r25, r3
    30b6:	99 7f       	andi	r25, 0xF9	; 249
    30b8:	b9 2e       	mov	r11, r25
    30ba:	8f 36       	cpi	r24, 0x6F	; 111
    30bc:	c1 f0       	breq	.+48     	; 0x30ee <vfprintf+0x26c>
    30be:	18 f4       	brcc	.+6      	; 0x30c6 <vfprintf+0x244>
    30c0:	88 35       	cpi	r24, 0x58	; 88
    30c2:	79 f0       	breq	.+30     	; 0x30e2 <vfprintf+0x260>
    30c4:	b5 c0       	rjmp	.+362    	; 0x3230 <vfprintf+0x3ae>
    30c6:	80 37       	cpi	r24, 0x70	; 112
    30c8:	19 f0       	breq	.+6      	; 0x30d0 <vfprintf+0x24e>
    30ca:	88 37       	cpi	r24, 0x78	; 120
    30cc:	21 f0       	breq	.+8      	; 0x30d6 <vfprintf+0x254>
    30ce:	b0 c0       	rjmp	.+352    	; 0x3230 <vfprintf+0x3ae>
    30d0:	e9 2f       	mov	r30, r25
    30d2:	e0 61       	ori	r30, 0x10	; 16
    30d4:	be 2e       	mov	r11, r30
    30d6:	b4 fe       	sbrs	r11, 4
    30d8:	0d c0       	rjmp	.+26     	; 0x30f4 <vfprintf+0x272>
    30da:	fb 2d       	mov	r31, r11
    30dc:	f4 60       	ori	r31, 0x04	; 4
    30de:	bf 2e       	mov	r11, r31
    30e0:	09 c0       	rjmp	.+18     	; 0x30f4 <vfprintf+0x272>
    30e2:	34 fe       	sbrs	r3, 4
    30e4:	0a c0       	rjmp	.+20     	; 0x30fa <vfprintf+0x278>
    30e6:	29 2f       	mov	r18, r25
    30e8:	26 60       	ori	r18, 0x06	; 6
    30ea:	b2 2e       	mov	r11, r18
    30ec:	06 c0       	rjmp	.+12     	; 0x30fa <vfprintf+0x278>
    30ee:	28 e0       	ldi	r18, 0x08	; 8
    30f0:	30 e0       	ldi	r19, 0x00	; 0
    30f2:	05 c0       	rjmp	.+10     	; 0x30fe <vfprintf+0x27c>
    30f4:	20 e1       	ldi	r18, 0x10	; 16
    30f6:	30 e0       	ldi	r19, 0x00	; 0
    30f8:	02 c0       	rjmp	.+4      	; 0x30fe <vfprintf+0x27c>
    30fa:	20 e1       	ldi	r18, 0x10	; 16
    30fc:	32 e0       	ldi	r19, 0x02	; 2
    30fe:	f8 01       	movw	r30, r16
    3100:	b7 fe       	sbrs	r11, 7
    3102:	07 c0       	rjmp	.+14     	; 0x3112 <vfprintf+0x290>
    3104:	60 81       	ld	r22, Z
    3106:	71 81       	ldd	r23, Z+1	; 0x01
    3108:	82 81       	ldd	r24, Z+2	; 0x02
    310a:	93 81       	ldd	r25, Z+3	; 0x03
    310c:	0c 5f       	subi	r16, 0xFC	; 252
    310e:	1f 4f       	sbci	r17, 0xFF	; 255
    3110:	06 c0       	rjmp	.+12     	; 0x311e <vfprintf+0x29c>
    3112:	60 81       	ld	r22, Z
    3114:	71 81       	ldd	r23, Z+1	; 0x01
    3116:	80 e0       	ldi	r24, 0x00	; 0
    3118:	90 e0       	ldi	r25, 0x00	; 0
    311a:	0e 5f       	subi	r16, 0xFE	; 254
    311c:	1f 4f       	sbci	r17, 0xFF	; 255
    311e:	a3 01       	movw	r20, r6
    3120:	0e 94 74 19 	call	0x32e8	; 0x32e8 <__ultoa_invert>
    3124:	88 2e       	mov	r8, r24
    3126:	86 18       	sub	r8, r6
    3128:	fb 2d       	mov	r31, r11
    312a:	ff 77       	andi	r31, 0x7F	; 127
    312c:	3f 2e       	mov	r3, r31
    312e:	36 fe       	sbrs	r3, 6
    3130:	0d c0       	rjmp	.+26     	; 0x314c <vfprintf+0x2ca>
    3132:	23 2d       	mov	r18, r3
    3134:	2e 7f       	andi	r18, 0xFE	; 254
    3136:	a2 2e       	mov	r10, r18
    3138:	89 14       	cp	r8, r9
    313a:	58 f4       	brcc	.+22     	; 0x3152 <vfprintf+0x2d0>
    313c:	34 fe       	sbrs	r3, 4
    313e:	0b c0       	rjmp	.+22     	; 0x3156 <vfprintf+0x2d4>
    3140:	32 fc       	sbrc	r3, 2
    3142:	09 c0       	rjmp	.+18     	; 0x3156 <vfprintf+0x2d4>
    3144:	83 2d       	mov	r24, r3
    3146:	8e 7e       	andi	r24, 0xEE	; 238
    3148:	a8 2e       	mov	r10, r24
    314a:	05 c0       	rjmp	.+10     	; 0x3156 <vfprintf+0x2d4>
    314c:	b8 2c       	mov	r11, r8
    314e:	a3 2c       	mov	r10, r3
    3150:	03 c0       	rjmp	.+6      	; 0x3158 <vfprintf+0x2d6>
    3152:	b8 2c       	mov	r11, r8
    3154:	01 c0       	rjmp	.+2      	; 0x3158 <vfprintf+0x2d6>
    3156:	b9 2c       	mov	r11, r9
    3158:	a4 fe       	sbrs	r10, 4
    315a:	0f c0       	rjmp	.+30     	; 0x317a <vfprintf+0x2f8>
    315c:	fe 01       	movw	r30, r28
    315e:	e8 0d       	add	r30, r8
    3160:	f1 1d       	adc	r31, r1
    3162:	80 81       	ld	r24, Z
    3164:	80 33       	cpi	r24, 0x30	; 48
    3166:	21 f4       	brne	.+8      	; 0x3170 <vfprintf+0x2ee>
    3168:	9a 2d       	mov	r25, r10
    316a:	99 7e       	andi	r25, 0xE9	; 233
    316c:	a9 2e       	mov	r10, r25
    316e:	09 c0       	rjmp	.+18     	; 0x3182 <vfprintf+0x300>
    3170:	a2 fe       	sbrs	r10, 2
    3172:	06 c0       	rjmp	.+12     	; 0x3180 <vfprintf+0x2fe>
    3174:	b3 94       	inc	r11
    3176:	b3 94       	inc	r11
    3178:	04 c0       	rjmp	.+8      	; 0x3182 <vfprintf+0x300>
    317a:	8a 2d       	mov	r24, r10
    317c:	86 78       	andi	r24, 0x86	; 134
    317e:	09 f0       	breq	.+2      	; 0x3182 <vfprintf+0x300>
    3180:	b3 94       	inc	r11
    3182:	a3 fc       	sbrc	r10, 3
    3184:	11 c0       	rjmp	.+34     	; 0x31a8 <vfprintf+0x326>
    3186:	a0 fe       	sbrs	r10, 0
    3188:	06 c0       	rjmp	.+12     	; 0x3196 <vfprintf+0x314>
    318a:	b2 14       	cp	r11, r2
    318c:	88 f4       	brcc	.+34     	; 0x31b0 <vfprintf+0x32e>
    318e:	28 0c       	add	r2, r8
    3190:	92 2c       	mov	r9, r2
    3192:	9b 18       	sub	r9, r11
    3194:	0e c0       	rjmp	.+28     	; 0x31b2 <vfprintf+0x330>
    3196:	b2 14       	cp	r11, r2
    3198:	60 f4       	brcc	.+24     	; 0x31b2 <vfprintf+0x330>
    319a:	b6 01       	movw	r22, r12
    319c:	80 e2       	ldi	r24, 0x20	; 32
    319e:	90 e0       	ldi	r25, 0x00	; 0
    31a0:	0e 94 38 19 	call	0x3270	; 0x3270 <fputc>
    31a4:	b3 94       	inc	r11
    31a6:	f7 cf       	rjmp	.-18     	; 0x3196 <vfprintf+0x314>
    31a8:	b2 14       	cp	r11, r2
    31aa:	18 f4       	brcc	.+6      	; 0x31b2 <vfprintf+0x330>
    31ac:	2b 18       	sub	r2, r11
    31ae:	02 c0       	rjmp	.+4      	; 0x31b4 <vfprintf+0x332>
    31b0:	98 2c       	mov	r9, r8
    31b2:	21 2c       	mov	r2, r1
    31b4:	a4 fe       	sbrs	r10, 4
    31b6:	10 c0       	rjmp	.+32     	; 0x31d8 <vfprintf+0x356>
    31b8:	b6 01       	movw	r22, r12
    31ba:	80 e3       	ldi	r24, 0x30	; 48
    31bc:	90 e0       	ldi	r25, 0x00	; 0
    31be:	0e 94 38 19 	call	0x3270	; 0x3270 <fputc>
    31c2:	a2 fe       	sbrs	r10, 2
    31c4:	17 c0       	rjmp	.+46     	; 0x31f4 <vfprintf+0x372>
    31c6:	a1 fc       	sbrc	r10, 1
    31c8:	03 c0       	rjmp	.+6      	; 0x31d0 <vfprintf+0x34e>
    31ca:	88 e7       	ldi	r24, 0x78	; 120
    31cc:	90 e0       	ldi	r25, 0x00	; 0
    31ce:	02 c0       	rjmp	.+4      	; 0x31d4 <vfprintf+0x352>
    31d0:	88 e5       	ldi	r24, 0x58	; 88
    31d2:	90 e0       	ldi	r25, 0x00	; 0
    31d4:	b6 01       	movw	r22, r12
    31d6:	0c c0       	rjmp	.+24     	; 0x31f0 <vfprintf+0x36e>
    31d8:	8a 2d       	mov	r24, r10
    31da:	86 78       	andi	r24, 0x86	; 134
    31dc:	59 f0       	breq	.+22     	; 0x31f4 <vfprintf+0x372>
    31de:	a1 fe       	sbrs	r10, 1
    31e0:	02 c0       	rjmp	.+4      	; 0x31e6 <vfprintf+0x364>
    31e2:	8b e2       	ldi	r24, 0x2B	; 43
    31e4:	01 c0       	rjmp	.+2      	; 0x31e8 <vfprintf+0x366>
    31e6:	80 e2       	ldi	r24, 0x20	; 32
    31e8:	a7 fc       	sbrc	r10, 7
    31ea:	8d e2       	ldi	r24, 0x2D	; 45
    31ec:	b6 01       	movw	r22, r12
    31ee:	90 e0       	ldi	r25, 0x00	; 0
    31f0:	0e 94 38 19 	call	0x3270	; 0x3270 <fputc>
    31f4:	89 14       	cp	r8, r9
    31f6:	38 f4       	brcc	.+14     	; 0x3206 <vfprintf+0x384>
    31f8:	b6 01       	movw	r22, r12
    31fa:	80 e3       	ldi	r24, 0x30	; 48
    31fc:	90 e0       	ldi	r25, 0x00	; 0
    31fe:	0e 94 38 19 	call	0x3270	; 0x3270 <fputc>
    3202:	9a 94       	dec	r9
    3204:	f7 cf       	rjmp	.-18     	; 0x31f4 <vfprintf+0x372>
    3206:	8a 94       	dec	r8
    3208:	f3 01       	movw	r30, r6
    320a:	e8 0d       	add	r30, r8
    320c:	f1 1d       	adc	r31, r1
    320e:	80 81       	ld	r24, Z
    3210:	b6 01       	movw	r22, r12
    3212:	90 e0       	ldi	r25, 0x00	; 0
    3214:	0e 94 38 19 	call	0x3270	; 0x3270 <fputc>
    3218:	81 10       	cpse	r8, r1
    321a:	f5 cf       	rjmp	.-22     	; 0x3206 <vfprintf+0x384>
    321c:	22 20       	and	r2, r2
    321e:	09 f4       	brne	.+2      	; 0x3222 <vfprintf+0x3a0>
    3220:	42 ce       	rjmp	.-892    	; 0x2ea6 <vfprintf+0x24>
    3222:	b6 01       	movw	r22, r12
    3224:	80 e2       	ldi	r24, 0x20	; 32
    3226:	90 e0       	ldi	r25, 0x00	; 0
    3228:	0e 94 38 19 	call	0x3270	; 0x3270 <fputc>
    322c:	2a 94       	dec	r2
    322e:	f6 cf       	rjmp	.-20     	; 0x321c <vfprintf+0x39a>
    3230:	f6 01       	movw	r30, r12
    3232:	86 81       	ldd	r24, Z+6	; 0x06
    3234:	97 81       	ldd	r25, Z+7	; 0x07
    3236:	02 c0       	rjmp	.+4      	; 0x323c <vfprintf+0x3ba>
    3238:	8f ef       	ldi	r24, 0xFF	; 255
    323a:	9f ef       	ldi	r25, 0xFF	; 255
    323c:	2b 96       	adiw	r28, 0x0b	; 11
    323e:	e2 e1       	ldi	r30, 0x12	; 18
    3240:	0c 94 16 1a 	jmp	0x342c	; 0x342c <__epilogue_restores__>

00003244 <strnlen_P>:
    3244:	fc 01       	movw	r30, r24
    3246:	05 90       	lpm	r0, Z+
    3248:	61 50       	subi	r22, 0x01	; 1
    324a:	70 40       	sbci	r23, 0x00	; 0
    324c:	01 10       	cpse	r0, r1
    324e:	d8 f7       	brcc	.-10     	; 0x3246 <strnlen_P+0x2>
    3250:	80 95       	com	r24
    3252:	90 95       	com	r25
    3254:	8e 0f       	add	r24, r30
    3256:	9f 1f       	adc	r25, r31
    3258:	08 95       	ret

0000325a <strnlen>:
    325a:	fc 01       	movw	r30, r24
    325c:	61 50       	subi	r22, 0x01	; 1
    325e:	70 40       	sbci	r23, 0x00	; 0
    3260:	01 90       	ld	r0, Z+
    3262:	01 10       	cpse	r0, r1
    3264:	d8 f7       	brcc	.-10     	; 0x325c <strnlen+0x2>
    3266:	80 95       	com	r24
    3268:	90 95       	com	r25
    326a:	8e 0f       	add	r24, r30
    326c:	9f 1f       	adc	r25, r31
    326e:	08 95       	ret

00003270 <fputc>:
    3270:	0f 93       	push	r16
    3272:	1f 93       	push	r17
    3274:	cf 93       	push	r28
    3276:	df 93       	push	r29
    3278:	fb 01       	movw	r30, r22
    327a:	23 81       	ldd	r18, Z+3	; 0x03
    327c:	21 fd       	sbrc	r18, 1
    327e:	03 c0       	rjmp	.+6      	; 0x3286 <fputc+0x16>
    3280:	8f ef       	ldi	r24, 0xFF	; 255
    3282:	9f ef       	ldi	r25, 0xFF	; 255
    3284:	2c c0       	rjmp	.+88     	; 0x32de <fputc+0x6e>
    3286:	22 ff       	sbrs	r18, 2
    3288:	16 c0       	rjmp	.+44     	; 0x32b6 <fputc+0x46>
    328a:	46 81       	ldd	r20, Z+6	; 0x06
    328c:	57 81       	ldd	r21, Z+7	; 0x07
    328e:	24 81       	ldd	r18, Z+4	; 0x04
    3290:	35 81       	ldd	r19, Z+5	; 0x05
    3292:	42 17       	cp	r20, r18
    3294:	53 07       	cpc	r21, r19
    3296:	44 f4       	brge	.+16     	; 0x32a8 <fputc+0x38>
    3298:	a0 81       	ld	r26, Z
    329a:	b1 81       	ldd	r27, Z+1	; 0x01
    329c:	9d 01       	movw	r18, r26
    329e:	2f 5f       	subi	r18, 0xFF	; 255
    32a0:	3f 4f       	sbci	r19, 0xFF	; 255
    32a2:	31 83       	std	Z+1, r19	; 0x01
    32a4:	20 83       	st	Z, r18
    32a6:	8c 93       	st	X, r24
    32a8:	26 81       	ldd	r18, Z+6	; 0x06
    32aa:	37 81       	ldd	r19, Z+7	; 0x07
    32ac:	2f 5f       	subi	r18, 0xFF	; 255
    32ae:	3f 4f       	sbci	r19, 0xFF	; 255
    32b0:	37 83       	std	Z+7, r19	; 0x07
    32b2:	26 83       	std	Z+6, r18	; 0x06
    32b4:	14 c0       	rjmp	.+40     	; 0x32de <fputc+0x6e>
    32b6:	8b 01       	movw	r16, r22
    32b8:	ec 01       	movw	r28, r24
    32ba:	fb 01       	movw	r30, r22
    32bc:	00 84       	ldd	r0, Z+8	; 0x08
    32be:	f1 85       	ldd	r31, Z+9	; 0x09
    32c0:	e0 2d       	mov	r30, r0
    32c2:	09 95       	icall
    32c4:	89 2b       	or	r24, r25
    32c6:	e1 f6       	brne	.-72     	; 0x3280 <fputc+0x10>
    32c8:	d8 01       	movw	r26, r16
    32ca:	16 96       	adiw	r26, 0x06	; 6
    32cc:	8d 91       	ld	r24, X+
    32ce:	9c 91       	ld	r25, X
    32d0:	17 97       	sbiw	r26, 0x07	; 7
    32d2:	01 96       	adiw	r24, 0x01	; 1
    32d4:	17 96       	adiw	r26, 0x07	; 7
    32d6:	9c 93       	st	X, r25
    32d8:	8e 93       	st	-X, r24
    32da:	16 97       	sbiw	r26, 0x06	; 6
    32dc:	ce 01       	movw	r24, r28
    32de:	df 91       	pop	r29
    32e0:	cf 91       	pop	r28
    32e2:	1f 91       	pop	r17
    32e4:	0f 91       	pop	r16
    32e6:	08 95       	ret

000032e8 <__ultoa_invert>:
    32e8:	fa 01       	movw	r30, r20
    32ea:	aa 27       	eor	r26, r26
    32ec:	28 30       	cpi	r18, 0x08	; 8
    32ee:	51 f1       	breq	.+84     	; 0x3344 <__ultoa_invert+0x5c>
    32f0:	20 31       	cpi	r18, 0x10	; 16
    32f2:	81 f1       	breq	.+96     	; 0x3354 <__ultoa_invert+0x6c>
    32f4:	e8 94       	clt
    32f6:	6f 93       	push	r22
    32f8:	6e 7f       	andi	r22, 0xFE	; 254
    32fa:	6e 5f       	subi	r22, 0xFE	; 254
    32fc:	7f 4f       	sbci	r23, 0xFF	; 255
    32fe:	8f 4f       	sbci	r24, 0xFF	; 255
    3300:	9f 4f       	sbci	r25, 0xFF	; 255
    3302:	af 4f       	sbci	r26, 0xFF	; 255
    3304:	b1 e0       	ldi	r27, 0x01	; 1
    3306:	3e d0       	rcall	.+124    	; 0x3384 <__ultoa_invert+0x9c>
    3308:	b4 e0       	ldi	r27, 0x04	; 4
    330a:	3c d0       	rcall	.+120    	; 0x3384 <__ultoa_invert+0x9c>
    330c:	67 0f       	add	r22, r23
    330e:	78 1f       	adc	r23, r24
    3310:	89 1f       	adc	r24, r25
    3312:	9a 1f       	adc	r25, r26
    3314:	a1 1d       	adc	r26, r1
    3316:	68 0f       	add	r22, r24
    3318:	79 1f       	adc	r23, r25
    331a:	8a 1f       	adc	r24, r26
    331c:	91 1d       	adc	r25, r1
    331e:	a1 1d       	adc	r26, r1
    3320:	6a 0f       	add	r22, r26
    3322:	71 1d       	adc	r23, r1
    3324:	81 1d       	adc	r24, r1
    3326:	91 1d       	adc	r25, r1
    3328:	a1 1d       	adc	r26, r1
    332a:	20 d0       	rcall	.+64     	; 0x336c <__ultoa_invert+0x84>
    332c:	09 f4       	brne	.+2      	; 0x3330 <__ultoa_invert+0x48>
    332e:	68 94       	set
    3330:	3f 91       	pop	r19
    3332:	2a e0       	ldi	r18, 0x0A	; 10
    3334:	26 9f       	mul	r18, r22
    3336:	11 24       	eor	r1, r1
    3338:	30 19       	sub	r19, r0
    333a:	30 5d       	subi	r19, 0xD0	; 208
    333c:	31 93       	st	Z+, r19
    333e:	de f6       	brtc	.-74     	; 0x32f6 <__ultoa_invert+0xe>
    3340:	cf 01       	movw	r24, r30
    3342:	08 95       	ret
    3344:	46 2f       	mov	r20, r22
    3346:	47 70       	andi	r20, 0x07	; 7
    3348:	40 5d       	subi	r20, 0xD0	; 208
    334a:	41 93       	st	Z+, r20
    334c:	b3 e0       	ldi	r27, 0x03	; 3
    334e:	0f d0       	rcall	.+30     	; 0x336e <__ultoa_invert+0x86>
    3350:	c9 f7       	brne	.-14     	; 0x3344 <__ultoa_invert+0x5c>
    3352:	f6 cf       	rjmp	.-20     	; 0x3340 <__ultoa_invert+0x58>
    3354:	46 2f       	mov	r20, r22
    3356:	4f 70       	andi	r20, 0x0F	; 15
    3358:	40 5d       	subi	r20, 0xD0	; 208
    335a:	4a 33       	cpi	r20, 0x3A	; 58
    335c:	18 f0       	brcs	.+6      	; 0x3364 <__ultoa_invert+0x7c>
    335e:	49 5d       	subi	r20, 0xD9	; 217
    3360:	31 fd       	sbrc	r19, 1
    3362:	40 52       	subi	r20, 0x20	; 32
    3364:	41 93       	st	Z+, r20
    3366:	02 d0       	rcall	.+4      	; 0x336c <__ultoa_invert+0x84>
    3368:	a9 f7       	brne	.-22     	; 0x3354 <__ultoa_invert+0x6c>
    336a:	ea cf       	rjmp	.-44     	; 0x3340 <__ultoa_invert+0x58>
    336c:	b4 e0       	ldi	r27, 0x04	; 4
    336e:	a6 95       	lsr	r26
    3370:	97 95       	ror	r25
    3372:	87 95       	ror	r24
    3374:	77 95       	ror	r23
    3376:	67 95       	ror	r22
    3378:	ba 95       	dec	r27
    337a:	c9 f7       	brne	.-14     	; 0x336e <__ultoa_invert+0x86>
    337c:	00 97       	sbiw	r24, 0x00	; 0
    337e:	61 05       	cpc	r22, r1
    3380:	71 05       	cpc	r23, r1
    3382:	08 95       	ret
    3384:	9b 01       	movw	r18, r22
    3386:	ac 01       	movw	r20, r24
    3388:	0a 2e       	mov	r0, r26
    338a:	06 94       	lsr	r0
    338c:	57 95       	ror	r21
    338e:	47 95       	ror	r20
    3390:	37 95       	ror	r19
    3392:	27 95       	ror	r18
    3394:	ba 95       	dec	r27
    3396:	c9 f7       	brne	.-14     	; 0x338a <__ultoa_invert+0xa2>
    3398:	62 0f       	add	r22, r18
    339a:	73 1f       	adc	r23, r19
    339c:	84 1f       	adc	r24, r20
    339e:	95 1f       	adc	r25, r21
    33a0:	a0 1d       	adc	r26, r0
    33a2:	08 95       	ret

000033a4 <eeprom_read_block>:
    33a4:	dc 01       	movw	r26, r24
    33a6:	cb 01       	movw	r24, r22

000033a8 <eeprom_read_blraw>:
    33a8:	fc 01       	movw	r30, r24
    33aa:	f9 99       	sbic	0x1f, 1	; 31
    33ac:	fe cf       	rjmp	.-4      	; 0x33aa <eeprom_read_blraw+0x2>
    33ae:	06 c0       	rjmp	.+12     	; 0x33bc <eeprom_read_blraw+0x14>
    33b0:	f2 bd       	out	0x22, r31	; 34
    33b2:	e1 bd       	out	0x21, r30	; 33
    33b4:	f8 9a       	sbi	0x1f, 0	; 31
    33b6:	31 96       	adiw	r30, 0x01	; 1
    33b8:	00 b4       	in	r0, 0x20	; 32
    33ba:	0d 92       	st	X+, r0
    33bc:	41 50       	subi	r20, 0x01	; 1
    33be:	50 40       	sbci	r21, 0x00	; 0
    33c0:	b8 f7       	brcc	.-18     	; 0x33b0 <eeprom_read_blraw+0x8>
    33c2:	08 95       	ret

000033c4 <eeprom_write_block>:
    33c4:	dc 01       	movw	r26, r24
    33c6:	cb 01       	movw	r24, r22
    33c8:	03 c0       	rjmp	.+6      	; 0x33d0 <eeprom_write_block+0xc>
    33ca:	2d 91       	ld	r18, X+
    33cc:	0e 94 ed 19 	call	0x33da	; 0x33da <eeprom_write_r18>
    33d0:	41 50       	subi	r20, 0x01	; 1
    33d2:	50 40       	sbci	r21, 0x00	; 0
    33d4:	d0 f7       	brcc	.-12     	; 0x33ca <eeprom_write_block+0x6>
    33d6:	08 95       	ret

000033d8 <eeprom_write_byte>:
    33d8:	26 2f       	mov	r18, r22

000033da <eeprom_write_r18>:
    33da:	f9 99       	sbic	0x1f, 1	; 31
    33dc:	fe cf       	rjmp	.-4      	; 0x33da <eeprom_write_r18>
    33de:	1f ba       	out	0x1f, r1	; 31
    33e0:	92 bd       	out	0x22, r25	; 34
    33e2:	81 bd       	out	0x21, r24	; 33
    33e4:	20 bd       	out	0x20, r18	; 32
    33e6:	0f b6       	in	r0, 0x3f	; 63
    33e8:	f8 94       	cli
    33ea:	fa 9a       	sbi	0x1f, 2	; 31
    33ec:	f9 9a       	sbi	0x1f, 1	; 31
    33ee:	0f be       	out	0x3f, r0	; 63
    33f0:	01 96       	adiw	r24, 0x01	; 1
    33f2:	08 95       	ret

000033f4 <__prologue_saves__>:
    33f4:	2f 92       	push	r2
    33f6:	3f 92       	push	r3
    33f8:	4f 92       	push	r4
    33fa:	5f 92       	push	r5
    33fc:	6f 92       	push	r6
    33fe:	7f 92       	push	r7
    3400:	8f 92       	push	r8
    3402:	9f 92       	push	r9
    3404:	af 92       	push	r10
    3406:	bf 92       	push	r11
    3408:	cf 92       	push	r12
    340a:	df 92       	push	r13
    340c:	ef 92       	push	r14
    340e:	ff 92       	push	r15
    3410:	0f 93       	push	r16
    3412:	1f 93       	push	r17
    3414:	cf 93       	push	r28
    3416:	df 93       	push	r29
    3418:	cd b7       	in	r28, 0x3d	; 61
    341a:	de b7       	in	r29, 0x3e	; 62
    341c:	ca 1b       	sub	r28, r26
    341e:	db 0b       	sbc	r29, r27
    3420:	0f b6       	in	r0, 0x3f	; 63
    3422:	f8 94       	cli
    3424:	de bf       	out	0x3e, r29	; 62
    3426:	0f be       	out	0x3f, r0	; 63
    3428:	cd bf       	out	0x3d, r28	; 61
    342a:	09 94       	ijmp

0000342c <__epilogue_restores__>:
    342c:	2a 88       	ldd	r2, Y+18	; 0x12
    342e:	39 88       	ldd	r3, Y+17	; 0x11
    3430:	48 88       	ldd	r4, Y+16	; 0x10
    3432:	5f 84       	ldd	r5, Y+15	; 0x0f
    3434:	6e 84       	ldd	r6, Y+14	; 0x0e
    3436:	7d 84       	ldd	r7, Y+13	; 0x0d
    3438:	8c 84       	ldd	r8, Y+12	; 0x0c
    343a:	9b 84       	ldd	r9, Y+11	; 0x0b
    343c:	aa 84       	ldd	r10, Y+10	; 0x0a
    343e:	b9 84       	ldd	r11, Y+9	; 0x09
    3440:	c8 84       	ldd	r12, Y+8	; 0x08
    3442:	df 80       	ldd	r13, Y+7	; 0x07
    3444:	ee 80       	ldd	r14, Y+6	; 0x06
    3446:	fd 80       	ldd	r15, Y+5	; 0x05
    3448:	0c 81       	ldd	r16, Y+4	; 0x04
    344a:	1b 81       	ldd	r17, Y+3	; 0x03
    344c:	aa 81       	ldd	r26, Y+2	; 0x02
    344e:	b9 81       	ldd	r27, Y+1	; 0x01
    3450:	ce 0f       	add	r28, r30
    3452:	d1 1d       	adc	r29, r1
    3454:	0f b6       	in	r0, 0x3f	; 63
    3456:	f8 94       	cli
    3458:	de bf       	out	0x3e, r29	; 62
    345a:	0f be       	out	0x3f, r0	; 63
    345c:	cd bf       	out	0x3d, r28	; 61
    345e:	ed 01       	movw	r28, r26
    3460:	08 95       	ret

00003462 <_exit>:
    3462:	f8 94       	cli

00003464 <__stop_program>:
    3464:	ff cf       	rjmp	.-2      	; 0x3464 <__stop_program>
