
Flight assistant.elf:     file format elf32-avr

Sections:
Idx Name          Size      VMA       LMA       File off  Algn
  0 .data         00000064  00800100  000014a4  00001538  2**0
                  CONTENTS, ALLOC, LOAD, DATA
  1 .text         000014a4  00000000  00000000  00000094  2**1
                  CONTENTS, ALLOC, LOAD, READONLY, CODE
  2 .bss          00000149  00800164  00800164  0000159c  2**0
                  ALLOC
  3 .comment      00000030  00000000  00000000  0000159c  2**0
                  CONTENTS, READONLY
  4 .note.gnu.avr.deviceinfo 00000040  00000000  00000000  000015cc  2**2
                  CONTENTS, READONLY
  5 .debug_aranges 000001f8  00000000  00000000  0000160c  2**0
                  CONTENTS, READONLY, DEBUGGING
  6 .debug_info   00002c22  00000000  00000000  00001804  2**0
                  CONTENTS, READONLY, DEBUGGING
  7 .debug_abbrev 000013b0  00000000  00000000  00004426  2**0
                  CONTENTS, READONLY, DEBUGGING
  8 .debug_line   000014e2  00000000  00000000  000057d6  2**0
                  CONTENTS, READONLY, DEBUGGING
  9 .debug_frame  00000598  00000000  00000000  00006cb8  2**2
                  CONTENTS, READONLY, DEBUGGING
 10 .debug_str    000009d8  00000000  00000000  00007250  2**0
                  CONTENTS, READONLY, DEBUGGING
 11 .debug_loc    000021c9  00000000  00000000  00007c28  2**0
                  CONTENTS, READONLY, DEBUGGING
 12 .debug_ranges 00000210  00000000  00000000  00009df1  2**0
                  CONTENTS, READONLY, DEBUGGING

Disassembly of section .text:

00000000 <__vectors>:
       0:	0c 94 6e 00 	jmp	0xdc	; 0xdc <__ctors_end>
       4:	0c 94 8b 00 	jmp	0x116	; 0x116 <__bad_interrupt>
       8:	0c 94 8b 00 	jmp	0x116	; 0x116 <__bad_interrupt>
       c:	0c 94 8b 00 	jmp	0x116	; 0x116 <__bad_interrupt>
      10:	0c 94 8b 00 	jmp	0x116	; 0x116 <__bad_interrupt>
      14:	0c 94 8b 00 	jmp	0x116	; 0x116 <__bad_interrupt>
      18:	0c 94 8b 00 	jmp	0x116	; 0x116 <__bad_interrupt>
      1c:	0c 94 8b 00 	jmp	0x116	; 0x116 <__bad_interrupt>
      20:	0c 94 8b 00 	jmp	0x116	; 0x116 <__bad_interrupt>
      24:	0c 94 8b 00 	jmp	0x116	; 0x116 <__bad_interrupt>
      28:	0c 94 8b 00 	jmp	0x116	; 0x116 <__bad_interrupt>
      2c:	0c 94 8b 00 	jmp	0x116	; 0x116 <__bad_interrupt>
      30:	0c 94 8b 00 	jmp	0x116	; 0x116 <__bad_interrupt>
      34:	0c 94 8b 00 	jmp	0x116	; 0x116 <__bad_interrupt>
      38:	0c 94 8b 00 	jmp	0x116	; 0x116 <__bad_interrupt>
      3c:	0c 94 8b 00 	jmp	0x116	; 0x116 <__bad_interrupt>
      40:	0c 94 8b 00 	jmp	0x116	; 0x116 <__bad_interrupt>
      44:	0c 94 8b 00 	jmp	0x116	; 0x116 <__bad_interrupt>
      48:	0c 94 8c 09 	jmp	0x1318	; 0x1318 <__vector_18>
      4c:	0c 94 8b 00 	jmp	0x116	; 0x116 <__bad_interrupt>
      50:	0c 94 63 09 	jmp	0x12c6	; 0x12c6 <__vector_20>
      54:	0c 94 8b 00 	jmp	0x116	; 0x116 <__bad_interrupt>
      58:	0c 94 8b 00 	jmp	0x116	; 0x116 <__bad_interrupt>
      5c:	0c 94 8b 00 	jmp	0x116	; 0x116 <__bad_interrupt>
      60:	0c 94 fb 04 	jmp	0x9f6	; 0x9f6 <__vector_24>
      64:	0c 94 8b 00 	jmp	0x116	; 0x116 <__bad_interrupt>
      68:	0c 94 8b 00 	jmp	0x116	; 0x116 <__bad_interrupt>
      6c:	0c 94 8b 00 	jmp	0x116	; 0x116 <__bad_interrupt>
      70:	0c 94 8b 00 	jmp	0x116	; 0x116 <__bad_interrupt>
      74:	0c 94 8b 00 	jmp	0x116	; 0x116 <__bad_interrupt>
      78:	0c 94 8b 00 	jmp	0x116	; 0x116 <__bad_interrupt>
      7c:	0c 94 8b 00 	jmp	0x116	; 0x116 <__bad_interrupt>
      80:	0c 94 8b 00 	jmp	0x116	; 0x116 <__bad_interrupt>
      84:	0c 94 8b 00 	jmp	0x116	; 0x116 <__bad_interrupt>
      88:	0c 94 8b 00 	jmp	0x116	; 0x116 <__bad_interrupt>
      8c:	0c 94 8b 00 	jmp	0x116	; 0x116 <__bad_interrupt>
      90:	0c 94 8b 00 	jmp	0x116	; 0x116 <__bad_interrupt>
      94:	0c 94 8b 00 	jmp	0x116	; 0x116 <__bad_interrupt>
      98:	0c 94 8b 00 	jmp	0x116	; 0x116 <__bad_interrupt>
      9c:	0c 94 8b 00 	jmp	0x116	; 0x116 <__bad_interrupt>
      a0:	0c 94 8b 00 	jmp	0x116	; 0x116 <__bad_interrupt>
      a4:	0c 94 8b 00 	jmp	0x116	; 0x116 <__bad_interrupt>
      a8:	0c 94 8b 00 	jmp	0x116	; 0x116 <__bad_interrupt>
      ac:	0c 94 8b 00 	jmp	0x116	; 0x116 <__bad_interrupt>
      b0:	0c 94 8b 00 	jmp	0x116	; 0x116 <__bad_interrupt>
      b4:	28 05       	cpc	r18, r8
      b6:	3c 05       	cpc	r19, r12
      b8:	58 05       	cpc	r21, r8
      ba:	c8 05       	cpc	r28, r8
      bc:	de 05       	cpc	r29, r14
      be:	1c 06       	cpc	r1, r28
      c0:	6f 06       	cpc	r6, r31
      c2:	a1 06       	cpc	r10, r17
      c4:	f4 06       	cpc	r15, r20

000000c6 <ER_commands>:
      c6:	45 52 00 00 00 00 00 00 00 00 00 00 00 00 00 00     ER..............
      d6:	00 00 00 00 85 04                                   ......

000000dc <__ctors_end>:
      dc:	11 24       	eor	r1, r1
      de:	1f be       	out	0x3f, r1	; 63
      e0:	cf ef       	ldi	r28, 0xFF	; 255
      e2:	d8 e0       	ldi	r29, 0x08	; 8
      e4:	de bf       	out	0x3e, r29	; 62
      e6:	cd bf       	out	0x3d, r28	; 61

000000e8 <__do_copy_data>:
      e8:	11 e0       	ldi	r17, 0x01	; 1
      ea:	a0 e0       	ldi	r26, 0x00	; 0
      ec:	b1 e0       	ldi	r27, 0x01	; 1
      ee:	e4 ea       	ldi	r30, 0xA4	; 164
      f0:	f4 e1       	ldi	r31, 0x14	; 20
      f2:	02 c0       	rjmp	.+4      	; 0xf8 <__do_copy_data+0x10>
      f4:	05 90       	lpm	r0, Z+
      f6:	0d 92       	st	X+, r0
      f8:	a4 36       	cpi	r26, 0x64	; 100
      fa:	b1 07       	cpc	r27, r17
      fc:	d9 f7       	brne	.-10     	; 0xf4 <__do_copy_data+0xc>

000000fe <__do_clear_bss>:
      fe:	22 e0       	ldi	r18, 0x02	; 2
     100:	a4 e6       	ldi	r26, 0x64	; 100
     102:	b1 e0       	ldi	r27, 0x01	; 1
     104:	01 c0       	rjmp	.+2      	; 0x108 <.do_clear_bss_start>

00000106 <.do_clear_bss_loop>:
     106:	1d 92       	st	X+, r1

00000108 <.do_clear_bss_start>:
     108:	ad 3a       	cpi	r26, 0xAD	; 173
     10a:	b2 07       	cpc	r27, r18
     10c:	e1 f7       	brne	.-8      	; 0x106 <.do_clear_bss_loop>
     10e:	0e 94 8a 01 	call	0x314	; 0x314 <main>
     112:	0c 94 50 0a 	jmp	0x14a0	; 0x14a0 <_exit>

00000116 <__bad_interrupt>:
     116:	0c 94 00 00 	jmp	0	; 0x0 <__vectors>

0000011a <I2C_start>:
	I2C_start();
	I2C_write(SLA);
	I2C_write(adr);
	while (len--) I2C_write(*buf++);
	I2C_stop();
}
     11a:	84 ea       	ldi	r24, 0xA4	; 164
     11c:	80 93 bc 00 	sts	0x00BC, r24	; 0x8000bc <__TEXT_REGION_LENGTH__+0x7e00bc>
     120:	ec eb       	ldi	r30, 0xBC	; 188
     122:	f0 e0       	ldi	r31, 0x00	; 0
     124:	80 81       	ld	r24, Z
     126:	88 23       	and	r24, r24
     128:	ec f7       	brge	.-6      	; 0x124 <I2C_start+0xa>
     12a:	08 95       	ret

0000012c <I2C_stop>:
     12c:	84 e9       	ldi	r24, 0x94	; 148
     12e:	80 93 bc 00 	sts	0x00BC, r24	; 0x8000bc <__TEXT_REGION_LENGTH__+0x7e00bc>
     132:	ec eb       	ldi	r30, 0xBC	; 188
     134:	f0 e0       	ldi	r31, 0x00	; 0
     136:	80 81       	ld	r24, Z
     138:	84 fd       	sbrc	r24, 4
     13a:	fd cf       	rjmp	.-6      	; 0x136 <I2C_stop+0xa>
     13c:	08 95       	ret

0000013e <I2C_write>:
     13e:	80 93 bb 00 	sts	0x00BB, r24	; 0x8000bb <__TEXT_REGION_LENGTH__+0x7e00bb>
     142:	84 e8       	ldi	r24, 0x84	; 132
     144:	80 93 bc 00 	sts	0x00BC, r24	; 0x8000bc <__TEXT_REGION_LENGTH__+0x7e00bc>
     148:	ec eb       	ldi	r30, 0xBC	; 188
     14a:	f0 e0       	ldi	r31, 0x00	; 0
     14c:	80 81       	ld	r24, Z
     14e:	88 23       	and	r24, r24
     150:	ec f7       	brge	.-6      	; 0x14c <I2C_write+0xe>
     152:	08 95       	ret

00000154 <I2C_read>:
     154:	20 e4       	ldi	r18, 0x40	; 64
     156:	82 9f       	mul	r24, r18
     158:	c0 01       	movw	r24, r0
     15a:	11 24       	eor	r1, r1
     15c:	84 68       	ori	r24, 0x84	; 132
     15e:	80 93 bc 00 	sts	0x00BC, r24	; 0x8000bc <__TEXT_REGION_LENGTH__+0x7e00bc>
     162:	ec eb       	ldi	r30, 0xBC	; 188
     164:	f0 e0       	ldi	r31, 0x00	; 0
     166:	80 81       	ld	r24, Z
     168:	88 23       	and	r24, r24
     16a:	ec f7       	brge	.-6      	; 0x166 <I2C_read+0x12>
     16c:	80 91 bb 00 	lds	r24, 0x00BB	; 0x8000bb <__TEXT_REGION_LENGTH__+0x7e00bb>
     170:	08 95       	ret

00000172 <I2C_write_byte>:

void I2C_write_byte(uint8_t SLA, uint8_t adr, uint8_t byte){
     172:	1f 93       	push	r17
     174:	cf 93       	push	r28
     176:	df 93       	push	r29
     178:	18 2f       	mov	r17, r24
     17a:	d6 2f       	mov	r29, r22
     17c:	c4 2f       	mov	r28, r20
	SLA = (SLA<<1);
	I2C_start();
     17e:	0e 94 8d 00 	call	0x11a	; 0x11a <I2C_start>
	I2C_write(SLA);
     182:	81 2f       	mov	r24, r17
     184:	88 0f       	add	r24, r24
     186:	0e 94 9f 00 	call	0x13e	; 0x13e <I2C_write>
	I2C_write(adr);
     18a:	8d 2f       	mov	r24, r29
     18c:	0e 94 9f 00 	call	0x13e	; 0x13e <I2C_write>
	I2C_write(byte);
     190:	8c 2f       	mov	r24, r28
     192:	0e 94 9f 00 	call	0x13e	; 0x13e <I2C_write>
	I2C_stop();
     196:	0e 94 96 00 	call	0x12c	; 0x12c <I2C_stop>
}
     19a:	df 91       	pop	r29
     19c:	cf 91       	pop	r28
     19e:	1f 91       	pop	r17
     1a0:	08 95       	ret

000001a2 <I2C_read_byte>:

uint8_t I2C_read_byte(uint8_t SLA, uint8_t adr){
     1a2:	cf 93       	push	r28
     1a4:	df 93       	push	r29
     1a6:	d6 2f       	mov	r29, r22
	SLA = (SLA<<1);
     1a8:	c8 2f       	mov	r28, r24
     1aa:	cc 0f       	add	r28, r28
	uint8_t byte;
	I2C_start();
     1ac:	0e 94 8d 00 	call	0x11a	; 0x11a <I2C_start>
	I2C_write(SLA);
     1b0:	8c 2f       	mov	r24, r28
     1b2:	0e 94 9f 00 	call	0x13e	; 0x13e <I2C_write>
	I2C_write(adr);
     1b6:	8d 2f       	mov	r24, r29
     1b8:	0e 94 9f 00 	call	0x13e	; 0x13e <I2C_write>
	I2C_start();
     1bc:	0e 94 8d 00 	call	0x11a	; 0x11a <I2C_start>
	I2C_write(SLA + 1);
     1c0:	81 e0       	ldi	r24, 0x01	; 1
     1c2:	8c 0f       	add	r24, r28
     1c4:	0e 94 9f 00 	call	0x13e	; 0x13e <I2C_write>
	byte = I2C_read(NACK);
     1c8:	80 e0       	ldi	r24, 0x00	; 0
     1ca:	0e 94 aa 00 	call	0x154	; 0x154 <I2C_read>
     1ce:	c8 2f       	mov	r28, r24
	I2C_stop();
     1d0:	0e 94 96 00 	call	0x12c	; 0x12c <I2C_stop>
	return byte;
}
     1d4:	8c 2f       	mov	r24, r28
     1d6:	df 91       	pop	r29
     1d8:	cf 91       	pop	r28
     1da:	08 95       	ret

000001dc <I2C_read_buf>:


void I2C_read_buf(uint8_t SLA, uint8_t adr, uint8_t len, uint8_t *buf) {
     1dc:	ef 92       	push	r14
     1de:	ff 92       	push	r15
     1e0:	0f 93       	push	r16
     1e2:	1f 93       	push	r17
     1e4:	cf 93       	push	r28
     1e6:	df 93       	push	r29
     1e8:	16 2f       	mov	r17, r22
     1ea:	d4 2f       	mov	r29, r20
     1ec:	e2 2e       	mov	r14, r18
     1ee:	f3 2e       	mov	r15, r19
	SLA = (SLA<<1);
     1f0:	c8 2f       	mov	r28, r24
     1f2:	cc 0f       	add	r28, r28
	I2C_start();
     1f4:	0e 94 8d 00 	call	0x11a	; 0x11a <I2C_start>
	I2C_write(SLA);
     1f8:	8c 2f       	mov	r24, r28
     1fa:	0e 94 9f 00 	call	0x13e	; 0x13e <I2C_write>
	I2C_write(adr);
     1fe:	81 2f       	mov	r24, r17
     200:	0e 94 9f 00 	call	0x13e	; 0x13e <I2C_write>
	I2C_start();
     204:	0e 94 8d 00 	call	0x11a	; 0x11a <I2C_start>
	I2C_write(SLA + 1);
     208:	81 e0       	ldi	r24, 0x01	; 1
     20a:	8c 0f       	add	r24, r28
     20c:	0e 94 9f 00 	call	0x13e	; 0x13e <I2C_write>
	while (len--) *buf++ = I2C_read( len ? ACK : NACK );
     210:	cf ef       	ldi	r28, 0xFF	; 255
     212:	cd 0f       	add	r28, r29
     214:	dd 23       	and	r29, r29
     216:	89 f0       	breq	.+34     	; 0x23a <I2C_read_buf+0x5e>
     218:	0e 2d       	mov	r16, r14
     21a:	1f 2d       	mov	r17, r15
     21c:	d1 e0       	ldi	r29, 0x01	; 1
     21e:	f1 2c       	mov	r15, r1
     220:	8d 2f       	mov	r24, r29
     222:	c1 11       	cpse	r28, r1
     224:	01 c0       	rjmp	.+2      	; 0x228 <I2C_read_buf+0x4c>
     226:	8f 2d       	mov	r24, r15
     228:	0e 94 aa 00 	call	0x154	; 0x154 <I2C_read>
     22c:	f8 01       	movw	r30, r16
     22e:	81 93       	st	Z+, r24
     230:	8f 01       	movw	r16, r30
     232:	8c 2f       	mov	r24, r28
     234:	c1 50       	subi	r28, 0x01	; 1
     236:	81 11       	cpse	r24, r1
     238:	f3 cf       	rjmp	.-26     	; 0x220 <I2C_read_buf+0x44>
	I2C_stop();
     23a:	0e 94 96 00 	call	0x12c	; 0x12c <I2C_stop>
}
     23e:	df 91       	pop	r29
     240:	cf 91       	pop	r28
     242:	1f 91       	pop	r17
     244:	0f 91       	pop	r16
     246:	ff 90       	pop	r15
     248:	ef 90       	pop	r14
     24a:	08 95       	ret

0000024c <InitMPU6050>:
void InitMPU6050(void);

void InitMPU6050(void)
{
	// reset device, reset all registers, clear gyro and accelerometer bias registers
	I2C_write_byte(MPU6050_ADDRESS, PWR_MGMT_1, 0x80); // Write a one to bit 7 reset bit; toggle reset device
     24c:	40 e8       	ldi	r20, 0x80	; 128
     24e:	6b e6       	ldi	r22, 0x6B	; 107
     250:	88 e6       	ldi	r24, 0x68	; 104
     252:	0e 94 b9 00 	call	0x172	; 0x172 <I2C_write_byte>
	#else
		//round up by default
		__ticks_dc = (uint32_t)(ceil(fabs(__tmp)));
	#endif

	__builtin_avr_delay_cycles(__ticks_dc);
     256:	2f ef       	ldi	r18, 0xFF	; 255
     258:	81 ee       	ldi	r24, 0xE1	; 225
     25a:	94 e0       	ldi	r25, 0x04	; 4
     25c:	21 50       	subi	r18, 0x01	; 1
     25e:	80 40       	sbci	r24, 0x00	; 0
     260:	90 40       	sbci	r25, 0x00	; 0
     262:	e1 f7       	brne	.-8      	; 0x25c <InitMPU6050+0x10>
     264:	00 c0       	rjmp	.+0      	; 0x266 <InitMPU6050+0x1a>
     266:	00 00       	nop
	_delay_ms(100);

	// get stable time source
	// Set clock source to be PLL with x-axis gyroscope reference, bits 2:0 = 001
	I2C_write_byte(MPU6050_ADDRESS, PWR_MGMT_1, 0x01);
     268:	41 e0       	ldi	r20, 0x01	; 1
     26a:	6b e6       	ldi	r22, 0x6B	; 107
     26c:	88 e6       	ldi	r24, 0x68	; 104
     26e:	0e 94 b9 00 	call	0x172	; 0x172 <I2C_write_byte>
	I2C_write_byte(MPU6050_ADDRESS, PWR_MGMT_2, 0x00);
     272:	40 e0       	ldi	r20, 0x00	; 0
     274:	6c e6       	ldi	r22, 0x6C	; 108
     276:	88 e6       	ldi	r24, 0x68	; 104
     278:	0e 94 b9 00 	call	0x172	; 0x172 <I2C_write_byte>
     27c:	2f ef       	ldi	r18, 0xFF	; 255
     27e:	83 ec       	ldi	r24, 0xC3	; 195
     280:	99 e0       	ldi	r25, 0x09	; 9
     282:	21 50       	subi	r18, 0x01	; 1
     284:	80 40       	sbci	r24, 0x00	; 0
     286:	90 40       	sbci	r25, 0x00	; 0
     288:	e1 f7       	brne	.-8      	; 0x282 <InitMPU6050+0x36>
     28a:	00 c0       	rjmp	.+0      	; 0x28c <InitMPU6050+0x40>
     28c:	00 00       	nop
	_delay_ms(200);

	// Configure device for bias calculation
	I2C_write_byte(MPU6050_ADDRESS, INT_ENABLE, 0x00);   // Disable all interrupts
     28e:	40 e0       	ldi	r20, 0x00	; 0
     290:	68 e3       	ldi	r22, 0x38	; 56
     292:	88 e6       	ldi	r24, 0x68	; 104
     294:	0e 94 b9 00 	call	0x172	; 0x172 <I2C_write_byte>
	I2C_write_byte(MPU6050_ADDRESS, FIFO_EN, 0x00);      // Disable FIFO
     298:	40 e0       	ldi	r20, 0x00	; 0
     29a:	63 e2       	ldi	r22, 0x23	; 35
     29c:	88 e6       	ldi	r24, 0x68	; 104
     29e:	0e 94 b9 00 	call	0x172	; 0x172 <I2C_write_byte>
	I2C_write_byte(MPU6050_ADDRESS, PWR_MGMT_1, 0x00);   // Turn on internal clock source
     2a2:	40 e0       	ldi	r20, 0x00	; 0
     2a4:	6b e6       	ldi	r22, 0x6B	; 107
     2a6:	88 e6       	ldi	r24, 0x68	; 104
     2a8:	0e 94 b9 00 	call	0x172	; 0x172 <I2C_write_byte>
	I2C_write_byte(MPU6050_ADDRESS, I2C_MST_CTRL, 0x00); // Disable I2C master
     2ac:	40 e0       	ldi	r20, 0x00	; 0
     2ae:	64 e2       	ldi	r22, 0x24	; 36
     2b0:	88 e6       	ldi	r24, 0x68	; 104
     2b2:	0e 94 b9 00 	call	0x172	; 0x172 <I2C_write_byte>
	I2C_write_byte(MPU6050_ADDRESS, USER_CTRL, 0x00);    // Disable FIFO and I2C master modes
     2b6:	40 e0       	ldi	r20, 0x00	; 0
     2b8:	6a e6       	ldi	r22, 0x6A	; 106
     2ba:	88 e6       	ldi	r24, 0x68	; 104
     2bc:	0e 94 b9 00 	call	0x172	; 0x172 <I2C_write_byte>
	I2C_write_byte(MPU6050_ADDRESS, USER_CTRL, 0x0C);    // Reset FIFO and DMP
     2c0:	4c e0       	ldi	r20, 0x0C	; 12
     2c2:	6a e6       	ldi	r22, 0x6A	; 106
     2c4:	88 e6       	ldi	r24, 0x68	; 104
     2c6:	0e 94 b9 00 	call	0x172	; 0x172 <I2C_write_byte>
     2ca:	8f e5       	ldi	r24, 0x5F	; 95
     2cc:	9a ee       	ldi	r25, 0xEA	; 234
     2ce:	01 97       	sbiw	r24, 0x01	; 1
     2d0:	f1 f7       	brne	.-4      	; 0x2ce <InitMPU6050+0x82>
     2d2:	00 c0       	rjmp	.+0      	; 0x2d4 <InitMPU6050+0x88>
     2d4:	00 00       	nop
	_delay_ms(15);

	// Configure MPU6050 gyro and accelerometer for bias calculation
	I2C_write_byte(MPU6050_ADDRESS, CONFIG, 0x03);      // Set low-pass filter to 44 Hz
     2d6:	43 e0       	ldi	r20, 0x03	; 3
     2d8:	6a e1       	ldi	r22, 0x1A	; 26
     2da:	88 e6       	ldi	r24, 0x68	; 104
     2dc:	0e 94 b9 00 	call	0x172	; 0x172 <I2C_write_byte>
	I2C_write_byte(MPU6050_ADDRESS, SMPLRT_DIV, 20);  // Set sample rate to 50 Hz
     2e0:	44 e1       	ldi	r20, 0x14	; 20
     2e2:	69 e1       	ldi	r22, 0x19	; 25
     2e4:	88 e6       	ldi	r24, 0x68	; 104
     2e6:	0e 94 b9 00 	call	0x172	; 0x172 <I2C_write_byte>
	I2C_write_byte(MPU6050_ADDRESS, GYRO_CONFIG, 0x00);  // Set gyro full-scale to 250 degrees per second, maximum sensitivity
     2ea:	40 e0       	ldi	r20, 0x00	; 0
     2ec:	6b e1       	ldi	r22, 0x1B	; 27
     2ee:	88 e6       	ldi	r24, 0x68	; 104
     2f0:	0e 94 b9 00 	call	0x172	; 0x172 <I2C_write_byte>
	I2C_write_byte(MPU6050_ADDRESS, ACCEL_CONFIG, 0x00); // Set accelerometer full-scale to 2 g, maximum sensitivity
     2f4:	40 e0       	ldi	r20, 0x00	; 0
     2f6:	6c e1       	ldi	r22, 0x1C	; 28
     2f8:	88 e6       	ldi	r24, 0x68	; 104
     2fa:	0e 94 b9 00 	call	0x172	; 0x172 <I2C_write_byte>

	I2C_write_byte(MPU6050_ADDRESS, USER_CTRL, 0x40);   // Enable FIFO
     2fe:	40 e4       	ldi	r20, 0x40	; 64
     300:	6a e6       	ldi	r22, 0x6A	; 106
     302:	88 e6       	ldi	r24, 0x68	; 104
     304:	0e 94 b9 00 	call	0x172	; 0x172 <I2C_write_byte>
	I2C_write_byte(MPU6050_ADDRESS, FIFO_EN, 0x78);     // Enable gyro and accelerometer sensors for FIFO  (max size 1024 bytes in MPU-6050)
     308:	48 e7       	ldi	r20, 0x78	; 120
     30a:	63 e2       	ldi	r22, 0x23	; 35
     30c:	88 e6       	ldi	r24, 0x68	; 104
     30e:	0e 94 b9 00 	call	0x172	; 0x172 <I2C_write_byte>
     312:	08 95       	ret

00000314 <main>:
}

int main(void)
{
     314:	cf 93       	push	r28
     316:	df 93       	push	r29
     318:	cd b7       	in	r28, 0x3d	; 61
     31a:	de b7       	in	r29, 0x3e	; 62
     31c:	68 97       	sbiw	r28, 0x18	; 24
     31e:	0f b6       	in	r0, 0x3f	; 63
     320:	f8 94       	cli
     322:	de bf       	out	0x3e, r29	; 62
     324:	0f be       	out	0x3f, r0	; 63
     326:	cd bf       	out	0x3d, r28	; 61
//	InitTWI();
	DDRB = (1<<PB5);
     328:	80 e2       	ldi	r24, 0x20	; 32
     32a:	84 b9       	out	0x04, r24	; 4

		TWSR0 = 0x00;
     32c:	10 92 b9 00 	sts	0x00B9, r1	; 0x8000b9 <__TEXT_REGION_LENGTH__+0x7e00b9>
		TWBR0 = 0x0C;
     330:	8c e0       	ldi	r24, 0x0C	; 12
     332:	80 93 b8 00 	sts	0x00B8, r24	; 0x8000b8 <__TEXT_REGION_LENGTH__+0x7e00b8>
		//enable TWI
		TWCR0 = (1<<TWEN);
     336:	84 e0       	ldi	r24, 0x04	; 4
     338:	80 93 bc 00 	sts	0x00BC, r24	; 0x8000bc <__TEXT_REGION_LENGTH__+0x7e00bc>

	test = I2C_read_byte(0x68, 0x75);
     33c:	65 e7       	ldi	r22, 0x75	; 117
     33e:	88 e6       	ldi	r24, 0x68	; 104
     340:	0e 94 d1 00 	call	0x1a2	; 0x1a2 <I2C_read_byte>
	test = test & 0b01111110;
     344:	8e 77       	andi	r24, 0x7E	; 126
     346:	80 93 68 01 	sts	0x0168, r24	; 0x800168 <test>
	


	InitUartCOM();
     34a:	0e 94 17 07 	call	0xe2e	; 0xe2e <InitUartCOM>
	sei();
     34e:	78 94       	sei

	SendLine("Uart dziala");
     350:	80 e0       	ldi	r24, 0x00	; 0
     352:	91 e0       	ldi	r25, 0x01	; 1
     354:	0e 94 4c 07 	call	0xe98	; 0xe98 <SendLine>

	SendStringUint("Wartoœæ = ", test);
     358:	60 91 68 01 	lds	r22, 0x0168	; 0x800168 <test>
     35c:	70 e0       	ldi	r23, 0x00	; 0
     35e:	8c e0       	ldi	r24, 0x0C	; 12
     360:	91 e0       	ldi	r25, 0x01	; 1
     362:	0e 94 04 09 	call	0x1208	; 0x1208 <SendStringUint>

	int16_t gyro_offset[3];
	int16_t acc_offset[3];

	CalibrateMPU6050(gyro_offset, acc_offset);
     366:	be 01       	movw	r22, r28
     368:	69 5f       	subi	r22, 0xF9	; 249
     36a:	7f 4f       	sbci	r23, 0xFF	; 255
     36c:	ce 01       	movw	r24, r28
     36e:	01 96       	adiw	r24, 0x01	; 1
     370:	0e 94 53 02 	call	0x4a6	; 0x4a6 <CalibrateMPU6050>
//	SendStringInt("Acc  X = ", acc_offset[0]);
//	SendStringInt("Acc  Y = ", acc_offset[1]);
//	SendStringInt("Acc  Z = ", acc_offset[2]);


	InitMPU6050();
     374:	0e 94 26 01 	call	0x24c	; 0x24c <InitMPU6050>
    {
		CheckRxBuffor();
		I2C_read_buf(MPU6050_ADDRESS, FIFO_R_W, 12, &data[0]); // read data for averaging
		I2C_read_buf(MPU6050_ADDRESS, FIFO_COUNTH, 2, &data[0]); // read FIFO sample count
		fifo_count = ((uint16_t)data[0] << 8) | data[1];
		packet_count = fifo_count/12;// How many sets of full gyro and accelerometer data for averaging
     378:	0f 2e       	mov	r0, r31
     37a:	fb ea       	ldi	r31, 0xAB	; 171
     37c:	5f 2e       	mov	r5, r31
     37e:	f0 2d       	mov	r31, r0
	uint8_t fifo_count, packet_count;

	uint8_t i;
    while (1) 
    {
		CheckRxBuffor();
     380:	0e 94 11 09 	call	0x1222	; 0x1222 <CheckRxBuffor>
		I2C_read_buf(MPU6050_ADDRESS, FIFO_R_W, 12, &data[0]); // read data for averaging
     384:	9e 01       	movw	r18, r28
     386:	23 5f       	subi	r18, 0xF3	; 243
     388:	3f 4f       	sbci	r19, 0xFF	; 255
     38a:	4c e0       	ldi	r20, 0x0C	; 12
     38c:	64 e7       	ldi	r22, 0x74	; 116
     38e:	88 e6       	ldi	r24, 0x68	; 104
     390:	0e 94 ee 00 	call	0x1dc	; 0x1dc <I2C_read_buf>
		I2C_read_buf(MPU6050_ADDRESS, FIFO_COUNTH, 2, &data[0]); // read FIFO sample count
     394:	9e 01       	movw	r18, r28
     396:	23 5f       	subi	r18, 0xF3	; 243
     398:	3f 4f       	sbci	r19, 0xFF	; 255
     39a:	42 e0       	ldi	r20, 0x02	; 2
     39c:	62 e7       	ldi	r22, 0x72	; 114
     39e:	88 e6       	ldi	r24, 0x68	; 104
     3a0:	0e 94 ee 00 	call	0x1dc	; 0x1dc <I2C_read_buf>
		fifo_count = ((uint16_t)data[0] << 8) | data[1];
		packet_count = fifo_count/12;// How many sets of full gyro and accelerometer data for averaging
     3a4:	6e 84       	ldd	r6, Y+14	; 0x0e
     3a6:	65 9c       	mul	r6, r5
     3a8:	61 2c       	mov	r6, r1
     3aa:	11 24       	eor	r1, r1
     3ac:	66 94       	lsr	r6
     3ae:	66 94       	lsr	r6
     3b0:	66 94       	lsr	r6
		for (i = 0; i < packet_count; i++)
     3b2:	31 f3       	breq	.-52     	; 0x380 <main+0x6c>
     3b4:	71 2c       	mov	r7, r1
		{
			I2C_read_buf(MPU6050_ADDRESS, FIFO_R_W, 12, &data[0]); // read data for averaging
     3b6:	9e 01       	movw	r18, r28
     3b8:	23 5f       	subi	r18, 0xF3	; 243
     3ba:	3f 4f       	sbci	r19, 0xFF	; 255
     3bc:	4c e0       	ldi	r20, 0x0C	; 12
     3be:	64 e7       	ldi	r22, 0x74	; 116
     3c0:	88 e6       	ldi	r24, 0x68	; 104
     3c2:	0e 94 ee 00 	call	0x1dc	; 0x1dc <I2C_read_buf>
			acc[2] = (int16_t) (((int16_t)data[4] << 8)  | data[5] ) ;
			gyro[0]  = (int16_t) (((int16_t)data[6] << 8)  | data[7] ) ;
			gyro[1]  = (int16_t) (((int16_t)data[8] << 8)  | data[9] ) ;
			gyro[2]  = (int16_t) (((int16_t)data[10] << 8) | data[11]) ;
			
			acc[0] -= acc_offset[0];
     3c6:	cd 84       	ldd	r12, Y+13	; 0x0d
     3c8:	d1 2c       	mov	r13, r1
     3ca:	dc 2c       	mov	r13, r12
     3cc:	cc 24       	eor	r12, r12
     3ce:	8e 85       	ldd	r24, Y+14	; 0x0e
     3d0:	c8 2a       	or	r12, r24
     3d2:	8f 81       	ldd	r24, Y+7	; 0x07
     3d4:	98 85       	ldd	r25, Y+8	; 0x08
     3d6:	c8 1a       	sub	r12, r24
     3d8:	d9 0a       	sbc	r13, r25
			acc[1] -= acc_offset[1];
     3da:	ef 84       	ldd	r14, Y+15	; 0x0f
     3dc:	f1 2c       	mov	r15, r1
     3de:	fe 2c       	mov	r15, r14
     3e0:	ee 24       	eor	r14, r14
     3e2:	88 89       	ldd	r24, Y+16	; 0x10
     3e4:	e8 2a       	or	r14, r24
     3e6:	89 85       	ldd	r24, Y+9	; 0x09
     3e8:	9a 85       	ldd	r25, Y+10	; 0x0a
     3ea:	e8 1a       	sub	r14, r24
     3ec:	f9 0a       	sbc	r15, r25
			acc[2] -= acc_offset[2];
     3ee:	09 89       	ldd	r16, Y+17	; 0x11
     3f0:	10 e0       	ldi	r17, 0x00	; 0
     3f2:	10 2f       	mov	r17, r16
     3f4:	00 27       	eor	r16, r16
     3f6:	8a 89       	ldd	r24, Y+18	; 0x12
     3f8:	08 2b       	or	r16, r24
     3fa:	8b 85       	ldd	r24, Y+11	; 0x0b
     3fc:	9c 85       	ldd	r25, Y+12	; 0x0c
     3fe:	08 1b       	sub	r16, r24
     400:	19 0b       	sbc	r17, r25

			gyro[0] -= gyro_offset[0];
			gyro[1] -= gyro_offset[1];
     402:	8d 88       	ldd	r8, Y+21	; 0x15
     404:	91 2c       	mov	r9, r1
     406:	98 2c       	mov	r9, r8
     408:	88 24       	eor	r8, r8
     40a:	8e 89       	ldd	r24, Y+22	; 0x16
     40c:	88 2a       	or	r8, r24
     40e:	8b 81       	ldd	r24, Y+3	; 0x03
     410:	9c 81       	ldd	r25, Y+4	; 0x04
     412:	88 1a       	sub	r8, r24
     414:	99 0a       	sbc	r9, r25
			gyro[2] -= gyro_offset[2];
     416:	af 88       	ldd	r10, Y+23	; 0x17
     418:	b1 2c       	mov	r11, r1
     41a:	ba 2c       	mov	r11, r10
     41c:	aa 24       	eor	r10, r10
     41e:	88 8d       	ldd	r24, Y+24	; 0x18
     420:	a8 2a       	or	r10, r24
     422:	8d 81       	ldd	r24, Y+5	; 0x05
     424:	9e 81       	ldd	r25, Y+6	; 0x06
     426:	a8 1a       	sub	r10, r24
     428:	b9 0a       	sbc	r11, r25


			SendStringInt("Gyro X ", gyro[0]);
     42a:	4b 89       	ldd	r20, Y+19	; 0x13
     42c:	50 e0       	ldi	r21, 0x00	; 0
     42e:	54 2f       	mov	r21, r20
     430:	44 27       	eor	r20, r20
     432:	8c 89       	ldd	r24, Y+20	; 0x14
     434:	48 2b       	or	r20, r24
     436:	89 81       	ldd	r24, Y+1	; 0x01
     438:	9a 81       	ldd	r25, Y+2	; 0x02
     43a:	48 1b       	sub	r20, r24
     43c:	59 0b       	sbc	r21, r25
     43e:	05 2e       	mov	r0, r21
     440:	00 0c       	add	r0, r0
     442:	66 0b       	sbc	r22, r22
     444:	77 0b       	sbc	r23, r23
     446:	87 e1       	ldi	r24, 0x17	; 23
     448:	91 e0       	ldi	r25, 0x01	; 1
     44a:	0e 94 42 08 	call	0x1084	; 0x1084 <SendStringInt>
			SendStringInt("Gyro Y ", gyro[1]);
     44e:	a4 01       	movw	r20, r8
     450:	99 0c       	add	r9, r9
     452:	66 0b       	sbc	r22, r22
     454:	77 0b       	sbc	r23, r23
     456:	8f e1       	ldi	r24, 0x1F	; 31
     458:	91 e0       	ldi	r25, 0x01	; 1
     45a:	0e 94 42 08 	call	0x1084	; 0x1084 <SendStringInt>
			SendStringInt("Gyro Z ", gyro[2]);
     45e:	a5 01       	movw	r20, r10
     460:	bb 0c       	add	r11, r11
     462:	66 0b       	sbc	r22, r22
     464:	77 0b       	sbc	r23, r23
     466:	87 e2       	ldi	r24, 0x27	; 39
     468:	91 e0       	ldi	r25, 0x01	; 1
     46a:	0e 94 42 08 	call	0x1084	; 0x1084 <SendStringInt>

			SendStringInt("Acc X ", acc[0]);
     46e:	a6 01       	movw	r20, r12
     470:	dd 0c       	add	r13, r13
     472:	66 0b       	sbc	r22, r22
     474:	77 0b       	sbc	r23, r23
     476:	8f e2       	ldi	r24, 0x2F	; 47
     478:	91 e0       	ldi	r25, 0x01	; 1
     47a:	0e 94 42 08 	call	0x1084	; 0x1084 <SendStringInt>
			SendStringInt("Acc Y ", acc[1]);
     47e:	a7 01       	movw	r20, r14
     480:	ff 0c       	add	r15, r15
     482:	66 0b       	sbc	r22, r22
     484:	77 0b       	sbc	r23, r23
     486:	86 e3       	ldi	r24, 0x36	; 54
     488:	91 e0       	ldi	r25, 0x01	; 1
     48a:	0e 94 42 08 	call	0x1084	; 0x1084 <SendStringInt>
			SendStringInt("Acc Z ", acc[2]);
     48e:	a8 01       	movw	r20, r16
     490:	11 0f       	add	r17, r17
     492:	66 0b       	sbc	r22, r22
     494:	77 0b       	sbc	r23, r23
     496:	8d e3       	ldi	r24, 0x3D	; 61
     498:	91 e0       	ldi	r25, 0x01	; 1
     49a:	0e 94 42 08 	call	0x1084	; 0x1084 <SendStringInt>
		CheckRxBuffor();
		I2C_read_buf(MPU6050_ADDRESS, FIFO_R_W, 12, &data[0]); // read data for averaging
		I2C_read_buf(MPU6050_ADDRESS, FIFO_COUNTH, 2, &data[0]); // read FIFO sample count
		fifo_count = ((uint16_t)data[0] << 8) | data[1];
		packet_count = fifo_count/12;// How many sets of full gyro and accelerometer data for averaging
		for (i = 0; i < packet_count; i++)
     49e:	73 94       	inc	r7
     4a0:	67 10       	cpse	r6, r7
     4a2:	89 cf       	rjmp	.-238    	; 0x3b6 <main+0xa2>
     4a4:	6d cf       	rjmp	.-294    	; 0x380 <main+0x6c>

000004a6 <CalibrateMPU6050>:
#include "MPU6050.h"
#include "MPU6050_registers.h"
#include "Uart.h"

void CalibrateMPU6050(int16_t gyro_offset[], int16_t acc_offset[])
{
     4a6:	2f 92       	push	r2
     4a8:	3f 92       	push	r3
     4aa:	4f 92       	push	r4
     4ac:	5f 92       	push	r5
     4ae:	6f 92       	push	r6
     4b0:	7f 92       	push	r7
     4b2:	8f 92       	push	r8
     4b4:	9f 92       	push	r9
     4b6:	af 92       	push	r10
     4b8:	bf 92       	push	r11
     4ba:	cf 92       	push	r12
     4bc:	df 92       	push	r13
     4be:	ef 92       	push	r14
     4c0:	ff 92       	push	r15
     4c2:	0f 93       	push	r16
     4c4:	1f 93       	push	r17
     4c6:	cf 93       	push	r28
     4c8:	df 93       	push	r29
     4ca:	cd b7       	in	r28, 0x3d	; 61
     4cc:	de b7       	in	r29, 0x3e	; 62
     4ce:	a4 97       	sbiw	r28, 0x24	; 36
     4d0:	0f b6       	in	r0, 0x3f	; 63
     4d2:	f8 94       	cli
     4d4:	de bf       	out	0x3e, r29	; 62
     4d6:	0f be       	out	0x3f, r0	; 63
     4d8:	cd bf       	out	0x3d, r28	; 61
     4da:	9a a3       	std	Y+34, r25	; 0x22
     4dc:	89 a3       	std	Y+33, r24	; 0x21
     4de:	7c a3       	std	Y+36, r23	; 0x24
     4e0:	6b a3       	std	Y+35, r22	; 0x23
	int32_t gyro_bias[3] = {0, 0, 0};
	int32_t accel_bias[3] = {0, 0, 0};
	packet_total = 0;

	// reset device, reset all registers, clear gyro and accelerometer bias registers
	I2C_write_byte(MPU6050_ADDRESS, PWR_MGMT_1, 0x80); // Write a one to bit 7 reset bit; toggle reset device
     4e2:	40 e8       	ldi	r20, 0x80	; 128
     4e4:	50 e0       	ldi	r21, 0x00	; 0
     4e6:	6b e6       	ldi	r22, 0x6B	; 107
     4e8:	70 e0       	ldi	r23, 0x00	; 0
     4ea:	88 e6       	ldi	r24, 0x68	; 104
     4ec:	90 e0       	ldi	r25, 0x00	; 0
     4ee:	0e 94 b9 00 	call	0x172	; 0x172 <I2C_write_byte>
     4f2:	2f ef       	ldi	r18, 0xFF	; 255
     4f4:	31 ee       	ldi	r19, 0xE1	; 225
     4f6:	44 e0       	ldi	r20, 0x04	; 4
     4f8:	21 50       	subi	r18, 0x01	; 1
     4fa:	30 40       	sbci	r19, 0x00	; 0
     4fc:	40 40       	sbci	r20, 0x00	; 0
     4fe:	e1 f7       	brne	.-8      	; 0x4f8 <CalibrateMPU6050+0x52>
     500:	00 c0       	rjmp	.+0      	; 0x502 <CalibrateMPU6050+0x5c>
     502:	00 00       	nop
	_delay_ms(100);

	// get stable time source
	// Set clock source to be PLL with x-axis gyroscope reference, bits 2:0 = 001
	I2C_write_byte(MPU6050_ADDRESS, PWR_MGMT_1, 0x01);
     504:	41 e0       	ldi	r20, 0x01	; 1
     506:	50 e0       	ldi	r21, 0x00	; 0
     508:	6b e6       	ldi	r22, 0x6B	; 107
     50a:	70 e0       	ldi	r23, 0x00	; 0
     50c:	88 e6       	ldi	r24, 0x68	; 104
     50e:	90 e0       	ldi	r25, 0x00	; 0
     510:	0e 94 b9 00 	call	0x172	; 0x172 <I2C_write_byte>
	I2C_write_byte(MPU6050_ADDRESS, PWR_MGMT_2, 0x00);
     514:	40 e0       	ldi	r20, 0x00	; 0
     516:	50 e0       	ldi	r21, 0x00	; 0
     518:	6c e6       	ldi	r22, 0x6C	; 108
     51a:	70 e0       	ldi	r23, 0x00	; 0
     51c:	88 e6       	ldi	r24, 0x68	; 104
     51e:	90 e0       	ldi	r25, 0x00	; 0
     520:	0e 94 b9 00 	call	0x172	; 0x172 <I2C_write_byte>
     524:	5f ef       	ldi	r21, 0xFF	; 255
     526:	63 ec       	ldi	r22, 0xC3	; 195
     528:	79 e0       	ldi	r23, 0x09	; 9
     52a:	51 50       	subi	r21, 0x01	; 1
     52c:	60 40       	sbci	r22, 0x00	; 0
     52e:	70 40       	sbci	r23, 0x00	; 0
     530:	e1 f7       	brne	.-8      	; 0x52a <CalibrateMPU6050+0x84>
     532:	00 c0       	rjmp	.+0      	; 0x534 <CalibrateMPU6050+0x8e>
     534:	00 00       	nop
	_delay_ms(200);

	// Configure device for bias calculation
	I2C_write_byte(MPU6050_ADDRESS, INT_ENABLE, 0x00);   // Disable all interrupts
     536:	40 e0       	ldi	r20, 0x00	; 0
     538:	50 e0       	ldi	r21, 0x00	; 0
     53a:	68 e3       	ldi	r22, 0x38	; 56
     53c:	70 e0       	ldi	r23, 0x00	; 0
     53e:	88 e6       	ldi	r24, 0x68	; 104
     540:	90 e0       	ldi	r25, 0x00	; 0
     542:	0e 94 b9 00 	call	0x172	; 0x172 <I2C_write_byte>
	I2C_write_byte(MPU6050_ADDRESS, FIFO_EN, 0x00);      // Disable FIFO
     546:	40 e0       	ldi	r20, 0x00	; 0
     548:	50 e0       	ldi	r21, 0x00	; 0
     54a:	63 e2       	ldi	r22, 0x23	; 35
     54c:	70 e0       	ldi	r23, 0x00	; 0
     54e:	88 e6       	ldi	r24, 0x68	; 104
     550:	90 e0       	ldi	r25, 0x00	; 0
     552:	0e 94 b9 00 	call	0x172	; 0x172 <I2C_write_byte>
	I2C_write_byte(MPU6050_ADDRESS, PWR_MGMT_1, 0x00);   // Turn on internal clock source
     556:	40 e0       	ldi	r20, 0x00	; 0
     558:	50 e0       	ldi	r21, 0x00	; 0
     55a:	6b e6       	ldi	r22, 0x6B	; 107
     55c:	70 e0       	ldi	r23, 0x00	; 0
     55e:	88 e6       	ldi	r24, 0x68	; 104
     560:	90 e0       	ldi	r25, 0x00	; 0
     562:	0e 94 b9 00 	call	0x172	; 0x172 <I2C_write_byte>
	I2C_write_byte(MPU6050_ADDRESS, I2C_MST_CTRL, 0x00); // Disable I2C master
     566:	40 e0       	ldi	r20, 0x00	; 0
     568:	50 e0       	ldi	r21, 0x00	; 0
     56a:	64 e2       	ldi	r22, 0x24	; 36
     56c:	70 e0       	ldi	r23, 0x00	; 0
     56e:	88 e6       	ldi	r24, 0x68	; 104
     570:	90 e0       	ldi	r25, 0x00	; 0
     572:	0e 94 b9 00 	call	0x172	; 0x172 <I2C_write_byte>
	I2C_write_byte(MPU6050_ADDRESS, USER_CTRL, 0x00);    // Disable FIFO and I2C master modes
     576:	40 e0       	ldi	r20, 0x00	; 0
     578:	50 e0       	ldi	r21, 0x00	; 0
     57a:	6a e6       	ldi	r22, 0x6A	; 106
     57c:	70 e0       	ldi	r23, 0x00	; 0
     57e:	88 e6       	ldi	r24, 0x68	; 104
     580:	90 e0       	ldi	r25, 0x00	; 0
     582:	0e 94 b9 00 	call	0x172	; 0x172 <I2C_write_byte>
	I2C_write_byte(MPU6050_ADDRESS, USER_CTRL, 0x0C);    // Reset FIFO and DMP
     586:	4c e0       	ldi	r20, 0x0C	; 12
     588:	50 e0       	ldi	r21, 0x00	; 0
     58a:	6a e6       	ldi	r22, 0x6A	; 106
     58c:	70 e0       	ldi	r23, 0x00	; 0
     58e:	88 e6       	ldi	r24, 0x68	; 104
     590:	90 e0       	ldi	r25, 0x00	; 0
     592:	0e 94 b9 00 	call	0x172	; 0x172 <I2C_write_byte>
     596:	8f e5       	ldi	r24, 0x5F	; 95
     598:	9a ee       	ldi	r25, 0xEA	; 234
     59a:	01 97       	sbiw	r24, 0x01	; 1
     59c:	f1 f7       	brne	.-4      	; 0x59a <CalibrateMPU6050+0xf4>
     59e:	00 c0       	rjmp	.+0      	; 0x5a0 <CalibrateMPU6050+0xfa>
     5a0:	00 00       	nop
	_delay_ms(15);

	// Configure MPU6050 gyro and accelerometer for bias calculation
	I2C_write_byte(MPU6050_ADDRESS, CONFIG, 0x01);      // Set low-pass filter to 188 Hz
     5a2:	41 e0       	ldi	r20, 0x01	; 1
     5a4:	50 e0       	ldi	r21, 0x00	; 0
     5a6:	6a e1       	ldi	r22, 0x1A	; 26
     5a8:	70 e0       	ldi	r23, 0x00	; 0
     5aa:	88 e6       	ldi	r24, 0x68	; 104
     5ac:	90 e0       	ldi	r25, 0x00	; 0
     5ae:	0e 94 b9 00 	call	0x172	; 0x172 <I2C_write_byte>
	I2C_write_byte(MPU6050_ADDRESS, SMPLRT_DIV, 0x00);  // Set sample rate to 1 kHz
     5b2:	40 e0       	ldi	r20, 0x00	; 0
     5b4:	50 e0       	ldi	r21, 0x00	; 0
     5b6:	69 e1       	ldi	r22, 0x19	; 25
     5b8:	70 e0       	ldi	r23, 0x00	; 0
     5ba:	88 e6       	ldi	r24, 0x68	; 104
     5bc:	90 e0       	ldi	r25, 0x00	; 0
     5be:	0e 94 b9 00 	call	0x172	; 0x172 <I2C_write_byte>
	I2C_write_byte(MPU6050_ADDRESS, GYRO_CONFIG, 0x00);  // Set gyro full-scale to 250 degrees per second, maximum sensitivity
     5c2:	40 e0       	ldi	r20, 0x00	; 0
     5c4:	50 e0       	ldi	r21, 0x00	; 0
     5c6:	6b e1       	ldi	r22, 0x1B	; 27
     5c8:	70 e0       	ldi	r23, 0x00	; 0
     5ca:	88 e6       	ldi	r24, 0x68	; 104
     5cc:	90 e0       	ldi	r25, 0x00	; 0
     5ce:	0e 94 b9 00 	call	0x172	; 0x172 <I2C_write_byte>
	I2C_write_byte(MPU6050_ADDRESS, ACCEL_CONFIG, 0x00); // Set accelerometer full-scale to 2 g, maximum sensitivity
     5d2:	40 e0       	ldi	r20, 0x00	; 0
     5d4:	50 e0       	ldi	r21, 0x00	; 0
     5d6:	6c e1       	ldi	r22, 0x1C	; 28
     5d8:	70 e0       	ldi	r23, 0x00	; 0
     5da:	88 e6       	ldi	r24, 0x68	; 104
     5dc:	90 e0       	ldi	r25, 0x00	; 0
     5de:	0e 94 b9 00 	call	0x172	; 0x172 <I2C_write_byte>

	uint16_t  gyrosensitivity  = 131;   // = 131 LSB/degrees/sec
	uint16_t  accelsensitivity = 16384;  // = 16384 LSB/g

	// Configure FIFO to capture accelerometer and gyro data for bias calculation
	I2C_write_byte(MPU6050_ADDRESS, USER_CTRL, 0x40);   // Enable FIFO
     5e2:	40 e4       	ldi	r20, 0x40	; 64
     5e4:	50 e0       	ldi	r21, 0x00	; 0
     5e6:	6a e6       	ldi	r22, 0x6A	; 106
     5e8:	70 e0       	ldi	r23, 0x00	; 0
     5ea:	88 e6       	ldi	r24, 0x68	; 104
     5ec:	90 e0       	ldi	r25, 0x00	; 0
     5ee:	0e 94 b9 00 	call	0x172	; 0x172 <I2C_write_byte>
	I2C_write_byte(MPU6050_ADDRESS, FIFO_EN, 0x78);     // Enable gyro and accelerometer sensors for FIFO  (max size 1024 bytes in MPU-6050)
     5f2:	48 e7       	ldi	r20, 0x78	; 120
     5f4:	50 e0       	ldi	r21, 0x00	; 0
     5f6:	63 e2       	ldi	r22, 0x23	; 35
     5f8:	70 e0       	ldi	r23, 0x00	; 0
     5fa:	88 e6       	ldi	r24, 0x68	; 104
     5fc:	90 e0       	ldi	r25, 0x00	; 0
     5fe:	0e 94 b9 00 	call	0x172	; 0x172 <I2C_write_byte>
     602:	af e1       	ldi	r26, 0x1F	; 31
     604:	be e4       	ldi	r27, 0x4E	; 78
     606:	11 97       	sbiw	r26, 0x01	; 1
     608:	f1 f7       	brne	.-4      	; 0x606 <CalibrateMPU6050+0x160>
     60a:	00 c0       	rjmp	.+0      	; 0x60c <CalibrateMPU6050+0x166>
     60c:	00 00       	nop
     60e:	bf ef       	ldi	r27, 0xFF	; 255
     610:	ef e8       	ldi	r30, 0x8F	; 143
     612:	f1 e0       	ldi	r31, 0x01	; 1
     614:	b1 50       	subi	r27, 0x01	; 1
     616:	e0 40       	sbci	r30, 0x00	; 0
     618:	f0 40       	sbci	r31, 0x00	; 0
     61a:	e1 f7       	brne	.-8      	; 0x614 <CalibrateMPU6050+0x16e>
     61c:	00 c0       	rjmp	.+0      	; 0x61e <CalibrateMPU6050+0x178>
     61e:	00 00       	nop

void CalibrateMPU6050(int16_t gyro_offset[], int16_t acc_offset[])
{
	uint8_t data[12]; // data array to hold accelerometer and gyro x, y, z, data
	uint16_t ii, jj, packet_count, packet_total, fifo_count;
	int32_t gyro_bias[3] = {0, 0, 0};
     620:	19 8e       	std	Y+25, r1	; 0x19
     622:	1a 8e       	std	Y+26, r1	; 0x1a
     624:	1b 8e       	std	Y+27, r1	; 0x1b
     626:	1c 8e       	std	Y+28, r1	; 0x1c
     628:	41 2c       	mov	r4, r1
     62a:	51 2c       	mov	r5, r1
     62c:	32 01       	movw	r6, r4
     62e:	81 2c       	mov	r8, r1
     630:	91 2c       	mov	r9, r1
     632:	54 01       	movw	r10, r8
	int32_t accel_bias[3] = {0, 0, 0};
     634:	1d 8a       	std	Y+21, r1	; 0x15
     636:	1e 8a       	std	Y+22, r1	; 0x16
     638:	1f 8a       	std	Y+23, r1	; 0x17
     63a:	18 8e       	std	Y+24, r1	; 0x18
     63c:	19 8a       	std	Y+17, r1	; 0x11
     63e:	1a 8a       	std	Y+18, r1	; 0x12
     640:	1b 8a       	std	Y+19, r1	; 0x13
     642:	1c 8a       	std	Y+20, r1	; 0x14
     644:	1d 86       	std	Y+13, r1	; 0x0d
     646:	1e 86       	std	Y+14, r1	; 0x0e
     648:	1f 86       	std	Y+15, r1	; 0x0f
     64a:	18 8a       	std	Y+16, r1	; 0x10
	packet_total = 0;
     64c:	c1 2c       	mov	r12, r1
     64e:	d1 2c       	mov	r13, r1
	// Configure FIFO to capture accelerometer and gyro data for bias calculation
	I2C_write_byte(MPU6050_ADDRESS, USER_CTRL, 0x40);   // Enable FIFO
	I2C_write_byte(MPU6050_ADDRESS, FIFO_EN, 0x78);     // Enable gyro and accelerometer sensors for FIFO  (max size 1024 bytes in MPU-6050)
	_delay_ms(5);

	for (jj = 0; jj < 20; jj++)	//read samples for 1 second
     650:	21 2c       	mov	r2, r1
     652:	31 2c       	mov	r3, r1
     654:	15 c0       	rjmp	.+42     	; 0x680 <CalibrateMPU6050+0x1da>
     656:	2f ef       	ldi	r18, 0xFF	; 255
     658:	3f e8       	ldi	r19, 0x8F	; 143
     65a:	41 e0       	ldi	r20, 0x01	; 1
     65c:	21 50       	subi	r18, 0x01	; 1
     65e:	30 40       	sbci	r19, 0x00	; 0
     660:	40 40       	sbci	r20, 0x00	; 0
     662:	e1 f7       	brne	.-8      	; 0x65c <CalibrateMPU6050+0x1b6>
     664:	00 c0       	rjmp	.+0      	; 0x666 <CalibrateMPU6050+0x1c0>
     666:	00 00       	nop
	{
		_delay_ms(32); // accumulate 50 samples in 50 milliseconds = 600 bytes
		// At end of sample accumulation, turn off FIFO sensor read
		if (jj == 19)	// Disable gyro and accelerometer sensors for FIFO
     668:	53 e1       	ldi	r21, 0x13	; 19
     66a:	25 16       	cp	r2, r21
     66c:	31 04       	cpc	r3, r1
     66e:	41 f4       	brne	.+16     	; 0x680 <CalibrateMPU6050+0x1da>
			I2C_write_byte(MPU6050_ADDRESS, FIFO_EN, 0x00);
     670:	40 e0       	ldi	r20, 0x00	; 0
     672:	50 e0       	ldi	r21, 0x00	; 0
     674:	63 e2       	ldi	r22, 0x23	; 35
     676:	70 e0       	ldi	r23, 0x00	; 0
     678:	88 e6       	ldi	r24, 0x68	; 104
     67a:	90 e0       	ldi	r25, 0x00	; 0
     67c:	0e 94 b9 00 	call	0x172	; 0x172 <I2C_write_byte>
		I2C_read_buf(MPU6050_ADDRESS, FIFO_COUNTH, 2, &data[0]); // read FIFO sample count
     680:	9e 01       	movw	r18, r28
     682:	2f 5f       	subi	r18, 0xFF	; 255
     684:	3f 4f       	sbci	r19, 0xFF	; 255
     686:	42 e0       	ldi	r20, 0x02	; 2
     688:	50 e0       	ldi	r21, 0x00	; 0
     68a:	62 e7       	ldi	r22, 0x72	; 114
     68c:	70 e0       	ldi	r23, 0x00	; 0
     68e:	88 e6       	ldi	r24, 0x68	; 104
     690:	90 e0       	ldi	r25, 0x00	; 0
     692:	0e 94 ee 00 	call	0x1dc	; 0x1dc <I2C_read_buf>
		fifo_count = ((uint16_t)data[0] << 8) | data[1];

		packet_count = fifo_count/12;// How many sets of full gyro and accelerometer data for averaging
     696:	29 81       	ldd	r18, Y+1	; 0x01
     698:	30 e0       	ldi	r19, 0x00	; 0
     69a:	32 2f       	mov	r19, r18
     69c:	22 27       	eor	r18, r18
     69e:	8a 81       	ldd	r24, Y+2	; 0x02
     6a0:	28 2b       	or	r18, r24
     6a2:	ab ea       	ldi	r26, 0xAB	; 171
     6a4:	ba ea       	ldi	r27, 0xAA	; 170
     6a6:	0e 94 d7 09 	call	0x13ae	; 0x13ae <__umulhisi3>
     6aa:	7c 01       	movw	r14, r24
     6ac:	f6 94       	lsr	r15
     6ae:	e7 94       	ror	r14
     6b0:	f6 94       	lsr	r15
     6b2:	e7 94       	ror	r14
     6b4:	f6 94       	lsr	r15
     6b6:	e7 94       	ror	r14

		for (ii = 0; ii < packet_count; ii++) 
     6b8:	e1 14       	cp	r14, r1
     6ba:	f1 04       	cpc	r15, r1
     6bc:	09 f4       	brne	.+2      	; 0x6c0 <CalibrateMPU6050+0x21a>
     6be:	8f c0       	rjmp	.+286    	; 0x7de <CalibrateMPU6050+0x338>
     6c0:	00 e0       	ldi	r16, 0x00	; 0
     6c2:	10 e0       	ldi	r17, 0x00	; 0
		{
			int16_t accel_temp[3] = {0, 0, 0}, gyro_temp[3] = {0, 0, 0};
			I2C_read_buf(MPU6050_ADDRESS, FIFO_R_W, 12, &data[0]); // read data for averaging
     6c4:	9e 01       	movw	r18, r28
     6c6:	2f 5f       	subi	r18, 0xFF	; 255
     6c8:	3f 4f       	sbci	r19, 0xFF	; 255
     6ca:	4c e0       	ldi	r20, 0x0C	; 12
     6cc:	50 e0       	ldi	r21, 0x00	; 0
     6ce:	64 e7       	ldi	r22, 0x74	; 116
     6d0:	70 e0       	ldi	r23, 0x00	; 0
     6d2:	88 e6       	ldi	r24, 0x68	; 104
     6d4:	90 e0       	ldi	r25, 0x00	; 0
     6d6:	0e 94 ee 00 	call	0x1dc	; 0x1dc <I2C_read_buf>
			if (packet_total < 1024)
     6da:	c1 14       	cp	r12, r1
     6dc:	64 e0       	ldi	r22, 0x04	; 4
     6de:	d6 06       	cpc	r13, r22
     6e0:	08 f0       	brcs	.+2      	; 0x6e4 <CalibrateMPU6050+0x23e>
     6e2:	77 c0       	rjmp	.+238    	; 0x7d2 <CalibrateMPU6050+0x32c>
			{
				packet_total++;
     6e4:	7f ef       	ldi	r23, 0xFF	; 255
     6e6:	c7 1a       	sub	r12, r23
     6e8:	d7 0a       	sbc	r13, r23
				accel_temp[2] = (int16_t) (((int16_t)data[4] << 8)  | data[5] ) ;
				gyro_temp[0]  = (int16_t) (((int16_t)data[6] << 8)  | data[7] ) ;
				gyro_temp[1]  = (int16_t) (((int16_t)data[8] << 8)  | data[9] ) ;
				gyro_temp[2]  = (int16_t) (((int16_t)data[10] << 8) | data[11]) ;
		
				accel_bias[0] += (int32_t) accel_temp[0]; // Sum individual signed 16-bit biases to get accumulated signed 32-bit biases
     6ea:	89 81       	ldd	r24, Y+1	; 0x01
     6ec:	90 e0       	ldi	r25, 0x00	; 0
     6ee:	98 2f       	mov	r25, r24
     6f0:	88 27       	eor	r24, r24
     6f2:	2a 81       	ldd	r18, Y+2	; 0x02
     6f4:	82 2b       	or	r24, r18
     6f6:	09 2e       	mov	r0, r25
     6f8:	00 0c       	add	r0, r0
     6fa:	aa 0b       	sbc	r26, r26
     6fc:	bb 0b       	sbc	r27, r27
     6fe:	2d 89       	ldd	r18, Y+21	; 0x15
     700:	3e 89       	ldd	r19, Y+22	; 0x16
     702:	4f 89       	ldd	r20, Y+23	; 0x17
     704:	58 8d       	ldd	r21, Y+24	; 0x18
     706:	28 0f       	add	r18, r24
     708:	39 1f       	adc	r19, r25
     70a:	4a 1f       	adc	r20, r26
     70c:	5b 1f       	adc	r21, r27
     70e:	2d 8b       	std	Y+21, r18	; 0x15
     710:	3e 8b       	std	Y+22, r19	; 0x16
     712:	4f 8b       	std	Y+23, r20	; 0x17
     714:	58 8f       	std	Y+24, r21	; 0x18
				accel_bias[1] += (int32_t) accel_temp[1];
     716:	8b 81       	ldd	r24, Y+3	; 0x03
     718:	90 e0       	ldi	r25, 0x00	; 0
     71a:	98 2f       	mov	r25, r24
     71c:	88 27       	eor	r24, r24
     71e:	2c 81       	ldd	r18, Y+4	; 0x04
     720:	82 2b       	or	r24, r18
     722:	09 2e       	mov	r0, r25
     724:	00 0c       	add	r0, r0
     726:	aa 0b       	sbc	r26, r26
     728:	bb 0b       	sbc	r27, r27
     72a:	49 89       	ldd	r20, Y+17	; 0x11
     72c:	5a 89       	ldd	r21, Y+18	; 0x12
     72e:	6b 89       	ldd	r22, Y+19	; 0x13
     730:	7c 89       	ldd	r23, Y+20	; 0x14
     732:	48 0f       	add	r20, r24
     734:	59 1f       	adc	r21, r25
     736:	6a 1f       	adc	r22, r26
     738:	7b 1f       	adc	r23, r27
     73a:	49 8b       	std	Y+17, r20	; 0x11
     73c:	5a 8b       	std	Y+18, r21	; 0x12
     73e:	6b 8b       	std	Y+19, r22	; 0x13
     740:	7c 8b       	std	Y+20, r23	; 0x14
				accel_bias[2] += (int32_t) accel_temp[2];
     742:	8d 81       	ldd	r24, Y+5	; 0x05
     744:	90 e0       	ldi	r25, 0x00	; 0
     746:	98 2f       	mov	r25, r24
     748:	88 27       	eor	r24, r24
     74a:	2e 81       	ldd	r18, Y+6	; 0x06
     74c:	82 2b       	or	r24, r18
     74e:	09 2e       	mov	r0, r25
     750:	00 0c       	add	r0, r0
     752:	aa 0b       	sbc	r26, r26
     754:	bb 0b       	sbc	r27, r27
     756:	2d 85       	ldd	r18, Y+13	; 0x0d
     758:	3e 85       	ldd	r19, Y+14	; 0x0e
     75a:	4f 85       	ldd	r20, Y+15	; 0x0f
     75c:	58 89       	ldd	r21, Y+16	; 0x10
     75e:	28 0f       	add	r18, r24
     760:	39 1f       	adc	r19, r25
     762:	4a 1f       	adc	r20, r26
     764:	5b 1f       	adc	r21, r27
     766:	2d 87       	std	Y+13, r18	; 0x0d
     768:	3e 87       	std	Y+14, r19	; 0x0e
     76a:	4f 87       	std	Y+15, r20	; 0x0f
     76c:	58 8b       	std	Y+16, r21	; 0x10
				gyro_bias[0]  += (int32_t) gyro_temp[0];
     76e:	8f 81       	ldd	r24, Y+7	; 0x07
     770:	90 e0       	ldi	r25, 0x00	; 0
     772:	98 2f       	mov	r25, r24
     774:	88 27       	eor	r24, r24
     776:	28 85       	ldd	r18, Y+8	; 0x08
     778:	82 2b       	or	r24, r18
     77a:	09 2e       	mov	r0, r25
     77c:	00 0c       	add	r0, r0
     77e:	aa 0b       	sbc	r26, r26
     780:	bb 0b       	sbc	r27, r27
     782:	49 8d       	ldd	r20, Y+25	; 0x19
     784:	5a 8d       	ldd	r21, Y+26	; 0x1a
     786:	6b 8d       	ldd	r22, Y+27	; 0x1b
     788:	7c 8d       	ldd	r23, Y+28	; 0x1c
     78a:	48 0f       	add	r20, r24
     78c:	59 1f       	adc	r21, r25
     78e:	6a 1f       	adc	r22, r26
     790:	7b 1f       	adc	r23, r27
     792:	49 8f       	std	Y+25, r20	; 0x19
     794:	5a 8f       	std	Y+26, r21	; 0x1a
     796:	6b 8f       	std	Y+27, r22	; 0x1b
     798:	7c 8f       	std	Y+28, r23	; 0x1c
				gyro_bias[1]  += (int32_t) gyro_temp[1];
     79a:	89 85       	ldd	r24, Y+9	; 0x09
     79c:	90 e0       	ldi	r25, 0x00	; 0
     79e:	98 2f       	mov	r25, r24
     7a0:	88 27       	eor	r24, r24
     7a2:	2a 85       	ldd	r18, Y+10	; 0x0a
     7a4:	82 2b       	or	r24, r18
     7a6:	09 2e       	mov	r0, r25
     7a8:	00 0c       	add	r0, r0
     7aa:	aa 0b       	sbc	r26, r26
     7ac:	bb 0b       	sbc	r27, r27
     7ae:	48 0e       	add	r4, r24
     7b0:	59 1e       	adc	r5, r25
     7b2:	6a 1e       	adc	r6, r26
     7b4:	7b 1e       	adc	r7, r27
				gyro_bias[2]  += (int32_t) gyro_temp[2];
     7b6:	8b 85       	ldd	r24, Y+11	; 0x0b
     7b8:	90 e0       	ldi	r25, 0x00	; 0
     7ba:	98 2f       	mov	r25, r24
     7bc:	88 27       	eor	r24, r24
     7be:	2c 85       	ldd	r18, Y+12	; 0x0c
     7c0:	82 2b       	or	r24, r18
     7c2:	09 2e       	mov	r0, r25
     7c4:	00 0c       	add	r0, r0
     7c6:	aa 0b       	sbc	r26, r26
     7c8:	bb 0b       	sbc	r27, r27
     7ca:	88 0e       	add	r8, r24
     7cc:	99 1e       	adc	r9, r25
     7ce:	aa 1e       	adc	r10, r26
     7d0:	bb 1e       	adc	r11, r27
		I2C_read_buf(MPU6050_ADDRESS, FIFO_COUNTH, 2, &data[0]); // read FIFO sample count
		fifo_count = ((uint16_t)data[0] << 8) | data[1];

		packet_count = fifo_count/12;// How many sets of full gyro and accelerometer data for averaging

		for (ii = 0; ii < packet_count; ii++) 
     7d2:	0f 5f       	subi	r16, 0xFF	; 255
     7d4:	1f 4f       	sbci	r17, 0xFF	; 255
     7d6:	e0 16       	cp	r14, r16
     7d8:	f1 06       	cpc	r15, r17
     7da:	09 f0       	breq	.+2      	; 0x7de <CalibrateMPU6050+0x338>
     7dc:	73 cf       	rjmp	.-282    	; 0x6c4 <CalibrateMPU6050+0x21e>
	// Configure FIFO to capture accelerometer and gyro data for bias calculation
	I2C_write_byte(MPU6050_ADDRESS, USER_CTRL, 0x40);   // Enable FIFO
	I2C_write_byte(MPU6050_ADDRESS, FIFO_EN, 0x78);     // Enable gyro and accelerometer sensors for FIFO  (max size 1024 bytes in MPU-6050)
	_delay_ms(5);

	for (jj = 0; jj < 20; jj++)	//read samples for 1 second
     7de:	5f ef       	ldi	r21, 0xFF	; 255
     7e0:	25 1a       	sub	r2, r21
     7e2:	35 0a       	sbc	r3, r21
     7e4:	64 e1       	ldi	r22, 0x14	; 20
     7e6:	26 16       	cp	r2, r22
     7e8:	31 04       	cpc	r3, r1
     7ea:	09 f0       	breq	.+2      	; 0x7ee <CalibrateMPU6050+0x348>
     7ec:	34 cf       	rjmp	.-408    	; 0x656 <CalibrateMPU6050+0x1b0>
				gyro_bias[2]  += (int32_t) gyro_temp[2];
			}
		}
	}

	accel_bias[0] /= (int32_t) packet_total; // Normalize sums to get average count biases
     7ee:	c6 01       	movw	r24, r12
     7f0:	a0 e0       	ldi	r26, 0x00	; 0
     7f2:	b0 e0       	ldi	r27, 0x00	; 0
     7f4:	8d 8f       	std	Y+29, r24	; 0x1d
     7f6:	9e 8f       	std	Y+30, r25	; 0x1e
     7f8:	af 8f       	std	Y+31, r26	; 0x1f
     7fa:	b8 a3       	std	Y+32, r27	; 0x20
     7fc:	6d 89       	ldd	r22, Y+21	; 0x15
     7fe:	7e 89       	ldd	r23, Y+22	; 0x16
     800:	8f 89       	ldd	r24, Y+23	; 0x17
     802:	98 8d       	ldd	r25, Y+24	; 0x18
     804:	2d 8d       	ldd	r18, Y+29	; 0x1d
     806:	3e 8d       	ldd	r19, Y+30	; 0x1e
     808:	4f 8d       	ldd	r20, Y+31	; 0x1f
     80a:	58 a1       	ldd	r21, Y+32	; 0x20
     80c:	0e 94 b2 09 	call	0x1364	; 0x1364 <__divmodsi4>
     810:	2d 8b       	std	Y+21, r18	; 0x15
     812:	3e 8b       	std	Y+22, r19	; 0x16
     814:	4f 8b       	std	Y+23, r20	; 0x17
     816:	58 8f       	std	Y+24, r21	; 0x18
	accel_bias[1] /= (int32_t) packet_total;
     818:	69 89       	ldd	r22, Y+17	; 0x11
     81a:	7a 89       	ldd	r23, Y+18	; 0x12
     81c:	8b 89       	ldd	r24, Y+19	; 0x13
     81e:	9c 89       	ldd	r25, Y+20	; 0x14
     820:	2d 8d       	ldd	r18, Y+29	; 0x1d
     822:	3e 8d       	ldd	r19, Y+30	; 0x1e
     824:	4f 8d       	ldd	r20, Y+31	; 0x1f
     826:	58 a1       	ldd	r21, Y+32	; 0x20
     828:	0e 94 b2 09 	call	0x1364	; 0x1364 <__divmodsi4>
     82c:	29 8b       	std	Y+17, r18	; 0x11
     82e:	3a 8b       	std	Y+18, r19	; 0x12
     830:	4b 8b       	std	Y+19, r20	; 0x13
     832:	5c 8b       	std	Y+20, r21	; 0x14
	accel_bias[2] /= (int32_t) packet_total;
     834:	6d 85       	ldd	r22, Y+13	; 0x0d
     836:	7e 85       	ldd	r23, Y+14	; 0x0e
     838:	8f 85       	ldd	r24, Y+15	; 0x0f
     83a:	98 89       	ldd	r25, Y+16	; 0x10
     83c:	2d 8d       	ldd	r18, Y+29	; 0x1d
     83e:	3e 8d       	ldd	r19, Y+30	; 0x1e
     840:	4f 8d       	ldd	r20, Y+31	; 0x1f
     842:	58 a1       	ldd	r21, Y+32	; 0x20
     844:	0e 94 b2 09 	call	0x1364	; 0x1364 <__divmodsi4>
     848:	69 01       	movw	r12, r18
     84a:	7a 01       	movw	r14, r20
	gyro_bias[0]  /= (int32_t) packet_total;
     84c:	69 8d       	ldd	r22, Y+25	; 0x19
     84e:	7a 8d       	ldd	r23, Y+26	; 0x1a
     850:	8b 8d       	ldd	r24, Y+27	; 0x1b
     852:	9c 8d       	ldd	r25, Y+28	; 0x1c
     854:	2d 8d       	ldd	r18, Y+29	; 0x1d
     856:	3e 8d       	ldd	r19, Y+30	; 0x1e
     858:	4f 8d       	ldd	r20, Y+31	; 0x1f
     85a:	58 a1       	ldd	r21, Y+32	; 0x20
     85c:	0e 94 b2 09 	call	0x1364	; 0x1364 <__divmodsi4>
     860:	2d 87       	std	Y+13, r18	; 0x0d
     862:	3e 87       	std	Y+14, r19	; 0x0e
     864:	4f 87       	std	Y+15, r20	; 0x0f
     866:	58 8b       	std	Y+16, r21	; 0x10
	gyro_bias[1]  /= (int32_t) packet_total;
     868:	c3 01       	movw	r24, r6
     86a:	b2 01       	movw	r22, r4
     86c:	2d 8d       	ldd	r18, Y+29	; 0x1d
     86e:	3e 8d       	ldd	r19, Y+30	; 0x1e
     870:	4f 8d       	ldd	r20, Y+31	; 0x1f
     872:	58 a1       	ldd	r21, Y+32	; 0x20
     874:	0e 94 b2 09 	call	0x1364	; 0x1364 <__divmodsi4>
     878:	29 01       	movw	r4, r18
     87a:	3a 01       	movw	r6, r20
	gyro_bias[2]  /= (int32_t) packet_total;
     87c:	c5 01       	movw	r24, r10
     87e:	b4 01       	movw	r22, r8
     880:	2d 8d       	ldd	r18, Y+29	; 0x1d
     882:	3e 8d       	ldd	r19, Y+30	; 0x1e
     884:	4f 8d       	ldd	r20, Y+31	; 0x1f
     886:	58 a1       	ldd	r21, Y+32	; 0x20
     888:	0e 94 b2 09 	call	0x1364	; 0x1364 <__divmodsi4>

	if(accel_bias[2] > 0L) {accel_bias[2] -= (int32_t) accelsensitivity;}  // Remove gravity from the z-axis accelerometer bias calculation
     88c:	1c 14       	cp	r1, r12
     88e:	1d 04       	cpc	r1, r13
     890:	1e 04       	cpc	r1, r14
     892:	1f 04       	cpc	r1, r15
     894:	34 f4       	brge	.+12     	; 0x8a2 <CalibrateMPU6050+0x3fc>
     896:	d7 01       	movw	r26, r14
     898:	c6 01       	movw	r24, r12
     89a:	90 54       	subi	r25, 0x40	; 64
     89c:	a1 09       	sbc	r26, r1
     89e:	b1 09       	sbc	r27, r1
     8a0:	05 c0       	rjmp	.+10     	; 0x8ac <CalibrateMPU6050+0x406>
	else {accel_bias[2] += (int32_t) accelsensitivity;}
     8a2:	d7 01       	movw	r26, r14
     8a4:	c6 01       	movw	r24, r12
     8a6:	90 5c       	subi	r25, 0xC0	; 192
     8a8:	af 4f       	sbci	r26, 0xFF	; 255
     8aa:	bf 4f       	sbci	r27, 0xFF	; 255
	
	gyro_offset[0] = (int16_t) gyro_bias[0];
     8ac:	6d 85       	ldd	r22, Y+13	; 0x0d
     8ae:	7e 85       	ldd	r23, Y+14	; 0x0e
     8b0:	e9 a1       	ldd	r30, Y+33	; 0x21
     8b2:	fa a1       	ldd	r31, Y+34	; 0x22
     8b4:	71 83       	std	Z+1, r23	; 0x01
     8b6:	60 83       	st	Z, r22
	gyro_offset[1] = (int16_t) gyro_bias[1];
     8b8:	53 82       	std	Z+3, r5	; 0x03
     8ba:	42 82       	std	Z+2, r4	; 0x02
	gyro_offset[2] = (int16_t) gyro_bias[2];
     8bc:	35 83       	std	Z+5, r19	; 0x05
     8be:	24 83       	std	Z+4, r18	; 0x04

	acc_offset[0]  = (int16_t) accel_bias[0];
     8c0:	2d 89       	ldd	r18, Y+21	; 0x15
     8c2:	3e 89       	ldd	r19, Y+22	; 0x16
     8c4:	eb a1       	ldd	r30, Y+35	; 0x23
     8c6:	fc a1       	ldd	r31, Y+36	; 0x24
     8c8:	31 83       	std	Z+1, r19	; 0x01
     8ca:	20 83       	st	Z, r18
	acc_offset[1]  = (int16_t) accel_bias[1];
     8cc:	49 89       	ldd	r20, Y+17	; 0x11
     8ce:	5a 89       	ldd	r21, Y+18	; 0x12
     8d0:	53 83       	std	Z+3, r21	; 0x03
     8d2:	42 83       	std	Z+2, r20	; 0x02
	acc_offset[2]  = (int16_t) accel_bias[2];
     8d4:	95 83       	std	Z+5, r25	; 0x05
     8d6:	84 83       	std	Z+4, r24	; 0x04
     8d8:	a4 96       	adiw	r28, 0x24	; 36
     8da:	0f b6       	in	r0, 0x3f	; 63
     8dc:	f8 94       	cli
     8de:	de bf       	out	0x3e, r29	; 62
     8e0:	0f be       	out	0x3f, r0	; 63
     8e2:	cd bf       	out	0x3d, r28	; 61
     8e4:	df 91       	pop	r29
     8e6:	cf 91       	pop	r28
     8e8:	1f 91       	pop	r17
     8ea:	0f 91       	pop	r16
     8ec:	ff 90       	pop	r15
     8ee:	ef 90       	pop	r14
     8f0:	df 90       	pop	r13
     8f2:	cf 90       	pop	r12
     8f4:	bf 90       	pop	r11
     8f6:	af 90       	pop	r10
     8f8:	9f 90       	pop	r9
     8fa:	8f 90       	pop	r8
     8fc:	7f 90       	pop	r7
     8fe:	6f 90       	pop	r6
     900:	5f 90       	pop	r5
     902:	4f 90       	pop	r4
     904:	3f 90       	pop	r3
     906:	2f 90       	pop	r2
     908:	08 95       	ret

0000090a <er_service>:
		
}

int8_t er_service(char * params)
{
	SendLine("Uart is working");
     90a:	84 e4       	ldi	r24, 0x44	; 68
     90c:	91 e0       	ldi	r25, 0x01	; 1
     90e:	0e 94 4c 07 	call	0xe98	; 0xe98 <SendLine>
	return 0;
     912:	80 e0       	ldi	r24, 0x00	; 0
     914:	08 95       	ret

00000916 <ProcessString>:
	{"ER", er_service},
};


void ProcessString(uint8_t start, uint8_t stop)
{
     916:	cf 92       	push	r12
     918:	df 92       	push	r13
     91a:	ef 92       	push	r14
     91c:	ff 92       	push	r15
     91e:	1f 93       	push	r17
     920:	cf 93       	push	r28
     922:	df 93       	push	r29
     924:	cd b7       	in	r28, 0x3d	; 61
     926:	de b7       	in	r29, 0x3e	; 62
     928:	a2 97       	sbiw	r28, 0x22	; 34
     92a:	0f b6       	in	r0, 0x3f	; 63
     92c:	f8 94       	cli
     92e:	de bf       	out	0x3e, r29	; 62
     930:	0f be       	out	0x3f, r0	; 63
     932:	cd bf       	out	0x3d, r28	; 61
     934:	fe 01       	movw	r30, r28
     936:	31 96       	adiw	r30, 0x01	; 1
     938:	9e 01       	movw	r18, r28
     93a:	2f 5d       	subi	r18, 0xDF	; 223
     93c:	3f 4f       	sbci	r19, 0xFF	; 255
	char string[RX_SIZE];
	uint8_t i;	//counter value

	for (i=0; i<RX_SIZE; i++)
	{
		string[i] = 0;
     93e:	11 92       	st	Z+, r1
	
	//	stop = (stop +1) & RX_SIZE_BIN;
	char string[RX_SIZE];
	uint8_t i;	//counter value

	for (i=0; i<RX_SIZE; i++)
     940:	2e 17       	cp	r18, r30
     942:	3f 07       	cpc	r19, r31
     944:	e1 f7       	brne	.-8      	; 0x93e <ProcessString+0x28>
	}

	i=0;

	// Assign rX string to command
	while (start!=stop)
     946:	86 17       	cp	r24, r22
     948:	99 f0       	breq	.+38     	; 0x970 <ProcessString+0x5a>
     94a:	10 e0       	ldi	r17, 0x00	; 0
	{
		string[i] = RxBuffor[start];
     94c:	a1 e0       	ldi	r26, 0x01	; 1
     94e:	b0 e0       	ldi	r27, 0x00	; 0
     950:	ac 0f       	add	r26, r28
     952:	bd 1f       	adc	r27, r29
     954:	a1 0f       	add	r26, r17
     956:	b1 1d       	adc	r27, r1
     958:	e8 2f       	mov	r30, r24
     95a:	f0 e0       	ldi	r31, 0x00	; 0
     95c:	e3 5f       	subi	r30, 0xF3	; 243
     95e:	fd 4f       	sbci	r31, 0xFD	; 253
     960:	90 81       	ld	r25, Z
     962:	9c 93       	st	X, r25
		start = (start + 1) & RX_SIZE_BIN;
     964:	8f 5f       	subi	r24, 0xFF	; 255
     966:	8f 71       	andi	r24, 0x1F	; 31
		i++;
     968:	1f 5f       	subi	r17, 0xFF	; 255
	}

	i=0;

	// Assign rX string to command
	while (start!=stop)
     96a:	68 13       	cpse	r22, r24
     96c:	ef cf       	rjmp	.-34     	; 0x94c <ProcessString+0x36>
     96e:	01 c0       	rjmp	.+2      	; 0x972 <ProcessString+0x5c>
     970:	10 e0       	ldi	r17, 0x00	; 0
	}

	char * rest;
	char * begining;

	begining = strtok_r(string, " ", &rest);
     972:	ae 01       	movw	r20, r28
     974:	4f 5d       	subi	r20, 0xDF	; 223
     976:	5f 4f       	sbci	r21, 0xFF	; 255
     978:	62 e6       	ldi	r22, 0x62	; 98
     97a:	71 e0       	ldi	r23, 0x01	; 1
     97c:	ce 01       	movw	r24, r28
     97e:	01 96       	adiw	r24, 0x01	; 1
     980:	0e 94 29 0a 	call	0x1452	; 0x1452 <strtok_r>
     984:	6c 01       	movw	r12, r24

	uint8_t j;
	uint8_t command_length;
	uint8_t string_length = strlen(begining);
     986:	fc 01       	movw	r30, r24
     988:	01 90       	ld	r0, Z+
     98a:	00 20       	and	r0, r0
     98c:	e9 f7       	brne	.-6      	; 0x988 <ProcessString+0x72>
     98e:	31 97       	sbiw	r30, 0x01	; 1
     990:	7f 01       	movw	r14, r30
     992:	e8 1a       	sub	r14, r24
     994:	f9 0a       	sbc	r15, r25
#else
extern size_t __strlen_P(const char *) __ATTR_CONST__;  /* internal helper function */
__attribute__((__always_inline__)) static __inline__ size_t strlen_P(const char * s);
static __inline__ size_t strlen_P(const char *s) {
  return __builtin_constant_p(__builtin_strlen(s))
     ? __builtin_strlen(s) : __strlen_P(s);
     996:	86 ec       	ldi	r24, 0xC6	; 198
     998:	90 e0       	ldi	r25, 0x00	; 0
     99a:	0e 94 08 0a 	call	0x1410	; 0x1410 <__strlen_P>
	for (j=0; j < RX_COMMANDS; j++)
	{
		command_length = strlen_P(ER_commands[j].command);
		
		if (command_length == string_length)
     99e:	8e 11       	cpse	r24, r14
     9a0:	12 c0       	rjmp	.+36     	; 0x9c6 <ProcessString+0xb0>
		{
			if (0 == strncasecmp_P(begining, ER_commands[j].command, i))
     9a2:	41 2f       	mov	r20, r17
     9a4:	50 e0       	ldi	r21, 0x00	; 0
     9a6:	66 ec       	ldi	r22, 0xC6	; 198
     9a8:	70 e0       	ldi	r23, 0x00	; 0
     9aa:	c6 01       	movw	r24, r12
     9ac:	0e 94 11 0a 	call	0x1422	; 0x1422 <strncasecmp_P>
     9b0:	89 2b       	or	r24, r25
     9b2:	49 f4       	brne	.+18     	; 0x9c6 <ProcessString+0xb0>
			{
				_er_srv = (void *)pgm_read_word(&ER_commands[j].ER_service);
     9b4:	ea ed       	ldi	r30, 0xDA	; 218
     9b6:	f0 e0       	ldi	r31, 0x00	; 0
     9b8:	25 91       	lpm	r18, Z+
     9ba:	34 91       	lpm	r19, Z
				_er_srv(rest);
     9bc:	89 a1       	ldd	r24, Y+33	; 0x21
     9be:	9a a1       	ldd	r25, Y+34	; 0x22
     9c0:	f9 01       	movw	r30, r18
     9c2:	09 95       	icall
		SendString("Wrong command: ");
		SendString(string);
		SendEnter();
	}
		
}
     9c4:	0a c0       	rjmp	.+20     	; 0x9da <ProcessString+0xc4>
			}
		}
	}
	if (j==RX_COMMANDS)
	{
		SendString("Wrong command: ");
     9c6:	84 e5       	ldi	r24, 0x54	; 84
     9c8:	91 e0       	ldi	r25, 0x01	; 1
     9ca:	0e 94 2f 07 	call	0xe5e	; 0xe5e <SendString>
		SendString(string);
     9ce:	ce 01       	movw	r24, r28
     9d0:	01 96       	adiw	r24, 0x01	; 1
     9d2:	0e 94 2f 07 	call	0xe5e	; 0xe5e <SendString>
		SendEnter();
     9d6:	0e 94 45 07 	call	0xe8a	; 0xe8a <SendEnter>
	}
		
}
     9da:	a2 96       	adiw	r28, 0x22	; 34
     9dc:	0f b6       	in	r0, 0x3f	; 63
     9de:	f8 94       	cli
     9e0:	de bf       	out	0x3e, r29	; 62
     9e2:	0f be       	out	0x3f, r0	; 63
     9e4:	cd bf       	out	0x3d, r28	; 61
     9e6:	df 91       	pop	r29
     9e8:	cf 91       	pop	r28
     9ea:	1f 91       	pop	r17
     9ec:	ff 90       	pop	r15
     9ee:	ef 90       	pop	r14
     9f0:	df 90       	pop	r13
     9f2:	cf 90       	pop	r12
     9f4:	08 95       	ret

000009f6 <__vector_24>:
void TWI_read(uint8_t ack) {
	TWCR0 = (1<<TWINT)|(ack<<TWEA)|(1<<TWEN)|(1<<TWIE);
}

ISR (TWI0_vect)	//TWI finished vector
{	//TWI interrupt
     9f6:	1f 92       	push	r1
     9f8:	0f 92       	push	r0
     9fa:	0f b6       	in	r0, 0x3f	; 63
     9fc:	0f 92       	push	r0
     9fe:	11 24       	eor	r1, r1
     a00:	2f 93       	push	r18
     a02:	3f 93       	push	r19
     a04:	4f 93       	push	r20
     a06:	5f 93       	push	r21
     a08:	8f 93       	push	r24
     a0a:	9f 93       	push	r25
     a0c:	af 93       	push	r26
     a0e:	bf 93       	push	r27
     a10:	ef 93       	push	r30
     a12:	ff 93       	push	r31

	uint8_t SLA = ((uint8_t)twi_bufor[twi_buf_pos.tail].sla << 1);
     a14:	e0 91 6c 01 	lds	r30, 0x016C	; 0x80016c <twi_buf_pos>
     a18:	e6 95       	lsr	r30
     a1a:	e6 95       	lsr	r30
     a1c:	e6 95       	lsr	r30
     a1e:	e7 70       	andi	r30, 0x07	; 7
     a20:	4e 2f       	mov	r20, r30
     a22:	50 e0       	ldi	r21, 0x00	; 0
     a24:	84 e1       	ldi	r24, 0x14	; 20
     a26:	e8 9f       	mul	r30, r24
     a28:	f0 01       	movw	r30, r0
     a2a:	11 24       	eor	r1, r1
     a2c:	e3 59       	subi	r30, 0x93	; 147
     a2e:	fe 4f       	sbci	r31, 0xFE	; 254
     a30:	80 81       	ld	r24, Z
     a32:	28 2f       	mov	r18, r24
     a34:	2e 7f       	andi	r18, 0xFE	; 254
	uint8_t REG = twi_bufor[twi_buf_pos.tail].reg;
	
	switch (twi_bufor[twi_buf_pos.tail].status){
     a36:	e3 89       	ldd	r30, Z+19	; 0x13
     a38:	8e 2f       	mov	r24, r30
     a3a:	90 e0       	ldi	r25, 0x00	; 0
     a3c:	fc 01       	movw	r30, r24
     a3e:	34 97       	sbiw	r30, 0x04	; 4
     a40:	e9 30       	cpi	r30, 0x09	; 9
     a42:	f1 05       	cpc	r31, r1
     a44:	08 f0       	brcs	.+2      	; 0xa48 <__vector_24+0x52>
     a46:	e4 c1       	rjmp	.+968    	; 0xe10 <__vector_24+0x41a>
     a48:	e6 5a       	subi	r30, 0xA6	; 166
     a4a:	ff 4f       	sbci	r31, 0xFF	; 255
     a4c:	0c 94 d1 09 	jmp	0x13a2	; 0x13a2 <__tablejump2__>
void TWI_stop(void) {
	TWCR0 = (1<<TWINT)|(1<<TWEN)|(1<<TWSTO)|(1<<TWIE);
}

void TWI_write(uint8_t bajt) {
	TWDR0 = bajt;
     a50:	20 93 bb 00 	sts	0x00BB, r18	; 0x8000bb <__TEXT_REGION_LENGTH__+0x7e00bb>
	TWCR0 = (1<<TWINT)|(1<<TWEN)|(1<<TWIE);
     a54:	85 e8       	ldi	r24, 0x85	; 133
     a56:	80 93 bc 00 	sts	0x00BC, r24	; 0x8000bc <__TEXT_REGION_LENGTH__+0x7e00bc>
	uint8_t REG = twi_bufor[twi_buf_pos.tail].reg;
	
	switch (twi_bufor[twi_buf_pos.tail].status){
		case start:
			TWI_write(SLA);
			twi_bufor[twi_buf_pos.tail].status = write_adress;
     a5a:	e0 91 6c 01 	lds	r30, 0x016C	; 0x80016c <twi_buf_pos>
     a5e:	e6 95       	lsr	r30
     a60:	e6 95       	lsr	r30
     a62:	e6 95       	lsr	r30
     a64:	e7 70       	andi	r30, 0x07	; 7
     a66:	84 e1       	ldi	r24, 0x14	; 20
     a68:	e8 9f       	mul	r30, r24
     a6a:	f0 01       	movw	r30, r0
     a6c:	11 24       	eor	r1, r1
     a6e:	e3 59       	subi	r30, 0x93	; 147
     a70:	fe 4f       	sbci	r31, 0xFE	; 254
     a72:	85 e0       	ldi	r24, 0x05	; 5
     a74:	83 8b       	std	Z+19, r24	; 0x13
			break;
     a76:	cc c1       	rjmp	.+920    	; 0xe10 <__vector_24+0x41a>

ISR (TWI0_vect)	//TWI finished vector
{	//TWI interrupt

	uint8_t SLA = ((uint8_t)twi_bufor[twi_buf_pos.tail].sla << 1);
	uint8_t REG = twi_bufor[twi_buf_pos.tail].reg;
     a78:	84 e1       	ldi	r24, 0x14	; 20
     a7a:	84 9f       	mul	r24, r20
     a7c:	f0 01       	movw	r30, r0
     a7e:	85 9f       	mul	r24, r21
     a80:	f0 0d       	add	r31, r0
     a82:	11 24       	eor	r1, r1
     a84:	e3 59       	subi	r30, 0x93	; 147
     a86:	fe 4f       	sbci	r31, 0xFE	; 254
     a88:	91 81       	ldd	r25, Z+1	; 0x01
void TWI_stop(void) {
	TWCR0 = (1<<TWINT)|(1<<TWEN)|(1<<TWSTO)|(1<<TWIE);
}

void TWI_write(uint8_t bajt) {
	TWDR0 = bajt;
     a8a:	90 93 bb 00 	sts	0x00BB, r25	; 0x8000bb <__TEXT_REGION_LENGTH__+0x7e00bb>
	TWCR0 = (1<<TWINT)|(1<<TWEN)|(1<<TWIE);
     a8e:	95 e8       	ldi	r25, 0x85	; 133
     a90:	90 93 bc 00 	sts	0x00BC, r25	; 0x8000bc <__TEXT_REGION_LENGTH__+0x7e00bc>
			twi_bufor[twi_buf_pos.tail].status = write_adress;
			break;

		case write_adress:
			TWI_write(REG);
			twi_bufor[twi_buf_pos.tail].status = write_register;
     a94:	e0 91 6c 01 	lds	r30, 0x016C	; 0x80016c <twi_buf_pos>
     a98:	e6 95       	lsr	r30
     a9a:	e6 95       	lsr	r30
     a9c:	e6 95       	lsr	r30
     a9e:	e7 70       	andi	r30, 0x07	; 7
     aa0:	8e 9f       	mul	r24, r30
     aa2:	f0 01       	movw	r30, r0
     aa4:	11 24       	eor	r1, r1
     aa6:	e3 59       	subi	r30, 0x93	; 147
     aa8:	fe 4f       	sbci	r31, 0xFE	; 254
     aaa:	86 e0       	ldi	r24, 0x06	; 6
     aac:	83 8b       	std	Z+19, r24	; 0x13
			break;
     aae:	b0 c1       	rjmp	.+864    	; 0xe10 <__vector_24+0x41a>

		case write_register:
			if (twi_bufor[twi_buf_pos.tail].read)	//check if reading is required
     ab0:	84 e1       	ldi	r24, 0x14	; 20
     ab2:	84 9f       	mul	r24, r20
     ab4:	f0 01       	movw	r30, r0
     ab6:	85 9f       	mul	r24, r21
     ab8:	f0 0d       	add	r31, r0
     aba:	11 24       	eor	r1, r1
     abc:	e3 59       	subi	r30, 0x93	; 147
     abe:	fe 4f       	sbci	r31, 0xFE	; 254
     ac0:	80 81       	ld	r24, Z
     ac2:	80 ff       	sbrs	r24, 0
     ac4:	12 c0       	rjmp	.+36     	; 0xaea <__vector_24+0xf4>
}

//low level functions

void TWI_start(void) {
	TWCR0 = (1<<TWINT)|(1<<TWEN)|(1<<TWSTA)|(1<<TWIE);
     ac6:	85 ea       	ldi	r24, 0xA5	; 165
     ac8:	80 93 bc 00 	sts	0x00BC, r24	; 0x8000bc <__TEXT_REGION_LENGTH__+0x7e00bc>

		case write_register:
			if (twi_bufor[twi_buf_pos.tail].read)	//check if reading is required
			{
				TWI_start();
				twi_bufor[twi_buf_pos.tail].status = restart;
     acc:	e0 91 6c 01 	lds	r30, 0x016C	; 0x80016c <twi_buf_pos>
     ad0:	e6 95       	lsr	r30
     ad2:	e6 95       	lsr	r30
     ad4:	e6 95       	lsr	r30
     ad6:	e7 70       	andi	r30, 0x07	; 7
     ad8:	84 e1       	ldi	r24, 0x14	; 20
     ada:	e8 9f       	mul	r30, r24
     adc:	f0 01       	movw	r30, r0
     ade:	11 24       	eor	r1, r1
     ae0:	e3 59       	subi	r30, 0x93	; 147
     ae2:	fe 4f       	sbci	r31, 0xFE	; 254
     ae4:	87 e0       	ldi	r24, 0x07	; 7
     ae6:	83 8b       	std	Z+19, r24	; 0x13
     ae8:	93 c1       	rjmp	.+806    	; 0xe10 <__vector_24+0x41a>
			}
			else	//process writing
			{
				if (twi_bufor[twi_buf_pos.tail].lenght > 1){	//if more than 1 char to write
     aea:	84 e1       	ldi	r24, 0x14	; 20
     aec:	84 9f       	mul	r24, r20
     aee:	f0 01       	movw	r30, r0
     af0:	85 9f       	mul	r24, r21
     af2:	f0 0d       	add	r31, r0
     af4:	11 24       	eor	r1, r1
     af6:	e3 59       	subi	r30, 0x93	; 147
     af8:	fe 4f       	sbci	r31, 0xFE	; 254
     afa:	87 85       	ldd	r24, Z+15	; 0x0f
     afc:	82 30       	cpi	r24, 0x02	; 2
     afe:	e8 f0       	brcs	.+58     	; 0xb3a <__vector_24+0x144>
					TWI_write(twi_bufor[twi_buf_pos.tail].bufor[0]);
     b00:	84 e1       	ldi	r24, 0x14	; 20
     b02:	84 9f       	mul	r24, r20
     b04:	f0 01       	movw	r30, r0
     b06:	85 9f       	mul	r24, r21
     b08:	f0 0d       	add	r31, r0
     b0a:	11 24       	eor	r1, r1
     b0c:	e3 59       	subi	r30, 0x93	; 147
     b0e:	fe 4f       	sbci	r31, 0xFE	; 254
     b10:	92 81       	ldd	r25, Z+2	; 0x02
void TWI_stop(void) {
	TWCR0 = (1<<TWINT)|(1<<TWEN)|(1<<TWSTO)|(1<<TWIE);
}

void TWI_write(uint8_t bajt) {
	TWDR0 = bajt;
     b12:	90 93 bb 00 	sts	0x00BB, r25	; 0x8000bb <__TEXT_REGION_LENGTH__+0x7e00bb>
	TWCR0 = (1<<TWINT)|(1<<TWEN)|(1<<TWIE);
     b16:	95 e8       	ldi	r25, 0x85	; 133
     b18:	90 93 bc 00 	sts	0x00BC, r25	; 0x8000bc <__TEXT_REGION_LENGTH__+0x7e00bc>
			}
			else	//process writing
			{
				if (twi_bufor[twi_buf_pos.tail].lenght > 1){	//if more than 1 char to write
					TWI_write(twi_bufor[twi_buf_pos.tail].bufor[0]);
					twi_bufor[twi_buf_pos.tail].status = write;
     b1c:	e0 91 6c 01 	lds	r30, 0x016C	; 0x80016c <twi_buf_pos>
     b20:	e6 95       	lsr	r30
     b22:	e6 95       	lsr	r30
     b24:	e6 95       	lsr	r30
     b26:	e7 70       	andi	r30, 0x07	; 7
     b28:	8e 9f       	mul	r24, r30
     b2a:	f0 01       	movw	r30, r0
     b2c:	11 24       	eor	r1, r1
     b2e:	e3 59       	subi	r30, 0x93	; 147
     b30:	fe 4f       	sbci	r31, 0xFE	; 254
     b32:	8b e0       	ldi	r24, 0x0B	; 11
     b34:	83 8b       	std	Z+19, r24	; 0x13
					twi_bufor[twi_buf_pos.tail].buf_pos = 0;
     b36:	14 86       	std	Z+12, r1	; 0x0c
     b38:	1b c0       	rjmp	.+54     	; 0xb70 <__vector_24+0x17a>
				}

				else {	//only 1 byte to send
					TWI_write(twi_bufor[twi_buf_pos.tail].bufor[0]);
     b3a:	84 e1       	ldi	r24, 0x14	; 20
     b3c:	84 9f       	mul	r24, r20
     b3e:	f0 01       	movw	r30, r0
     b40:	85 9f       	mul	r24, r21
     b42:	f0 0d       	add	r31, r0
     b44:	11 24       	eor	r1, r1
     b46:	e3 59       	subi	r30, 0x93	; 147
     b48:	fe 4f       	sbci	r31, 0xFE	; 254
     b4a:	92 81       	ldd	r25, Z+2	; 0x02
void TWI_stop(void) {
	TWCR0 = (1<<TWINT)|(1<<TWEN)|(1<<TWSTO)|(1<<TWIE);
}

void TWI_write(uint8_t bajt) {
	TWDR0 = bajt;
     b4c:	90 93 bb 00 	sts	0x00BB, r25	; 0x8000bb <__TEXT_REGION_LENGTH__+0x7e00bb>
	TWCR0 = (1<<TWINT)|(1<<TWEN)|(1<<TWIE);
     b50:	95 e8       	ldi	r25, 0x85	; 133
     b52:	90 93 bc 00 	sts	0x00BC, r25	; 0x8000bc <__TEXT_REGION_LENGTH__+0x7e00bc>
					twi_bufor[twi_buf_pos.tail].buf_pos = 0;
				}

				else {	//only 1 byte to send
					TWI_write(twi_bufor[twi_buf_pos.tail].bufor[0]);
					twi_bufor[twi_buf_pos.tail].status = last_byte_write;
     b56:	e0 91 6c 01 	lds	r30, 0x016C	; 0x80016c <twi_buf_pos>
     b5a:	e6 95       	lsr	r30
     b5c:	e6 95       	lsr	r30
     b5e:	e6 95       	lsr	r30
     b60:	e7 70       	andi	r30, 0x07	; 7
     b62:	8e 9f       	mul	r24, r30
     b64:	f0 01       	movw	r30, r0
     b66:	11 24       	eor	r1, r1
     b68:	e3 59       	subi	r30, 0x93	; 147
     b6a:	fe 4f       	sbci	r31, 0xFE	; 254
     b6c:	8c e0       	ldi	r24, 0x0C	; 12
     b6e:	83 8b       	std	Z+19, r24	; 0x13
				}
				twi_bufor[twi_buf_pos.tail].lenght --;
     b70:	e0 91 6c 01 	lds	r30, 0x016C	; 0x80016c <twi_buf_pos>
     b74:	e6 95       	lsr	r30
     b76:	e6 95       	lsr	r30
     b78:	e6 95       	lsr	r30
     b7a:	e7 70       	andi	r30, 0x07	; 7
     b7c:	84 e1       	ldi	r24, 0x14	; 20
     b7e:	e8 9f       	mul	r30, r24
     b80:	f0 01       	movw	r30, r0
     b82:	11 24       	eor	r1, r1
     b84:	e3 59       	subi	r30, 0x93	; 147
     b86:	fe 4f       	sbci	r31, 0xFE	; 254
     b88:	87 85       	ldd	r24, Z+15	; 0x0f
     b8a:	81 50       	subi	r24, 0x01	; 1
     b8c:	87 87       	std	Z+15, r24	; 0x0f
     b8e:	40 c1       	rjmp	.+640    	; 0xe10 <__vector_24+0x41a>
			}
			break;

		case restart:
			SLA++;
     b90:	81 e0       	ldi	r24, 0x01	; 1
     b92:	82 0f       	add	r24, r18
void TWI_stop(void) {
	TWCR0 = (1<<TWINT)|(1<<TWEN)|(1<<TWSTO)|(1<<TWIE);
}

void TWI_write(uint8_t bajt) {
	TWDR0 = bajt;
     b94:	80 93 bb 00 	sts	0x00BB, r24	; 0x8000bb <__TEXT_REGION_LENGTH__+0x7e00bb>
	TWCR0 = (1<<TWINT)|(1<<TWEN)|(1<<TWIE);
     b98:	85 e8       	ldi	r24, 0x85	; 133
     b9a:	80 93 bc 00 	sts	0x00BC, r24	; 0x8000bc <__TEXT_REGION_LENGTH__+0x7e00bc>
			break;

		case restart:
			SLA++;
			TWI_write(SLA);
			twi_bufor[twi_buf_pos.tail].status = set_to_read;
     b9e:	e0 91 6c 01 	lds	r30, 0x016C	; 0x80016c <twi_buf_pos>
     ba2:	e6 95       	lsr	r30
     ba4:	e6 95       	lsr	r30
     ba6:	e6 95       	lsr	r30
     ba8:	e7 70       	andi	r30, 0x07	; 7
     baa:	84 e1       	ldi	r24, 0x14	; 20
     bac:	e8 9f       	mul	r30, r24
     bae:	f0 01       	movw	r30, r0
     bb0:	11 24       	eor	r1, r1
     bb2:	e3 59       	subi	r30, 0x93	; 147
     bb4:	fe 4f       	sbci	r31, 0xFE	; 254
     bb6:	88 e0       	ldi	r24, 0x08	; 8
     bb8:	83 8b       	std	Z+19, r24	; 0x13
			break;
     bba:	2a c1       	rjmp	.+596    	; 0xe10 <__vector_24+0x41a>

		case set_to_read:
			if (twi_bufor[twi_buf_pos.tail].lenght > 1){
     bbc:	84 e1       	ldi	r24, 0x14	; 20
     bbe:	84 9f       	mul	r24, r20
     bc0:	f0 01       	movw	r30, r0
     bc2:	85 9f       	mul	r24, r21
     bc4:	f0 0d       	add	r31, r0
     bc6:	11 24       	eor	r1, r1
     bc8:	e3 59       	subi	r30, 0x93	; 147
     bca:	fe 4f       	sbci	r31, 0xFE	; 254
     bcc:	87 85       	ldd	r24, Z+15	; 0x0f
     bce:	82 30       	cpi	r24, 0x02	; 2
     bd0:	90 f0       	brcs	.+36     	; 0xbf6 <__vector_24+0x200>
	TWDR0 = bajt;
	TWCR0 = (1<<TWINT)|(1<<TWEN)|(1<<TWIE);
}

void TWI_read(uint8_t ack) {
	TWCR0 = (1<<TWINT)|(ack<<TWEA)|(1<<TWEN)|(1<<TWIE);
     bd2:	85 ec       	ldi	r24, 0xC5	; 197
     bd4:	80 93 bc 00 	sts	0x00BC, r24	; 0x8000bc <__TEXT_REGION_LENGTH__+0x7e00bc>
			break;

		case set_to_read:
			if (twi_bufor[twi_buf_pos.tail].lenght > 1){
				TWI_read(ACK);
				twi_bufor[twi_buf_pos.tail].status = read;
     bd8:	e0 91 6c 01 	lds	r30, 0x016C	; 0x80016c <twi_buf_pos>
     bdc:	e6 95       	lsr	r30
     bde:	e6 95       	lsr	r30
     be0:	e6 95       	lsr	r30
     be2:	e7 70       	andi	r30, 0x07	; 7
     be4:	84 e1       	ldi	r24, 0x14	; 20
     be6:	e8 9f       	mul	r30, r24
     be8:	f0 01       	movw	r30, r0
     bea:	11 24       	eor	r1, r1
     bec:	e3 59       	subi	r30, 0x93	; 147
     bee:	fe 4f       	sbci	r31, 0xFE	; 254
     bf0:	89 e0       	ldi	r24, 0x09	; 9
     bf2:	83 8b       	std	Z+19, r24	; 0x13
     bf4:	11 c0       	rjmp	.+34     	; 0xc18 <__vector_24+0x222>
	TWDR0 = bajt;
	TWCR0 = (1<<TWINT)|(1<<TWEN)|(1<<TWIE);
}

void TWI_read(uint8_t ack) {
	TWCR0 = (1<<TWINT)|(ack<<TWEA)|(1<<TWEN)|(1<<TWIE);
     bf6:	85 e8       	ldi	r24, 0x85	; 133
     bf8:	80 93 bc 00 	sts	0x00BC, r24	; 0x8000bc <__TEXT_REGION_LENGTH__+0x7e00bc>

			}
			
			else{
				TWI_read(NACK);
				twi_bufor[twi_buf_pos.tail].status = stop_reading;
     bfc:	e0 91 6c 01 	lds	r30, 0x016C	; 0x80016c <twi_buf_pos>
     c00:	e6 95       	lsr	r30
     c02:	e6 95       	lsr	r30
     c04:	e6 95       	lsr	r30
     c06:	e7 70       	andi	r30, 0x07	; 7
     c08:	84 e1       	ldi	r24, 0x14	; 20
     c0a:	e8 9f       	mul	r30, r24
     c0c:	f0 01       	movw	r30, r0
     c0e:	11 24       	eor	r1, r1
     c10:	e3 59       	subi	r30, 0x93	; 147
     c12:	fe 4f       	sbci	r31, 0xFE	; 254
     c14:	8a e0       	ldi	r24, 0x0A	; 10
     c16:	83 8b       	std	Z+19, r24	; 0x13
			}

			twi_bufor[twi_buf_pos.tail].lenght --;
     c18:	e0 91 6c 01 	lds	r30, 0x016C	; 0x80016c <twi_buf_pos>
     c1c:	e6 95       	lsr	r30
     c1e:	e6 95       	lsr	r30
     c20:	e6 95       	lsr	r30
     c22:	e7 70       	andi	r30, 0x07	; 7
     c24:	84 e1       	ldi	r24, 0x14	; 20
     c26:	e8 9f       	mul	r30, r24
     c28:	f0 01       	movw	r30, r0
     c2a:	11 24       	eor	r1, r1
     c2c:	e3 59       	subi	r30, 0x93	; 147
     c2e:	fe 4f       	sbci	r31, 0xFE	; 254
     c30:	87 85       	ldd	r24, Z+15	; 0x0f
     c32:	81 50       	subi	r24, 0x01	; 1
     c34:	87 87       	std	Z+15, r24	; 0x0f
			break;
     c36:	ec c0       	rjmp	.+472    	; 0xe10 <__vector_24+0x41a>

		case read:
			*twi_bufor[twi_buf_pos.tail].bufor_ref++ = TWDR0;	//read received byte
     c38:	84 e1       	ldi	r24, 0x14	; 20
     c3a:	84 9f       	mul	r24, r20
     c3c:	f0 01       	movw	r30, r0
     c3e:	85 9f       	mul	r24, r21
     c40:	f0 0d       	add	r31, r0
     c42:	11 24       	eor	r1, r1
     c44:	e3 59       	subi	r30, 0x93	; 147
     c46:	fe 4f       	sbci	r31, 0xFE	; 254
     c48:	a5 85       	ldd	r26, Z+13	; 0x0d
     c4a:	b6 85       	ldd	r27, Z+14	; 0x0e
     c4c:	9d 01       	movw	r18, r26
     c4e:	2f 5f       	subi	r18, 0xFF	; 255
     c50:	3f 4f       	sbci	r19, 0xFF	; 255
     c52:	36 87       	std	Z+14, r19	; 0x0e
     c54:	25 87       	std	Z+13, r18	; 0x0d
     c56:	90 91 bb 00 	lds	r25, 0x00BB	; 0x8000bb <__TEXT_REGION_LENGTH__+0x7e00bb>
     c5a:	9c 93       	st	X, r25
			if (twi_bufor[twi_buf_pos.tail].lenght > 1){
     c5c:	e0 91 6c 01 	lds	r30, 0x016C	; 0x80016c <twi_buf_pos>
     c60:	e6 95       	lsr	r30
     c62:	e6 95       	lsr	r30
     c64:	e6 95       	lsr	r30
     c66:	e7 70       	andi	r30, 0x07	; 7
     c68:	8e 9f       	mul	r24, r30
     c6a:	f0 01       	movw	r30, r0
     c6c:	11 24       	eor	r1, r1
     c6e:	e3 59       	subi	r30, 0x93	; 147
     c70:	fe 4f       	sbci	r31, 0xFE	; 254
     c72:	87 85       	ldd	r24, Z+15	; 0x0f
     c74:	82 30       	cpi	r24, 0x02	; 2
     c76:	90 f0       	brcs	.+36     	; 0xc9c <__vector_24+0x2a6>
	TWDR0 = bajt;
	TWCR0 = (1<<TWINT)|(1<<TWEN)|(1<<TWIE);
}

void TWI_read(uint8_t ack) {
	TWCR0 = (1<<TWINT)|(ack<<TWEA)|(1<<TWEN)|(1<<TWIE);
     c78:	85 ec       	ldi	r24, 0xC5	; 197
     c7a:	80 93 bc 00 	sts	0x00BC, r24	; 0x8000bc <__TEXT_REGION_LENGTH__+0x7e00bc>

		case read:
			*twi_bufor[twi_buf_pos.tail].bufor_ref++ = TWDR0;	//read received byte
			if (twi_bufor[twi_buf_pos.tail].lenght > 1){
				TWI_read(ACK);	//going to read more
				twi_bufor[twi_buf_pos.tail].status = read;
     c7e:	e0 91 6c 01 	lds	r30, 0x016C	; 0x80016c <twi_buf_pos>
     c82:	e6 95       	lsr	r30
     c84:	e6 95       	lsr	r30
     c86:	e6 95       	lsr	r30
     c88:	e7 70       	andi	r30, 0x07	; 7
     c8a:	84 e1       	ldi	r24, 0x14	; 20
     c8c:	e8 9f       	mul	r30, r24
     c8e:	f0 01       	movw	r30, r0
     c90:	11 24       	eor	r1, r1
     c92:	e3 59       	subi	r30, 0x93	; 147
     c94:	fe 4f       	sbci	r31, 0xFE	; 254
     c96:	89 e0       	ldi	r24, 0x09	; 9
     c98:	83 8b       	std	Z+19, r24	; 0x13
     c9a:	11 c0       	rjmp	.+34     	; 0xcbe <__vector_24+0x2c8>
	TWDR0 = bajt;
	TWCR0 = (1<<TWINT)|(1<<TWEN)|(1<<TWIE);
}

void TWI_read(uint8_t ack) {
	TWCR0 = (1<<TWINT)|(ack<<TWEA)|(1<<TWEN)|(1<<TWIE);
     c9c:	85 e8       	ldi	r24, 0x85	; 133
     c9e:	80 93 bc 00 	sts	0x00BC, r24	; 0x8000bc <__TEXT_REGION_LENGTH__+0x7e00bc>
				TWI_read(ACK);	//going to read more
				twi_bufor[twi_buf_pos.tail].status = read;
			}
			else{
				TWI_read(NACK);	//finishing reading
				twi_bufor[twi_buf_pos.tail].status = stop_reading;
     ca2:	e0 91 6c 01 	lds	r30, 0x016C	; 0x80016c <twi_buf_pos>
     ca6:	e6 95       	lsr	r30
     ca8:	e6 95       	lsr	r30
     caa:	e6 95       	lsr	r30
     cac:	e7 70       	andi	r30, 0x07	; 7
     cae:	84 e1       	ldi	r24, 0x14	; 20
     cb0:	e8 9f       	mul	r30, r24
     cb2:	f0 01       	movw	r30, r0
     cb4:	11 24       	eor	r1, r1
     cb6:	e3 59       	subi	r30, 0x93	; 147
     cb8:	fe 4f       	sbci	r31, 0xFE	; 254
     cba:	8a e0       	ldi	r24, 0x0A	; 10
     cbc:	83 8b       	std	Z+19, r24	; 0x13
			}
			twi_bufor[twi_buf_pos.tail].lenght --;
     cbe:	e0 91 6c 01 	lds	r30, 0x016C	; 0x80016c <twi_buf_pos>
     cc2:	e6 95       	lsr	r30
     cc4:	e6 95       	lsr	r30
     cc6:	e6 95       	lsr	r30
     cc8:	e7 70       	andi	r30, 0x07	; 7
     cca:	84 e1       	ldi	r24, 0x14	; 20
     ccc:	e8 9f       	mul	r30, r24
     cce:	f0 01       	movw	r30, r0
     cd0:	11 24       	eor	r1, r1
     cd2:	e3 59       	subi	r30, 0x93	; 147
     cd4:	fe 4f       	sbci	r31, 0xFE	; 254
     cd6:	87 85       	ldd	r24, Z+15	; 0x0f
     cd8:	81 50       	subi	r24, 0x01	; 1
     cda:	87 87       	std	Z+15, r24	; 0x0f
			break;
     cdc:	99 c0       	rjmp	.+306    	; 0xe10 <__vector_24+0x41a>

		case stop_reading:
			*twi_bufor[twi_buf_pos.tail].bufor_ref++ = TWDR0;	//read last received byte
     cde:	84 e1       	ldi	r24, 0x14	; 20
     ce0:	84 9f       	mul	r24, r20
     ce2:	f0 01       	movw	r30, r0
     ce4:	85 9f       	mul	r24, r21
     ce6:	f0 0d       	add	r31, r0
     ce8:	11 24       	eor	r1, r1
     cea:	e3 59       	subi	r30, 0x93	; 147
     cec:	fe 4f       	sbci	r31, 0xFE	; 254
     cee:	a5 85       	ldd	r26, Z+13	; 0x0d
     cf0:	b6 85       	ldd	r27, Z+14	; 0x0e
     cf2:	9d 01       	movw	r18, r26
     cf4:	2f 5f       	subi	r18, 0xFF	; 255
     cf6:	3f 4f       	sbci	r19, 0xFF	; 255
     cf8:	36 87       	std	Z+14, r19	; 0x0e
     cfa:	25 87       	std	Z+13, r18	; 0x0d
     cfc:	90 91 bb 00 	lds	r25, 0x00BB	; 0x8000bb <__TEXT_REGION_LENGTH__+0x7e00bb>
     d00:	9c 93       	st	X, r25
			*twi_bufor[twi_buf_pos.tail].flag_register = twi_bufor[twi_buf_pos.tail].flag_mask;	//set read done flag
     d02:	e0 91 6c 01 	lds	r30, 0x016C	; 0x80016c <twi_buf_pos>
     d06:	e6 95       	lsr	r30
     d08:	e6 95       	lsr	r30
     d0a:	e6 95       	lsr	r30
     d0c:	e7 70       	andi	r30, 0x07	; 7
     d0e:	8e 9f       	mul	r24, r30
     d10:	f0 01       	movw	r30, r0
     d12:	11 24       	eor	r1, r1
     d14:	e3 59       	subi	r30, 0x93	; 147
     d16:	fe 4f       	sbci	r31, 0xFE	; 254
     d18:	a0 89       	ldd	r26, Z+16	; 0x10
     d1a:	b1 89       	ldd	r27, Z+17	; 0x11
     d1c:	92 89       	ldd	r25, Z+18	; 0x12
     d1e:	9c 93       	st	X, r25
void TWI_start(void) {
	TWCR0 = (1<<TWINT)|(1<<TWEN)|(1<<TWSTA)|(1<<TWIE);
}

void TWI_stop(void) {
	TWCR0 = (1<<TWINT)|(1<<TWEN)|(1<<TWSTO)|(1<<TWIE);
     d20:	95 e9       	ldi	r25, 0x95	; 149
     d22:	90 93 bc 00 	sts	0x00BC, r25	; 0x8000bc <__TEXT_REGION_LENGTH__+0x7e00bc>

		case stop_reading:
			*twi_bufor[twi_buf_pos.tail].bufor_ref++ = TWDR0;	//read last received byte
			*twi_bufor[twi_buf_pos.tail].flag_register = twi_bufor[twi_buf_pos.tail].flag_mask;	//set read done flag
			TWI_stop();
			twi_bufor[twi_buf_pos.tail].status = done;
     d26:	e0 91 6c 01 	lds	r30, 0x016C	; 0x80016c <twi_buf_pos>
     d2a:	e6 95       	lsr	r30
     d2c:	e6 95       	lsr	r30
     d2e:	e6 95       	lsr	r30
     d30:	e7 70       	andi	r30, 0x07	; 7
     d32:	8e 9f       	mul	r24, r30
     d34:	f0 01       	movw	r30, r0
     d36:	11 24       	eor	r1, r1
     d38:	e3 59       	subi	r30, 0x93	; 147
     d3a:	fe 4f       	sbci	r31, 0xFE	; 254
     d3c:	81 e0       	ldi	r24, 0x01	; 1
     d3e:	83 8b       	std	Z+19, r24	; 0x13
			break;
     d40:	67 c0       	rjmp	.+206    	; 0xe10 <__vector_24+0x41a>

		case write:
			if (twi_bufor[twi_buf_pos.tail].lenght > 1){	//if more than 1 char to write
     d42:	84 e1       	ldi	r24, 0x14	; 20
     d44:	84 9f       	mul	r24, r20
     d46:	f0 01       	movw	r30, r0
     d48:	85 9f       	mul	r24, r21
     d4a:	f0 0d       	add	r31, r0
     d4c:	11 24       	eor	r1, r1
     d4e:	e3 59       	subi	r30, 0x93	; 147
     d50:	fe 4f       	sbci	r31, 0xFE	; 254
     d52:	87 85       	ldd	r24, Z+15	; 0x0f
     d54:	82 30       	cpi	r24, 0x02	; 2
     d56:	e8 f0       	brcs	.+58     	; 0xd92 <__vector_24+0x39c>
				TWI_write(twi_bufor[twi_buf_pos.tail].bufor[0]);
     d58:	84 e1       	ldi	r24, 0x14	; 20
     d5a:	84 9f       	mul	r24, r20
     d5c:	f0 01       	movw	r30, r0
     d5e:	85 9f       	mul	r24, r21
     d60:	f0 0d       	add	r31, r0
     d62:	11 24       	eor	r1, r1
     d64:	e3 59       	subi	r30, 0x93	; 147
     d66:	fe 4f       	sbci	r31, 0xFE	; 254
     d68:	92 81       	ldd	r25, Z+2	; 0x02
void TWI_stop(void) {
	TWCR0 = (1<<TWINT)|(1<<TWEN)|(1<<TWSTO)|(1<<TWIE);
}

void TWI_write(uint8_t bajt) {
	TWDR0 = bajt;
     d6a:	90 93 bb 00 	sts	0x00BB, r25	; 0x8000bb <__TEXT_REGION_LENGTH__+0x7e00bb>
	TWCR0 = (1<<TWINT)|(1<<TWEN)|(1<<TWIE);
     d6e:	95 e8       	ldi	r25, 0x85	; 133
     d70:	90 93 bc 00 	sts	0x00BC, r25	; 0x8000bc <__TEXT_REGION_LENGTH__+0x7e00bc>
			break;

		case write:
			if (twi_bufor[twi_buf_pos.tail].lenght > 1){	//if more than 1 char to write
				TWI_write(twi_bufor[twi_buf_pos.tail].bufor[0]);
				twi_bufor[twi_buf_pos.tail].status = write;
     d74:	e0 91 6c 01 	lds	r30, 0x016C	; 0x80016c <twi_buf_pos>
     d78:	e6 95       	lsr	r30
     d7a:	e6 95       	lsr	r30
     d7c:	e6 95       	lsr	r30
     d7e:	e7 70       	andi	r30, 0x07	; 7
     d80:	8e 9f       	mul	r24, r30
     d82:	f0 01       	movw	r30, r0
     d84:	11 24       	eor	r1, r1
     d86:	e3 59       	subi	r30, 0x93	; 147
     d88:	fe 4f       	sbci	r31, 0xFE	; 254
     d8a:	8b e0       	ldi	r24, 0x0B	; 11
     d8c:	83 8b       	std	Z+19, r24	; 0x13
				twi_bufor[twi_buf_pos.tail].buf_pos = 0;
     d8e:	14 86       	std	Z+12, r1	; 0x0c
     d90:	1b c0       	rjmp	.+54     	; 0xdc8 <__vector_24+0x3d2>
			}

			else {	//only 1 byte to send
				TWI_write(twi_bufor[twi_buf_pos.tail].bufor[0]);
     d92:	84 e1       	ldi	r24, 0x14	; 20
     d94:	84 9f       	mul	r24, r20
     d96:	f0 01       	movw	r30, r0
     d98:	85 9f       	mul	r24, r21
     d9a:	f0 0d       	add	r31, r0
     d9c:	11 24       	eor	r1, r1
     d9e:	e3 59       	subi	r30, 0x93	; 147
     da0:	fe 4f       	sbci	r31, 0xFE	; 254
     da2:	92 81       	ldd	r25, Z+2	; 0x02
void TWI_stop(void) {
	TWCR0 = (1<<TWINT)|(1<<TWEN)|(1<<TWSTO)|(1<<TWIE);
}

void TWI_write(uint8_t bajt) {
	TWDR0 = bajt;
     da4:	90 93 bb 00 	sts	0x00BB, r25	; 0x8000bb <__TEXT_REGION_LENGTH__+0x7e00bb>
	TWCR0 = (1<<TWINT)|(1<<TWEN)|(1<<TWIE);
     da8:	95 e8       	ldi	r25, 0x85	; 133
     daa:	90 93 bc 00 	sts	0x00BC, r25	; 0x8000bc <__TEXT_REGION_LENGTH__+0x7e00bc>
				twi_bufor[twi_buf_pos.tail].buf_pos = 0;
			}

			else {	//only 1 byte to send
				TWI_write(twi_bufor[twi_buf_pos.tail].bufor[0]);
				twi_bufor[twi_buf_pos.tail].status = last_byte_write;
     dae:	e0 91 6c 01 	lds	r30, 0x016C	; 0x80016c <twi_buf_pos>
     db2:	e6 95       	lsr	r30
     db4:	e6 95       	lsr	r30
     db6:	e6 95       	lsr	r30
     db8:	e7 70       	andi	r30, 0x07	; 7
     dba:	8e 9f       	mul	r24, r30
     dbc:	f0 01       	movw	r30, r0
     dbe:	11 24       	eor	r1, r1
     dc0:	e3 59       	subi	r30, 0x93	; 147
     dc2:	fe 4f       	sbci	r31, 0xFE	; 254
     dc4:	8c e0       	ldi	r24, 0x0C	; 12
     dc6:	83 8b       	std	Z+19, r24	; 0x13
			}
			twi_bufor[twi_buf_pos.tail].lenght --;
     dc8:	e0 91 6c 01 	lds	r30, 0x016C	; 0x80016c <twi_buf_pos>
     dcc:	e6 95       	lsr	r30
     dce:	e6 95       	lsr	r30
     dd0:	e6 95       	lsr	r30
     dd2:	e7 70       	andi	r30, 0x07	; 7
     dd4:	84 e1       	ldi	r24, 0x14	; 20
     dd6:	e8 9f       	mul	r30, r24
     dd8:	f0 01       	movw	r30, r0
     dda:	11 24       	eor	r1, r1
     ddc:	e3 59       	subi	r30, 0x93	; 147
     dde:	fe 4f       	sbci	r31, 0xFE	; 254
     de0:	87 85       	ldd	r24, Z+15	; 0x0f
     de2:	81 50       	subi	r24, 0x01	; 1
     de4:	87 87       	std	Z+15, r24	; 0x0f
			break;
     de6:	14 c0       	rjmp	.+40     	; 0xe10 <__vector_24+0x41a>
void TWI_start(void) {
	TWCR0 = (1<<TWINT)|(1<<TWEN)|(1<<TWSTA)|(1<<TWIE);
}

void TWI_stop(void) {
	TWCR0 = (1<<TWINT)|(1<<TWEN)|(1<<TWSTO)|(1<<TWIE);
     de8:	85 e9       	ldi	r24, 0x95	; 149
     dea:	80 93 bc 00 	sts	0x00BC, r24	; 0x8000bc <__TEXT_REGION_LENGTH__+0x7e00bc>
			twi_bufor[twi_buf_pos.tail].lenght --;
			break;

		case last_byte_write:
			TWI_stop();
			twi_bufor[twi_buf_pos.tail].status = done;
     dee:	e0 91 6c 01 	lds	r30, 0x016C	; 0x80016c <twi_buf_pos>
     df2:	e6 95       	lsr	r30
     df4:	e6 95       	lsr	r30
     df6:	e6 95       	lsr	r30
     df8:	e7 70       	andi	r30, 0x07	; 7
     dfa:	84 e1       	ldi	r24, 0x14	; 20
     dfc:	e8 9f       	mul	r30, r24
     dfe:	f0 01       	movw	r30, r0
     e00:	11 24       	eor	r1, r1
     e02:	e3 59       	subi	r30, 0x93	; 147
     e04:	fe 4f       	sbci	r31, 0xFE	; 254
     e06:	81 e0       	ldi	r24, 0x01	; 1
     e08:	83 8b       	std	Z+19, r24	; 0x13
			twi_reset_counter = 0xFF;	//turn of timer, sending procedure finished correctly
     e0a:	8f ef       	ldi	r24, 0xFF	; 255
     e0c:	80 93 69 01 	sts	0x0169, r24	; 0x800169 <twi_reset_counter>

		default:

			break;
	}
     e10:	ff 91       	pop	r31
     e12:	ef 91       	pop	r30
     e14:	bf 91       	pop	r27
     e16:	af 91       	pop	r26
     e18:	9f 91       	pop	r25
     e1a:	8f 91       	pop	r24
     e1c:	5f 91       	pop	r21
     e1e:	4f 91       	pop	r20
     e20:	3f 91       	pop	r19
     e22:	2f 91       	pop	r18
     e24:	0f 90       	pop	r0
     e26:	0f be       	out	0x3f, r0	; 63
     e28:	0f 90       	pop	r0
     e2a:	1f 90       	pop	r1
     e2c:	18 95       	reti

00000e2e <InitUartCOM>:
	}
}

void SendChar(char x)
{
	PutCharToBuffor(x);
     e2e:	0e 94 3f 09 	call	0x127e	; 0x127e <InitUartCOM_HW>
     e32:	08 95       	ret

00000e34 <ReceiveChar>:
     e34:	88 23       	and	r24, r24
     e36:	91 f0       	breq	.+36     	; 0xe5c <ReceiveChar+0x28>
     e38:	8a 30       	cpi	r24, 0x0A	; 10
     e3a:	81 f0       	breq	.+32     	; 0xe5c <ReceiveChar+0x28>
     e3c:	e0 91 66 01 	lds	r30, 0x0166	; 0x800166 <RxHead>
     e40:	f0 e0       	ldi	r31, 0x00	; 0
     e42:	e3 5f       	subi	r30, 0xF3	; 243
     e44:	fd 4f       	sbci	r31, 0xFD	; 253
     e46:	80 83       	st	Z, r24
     e48:	80 91 66 01 	lds	r24, 0x0166	; 0x800166 <RxHead>
     e4c:	8f 5f       	subi	r24, 0xFF	; 255
     e4e:	8f 71       	andi	r24, 0x1F	; 31
     e50:	80 93 66 01 	sts	0x0166, r24	; 0x800166 <RxHead>
     e54:	80 91 66 01 	lds	r24, 0x0166	; 0x800166 <RxHead>
     e58:	80 91 67 01 	lds	r24, 0x0167	; 0x800167 <RxTail>
     e5c:	08 95       	ret

00000e5e <SendString>:
}

void SendString(char string[])
{
     e5e:	0f 93       	push	r16
     e60:	1f 93       	push	r17
     e62:	cf 93       	push	r28
     e64:	fc 01       	movw	r30, r24
	uint8_t i=0;

	while (string[i] != 0)
     e66:	80 81       	ld	r24, Z
     e68:	88 23       	and	r24, r24
     e6a:	59 f0       	breq	.+22     	; 0xe82 <SendString+0x24>
     e6c:	8f 01       	movw	r16, r30
     e6e:	c0 e0       	ldi	r28, 0x00	; 0
	}
}

void SendChar(char x)
{
	PutCharToBuffor(x);
     e70:	0e 94 49 09 	call	0x1292	; 0x1292 <PutCharToBuffor>
	uint8_t i=0;

	while (string[i] != 0)
	{
		SendChar(string[i]);
		i++;
     e74:	cf 5f       	subi	r28, 0xFF	; 255

void SendString(char string[])
{
	uint8_t i=0;

	while (string[i] != 0)
     e76:	f8 01       	movw	r30, r16
     e78:	ec 0f       	add	r30, r28
     e7a:	f1 1d       	adc	r31, r1
     e7c:	80 81       	ld	r24, Z
     e7e:	81 11       	cpse	r24, r1
     e80:	f7 cf       	rjmp	.-18     	; 0xe70 <SendString+0x12>
	{
		SendChar(string[i]);
		i++;
	}
}
     e82:	cf 91       	pop	r28
     e84:	1f 91       	pop	r17
     e86:	0f 91       	pop	r16
     e88:	08 95       	ret

00000e8a <SendEnter>:
	}
}

void SendChar(char x)
{
	PutCharToBuffor(x);
     e8a:	8d e0       	ldi	r24, 0x0D	; 13
     e8c:	0e 94 49 09 	call	0x1292	; 0x1292 <PutCharToBuffor>
     e90:	8a e0       	ldi	r24, 0x0A	; 10
     e92:	0e 94 49 09 	call	0x1292	; 0x1292 <PutCharToBuffor>
     e96:	08 95       	ret

00000e98 <SendLine>:
	}
}

void SendLine(char string[])
{
	SendString(string);
     e98:	0e 94 2f 07 	call	0xe5e	; 0xe5e <SendString>
	//End of line:
	SendEnter();
     e9c:	0e 94 45 07 	call	0xe8a	; 0xe8a <SendEnter>
     ea0:	08 95       	ret

00000ea2 <SendInt>:
	SendChar(13);
	SendChar(10);
}

void SendInt(int32_t number)
{
     ea2:	4f 92       	push	r4
     ea4:	5f 92       	push	r5
     ea6:	6f 92       	push	r6
     ea8:	7f 92       	push	r7
     eaa:	8f 92       	push	r8
     eac:	9f 92       	push	r9
     eae:	af 92       	push	r10
     eb0:	bf 92       	push	r11
     eb2:	cf 92       	push	r12
     eb4:	df 92       	push	r13
     eb6:	ef 92       	push	r14
     eb8:	ff 92       	push	r15
     eba:	0f 93       	push	r16
     ebc:	1f 93       	push	r17
     ebe:	cf 93       	push	r28
     ec0:	df 93       	push	r29
     ec2:	cd b7       	in	r28, 0x3d	; 61
     ec4:	de b7       	in	r29, 0x3e	; 62
     ec6:	a8 97       	sbiw	r28, 0x28	; 40
     ec8:	0f b6       	in	r0, 0x3f	; 63
     eca:	f8 94       	cli
     ecc:	de bf       	out	0x3e, r29	; 62
     ece:	0f be       	out	0x3f, r0	; 63
     ed0:	cd bf       	out	0x3d, r28	; 61
     ed2:	6b 01       	movw	r12, r22
     ed4:	7c 01       	movw	r14, r24
     ed6:	fe 01       	movw	r30, r28
     ed8:	75 96       	adiw	r30, 0x15	; 21
     eda:	8e 01       	movw	r16, r28
     edc:	0f 5f       	subi	r16, 0xFF	; 255
     ede:	1f 4f       	sbci	r17, 0xFF	; 255
     ee0:	ce 01       	movw	r24, r28
     ee2:	4d 96       	adiw	r24, 0x1d	; 29
     ee4:	d8 01       	movw	r26, r16
	uint8_t pozycja = 0;
	uint8_t mnoznik = 10;
	
	for (uint8_t i=0; i<8; i++)	//zmienna tablicowa lokalna, trzeba wyzerowaæ wartoœci
	{
		reverse[i] = 0;
     ee6:	11 92       	st	Z+, r1
		string[i] = 0;
     ee8:	1d 92       	st	X+, r1
	char reverse[20];	//int16 = 6 cyfr + znak + 0
	int8_t znak = 1;
	uint8_t pozycja = 0;
	uint8_t mnoznik = 10;
	
	for (uint8_t i=0; i<8; i++)	//zmienna tablicowa lokalna, trzeba wyzerowaæ wartoœci
     eea:	e8 17       	cp	r30, r24
     eec:	f9 07       	cpc	r31, r25
     eee:	d9 f7       	brne	.-10     	; 0xee6 <SendInt+0x44>
	{
		reverse[i] = 0;
		string[i] = 0;
	}
	
	if (number<0) znak = -1;
     ef0:	ff 20       	and	r15, r15
     ef2:	0c f0       	brlt	.+2      	; 0xef6 <SendInt+0x54>
     ef4:	5d c0       	rjmp	.+186    	; 0xfb0 <SendInt+0x10e>
     ef6:	81 c0       	rjmp	.+258    	; 0xffa <SendInt+0x158>
     ef8:	5e 01       	movw	r10, r28
     efa:	26 e1       	ldi	r18, 0x16	; 22
     efc:	a2 0e       	add	r10, r18
     efe:	b1 1c       	adc	r11, r1
	
	number = number * znak;
	
	for (uint8_t i=0; i<20; i++)
     f00:	99 24       	eor	r9, r9
     f02:	93 94       	inc	r9
	{
		reverse[i] = number % mnoznik + 48;
     f04:	0f 2e       	mov	r0, r31
     f06:	fa e0       	ldi	r31, 0x0A	; 10
     f08:	4f 2e       	mov	r4, r31
     f0a:	51 2c       	mov	r5, r1
     f0c:	61 2c       	mov	r6, r1
     f0e:	71 2c       	mov	r7, r1
     f10:	f0 2d       	mov	r31, r0
     f12:	01 c0       	rjmp	.+2      	; 0xf16 <SendInt+0x74>
	
	if (number<0) znak = -1;
	
	number = number * znak;
	
	for (uint8_t i=0; i<20; i++)
     f14:	98 2e       	mov	r9, r24
	{
		reverse[i] = number % mnoznik + 48;
     f16:	c7 01       	movw	r24, r14
     f18:	b6 01       	movw	r22, r12
     f1a:	a3 01       	movw	r20, r6
     f1c:	92 01       	movw	r18, r4
     f1e:	0e 94 b2 09 	call	0x1364	; 0x1364 <__divmodsi4>
     f22:	20 e3       	ldi	r18, 0x30	; 48
     f24:	26 0f       	add	r18, r22
     f26:	d5 01       	movw	r26, r10
     f28:	2d 93       	st	X+, r18
     f2a:	5d 01       	movw	r10, r26
		number = number - number % mnoznik;
     f2c:	a7 01       	movw	r20, r14
     f2e:	96 01       	movw	r18, r12
     f30:	26 1b       	sub	r18, r22
     f32:	37 0b       	sbc	r19, r23
     f34:	48 0b       	sbc	r20, r24
     f36:	59 0b       	sbc	r21, r25
     f38:	ca 01       	movw	r24, r20
     f3a:	b9 01       	movw	r22, r18
		number = number / 10;
     f3c:	a3 01       	movw	r20, r6
     f3e:	92 01       	movw	r18, r4
     f40:	0e 94 b2 09 	call	0x1364	; 0x1364 <__divmodsi4>
     f44:	69 01       	movw	r12, r18
     f46:	7a 01       	movw	r14, r20
		pozycja = i;
		if (number == 0) break;
     f48:	23 2b       	or	r18, r19
     f4a:	24 2b       	or	r18, r20
     f4c:	25 2b       	or	r18, r21
     f4e:	21 f0       	breq	.+8      	; 0xf58 <SendInt+0xb6>
	
	if (number<0) znak = -1;
	
	number = number * znak;
	
	for (uint8_t i=0; i<20; i++)
     f50:	81 e0       	ldi	r24, 0x01	; 1
     f52:	89 0d       	add	r24, r9
     f54:	84 31       	cpi	r24, 0x14	; 20
     f56:	f1 f6       	brne	.-68     	; 0xf14 <SendInt+0x72>
		number = number / 10;
		pozycja = i;
		if (number == 0) break;
	}
	
	pozycja++;
     f58:	21 e0       	ldi	r18, 0x01	; 1
     f5a:	29 0d       	add	r18, r9
	
	if (znak<0)
     f5c:	88 20       	and	r8, r8
     f5e:	54 f4       	brge	.+20     	; 0xf74 <SendInt+0xd2>
     f60:	02 c0       	rjmp	.+4      	; 0xf66 <SendInt+0xc4>
		number = number / 10;
		pozycja = i;
		if (number == 0) break;
	}
	
	pozycja++;
     f62:	21 e0       	ldi	r18, 0x01	; 1
	
	if (number<0) znak = -1;
	
	number = number * znak;
	
	for (uint8_t i=0; i<20; i++)
     f64:	91 2c       	mov	r9, r1
	
	pozycja++;
	
	if (znak<0)
	{
		reverse[pozycja] = 45;
     f66:	fe 01       	movw	r30, r28
     f68:	e2 0f       	add	r30, r18
     f6a:	f1 1d       	adc	r31, r1
     f6c:	8d e2       	ldi	r24, 0x2D	; 45
     f6e:	85 8b       	std	Z+21, r24	; 0x15
		pozycja++;
     f70:	22 e0       	ldi	r18, 0x02	; 2
     f72:	29 0d       	add	r18, r9
	}
	
	for (uint8_t i=0; i<pozycja; i++)
     f74:	21 11       	cpse	r18, r1
     f76:	02 c0       	rjmp	.+4      	; 0xf7c <SendInt+0xda>
     f78:	0f c0       	rjmp	.+30     	; 0xf98 <SendInt+0xf6>
		number = number / 10;
		pozycja = i;
		if (number == 0) break;
	}
	
	pozycja++;
     f7a:	21 e0       	ldi	r18, 0x01	; 1
     f7c:	e5 e1       	ldi	r30, 0x15	; 21
     f7e:	f0 e0       	ldi	r31, 0x00	; 0
     f80:	ec 0f       	add	r30, r28
     f82:	fd 1f       	adc	r31, r29
     f84:	e2 0f       	add	r30, r18
     f86:	f1 1d       	adc	r31, r1
     f88:	80 e0       	ldi	r24, 0x00	; 0
		pozycja++;
	}
	
	for (uint8_t i=0; i<pozycja; i++)
	{
		string[i] = reverse[pozycja-1-i];
     f8a:	92 91       	ld	r25, -Z
     f8c:	d8 01       	movw	r26, r16
     f8e:	9d 93       	st	X+, r25
     f90:	8d 01       	movw	r16, r26
	{
		reverse[pozycja] = 45;
		pozycja++;
	}
	
	for (uint8_t i=0; i<pozycja; i++)
     f92:	8f 5f       	subi	r24, 0xFF	; 255
     f94:	82 17       	cp	r24, r18
     f96:	c8 f3       	brcs	.-14     	; 0xf8a <SendInt+0xe8>
	{
		string[i] = reverse[pozycja-1-i];
	}
	string[pozycja] = 0;
     f98:	e1 e0       	ldi	r30, 0x01	; 1
     f9a:	f0 e0       	ldi	r31, 0x00	; 0
     f9c:	ec 0f       	add	r30, r28
     f9e:	fd 1f       	adc	r31, r29
     fa0:	e2 0f       	add	r30, r18
     fa2:	f1 1d       	adc	r31, r1
     fa4:	10 82       	st	Z, r1
	SendString(string);
     fa6:	ce 01       	movw	r24, r28
     fa8:	01 96       	adiw	r24, 0x01	; 1
     faa:	0e 94 2f 07 	call	0xe5e	; 0xe5e <SendString>
}
     fae:	53 c0       	rjmp	.+166    	; 0x1056 <SendInt+0x1b4>
	
	number = number * znak;
	
	for (uint8_t i=0; i<20; i++)
	{
		reverse[i] = number % mnoznik + 48;
     fb0:	0f 2e       	mov	r0, r31
     fb2:	fa e0       	ldi	r31, 0x0A	; 10
     fb4:	8f 2e       	mov	r8, r31
     fb6:	91 2c       	mov	r9, r1
     fb8:	a1 2c       	mov	r10, r1
     fba:	b1 2c       	mov	r11, r1
     fbc:	f0 2d       	mov	r31, r0
     fbe:	c7 01       	movw	r24, r14
     fc0:	b6 01       	movw	r22, r12
     fc2:	a5 01       	movw	r20, r10
     fc4:	94 01       	movw	r18, r8
     fc6:	0e 94 b2 09 	call	0x1364	; 0x1364 <__divmodsi4>
     fca:	20 e3       	ldi	r18, 0x30	; 48
     fcc:	26 0f       	add	r18, r22
     fce:	2d 8b       	std	Y+21, r18	; 0x15
		number = number - number % mnoznik;
     fd0:	a7 01       	movw	r20, r14
     fd2:	96 01       	movw	r18, r12
     fd4:	26 1b       	sub	r18, r22
     fd6:	37 0b       	sbc	r19, r23
     fd8:	48 0b       	sbc	r20, r24
     fda:	59 0b       	sbc	r21, r25
     fdc:	ca 01       	movw	r24, r20
     fde:	b9 01       	movw	r22, r18
		number = number / 10;
     fe0:	a5 01       	movw	r20, r10
     fe2:	94 01       	movw	r18, r8
     fe4:	0e 94 b2 09 	call	0x1364	; 0x1364 <__divmodsi4>
     fe8:	69 01       	movw	r12, r18
     fea:	7a 01       	movw	r14, r20
		pozycja = i;
		if (number == 0) break;
     fec:	23 2b       	or	r18, r19
     fee:	24 2b       	or	r18, r20
     ff0:	25 2b       	or	r18, r21
     ff2:	19 f2       	breq	.-122    	; 0xf7a <SendInt+0xd8>

void SendInt(int32_t number)
{
	char string[20];
	char reverse[20];	//int16 = 6 cyfr + znak + 0
	int8_t znak = 1;
     ff4:	88 24       	eor	r8, r8
     ff6:	83 94       	inc	r8
     ff8:	7f cf       	rjmp	.-258    	; 0xef8 <SendInt+0x56>
		string[i] = 0;
	}
	
	if (number<0) znak = -1;
	
	number = number * znak;
     ffa:	f0 94       	com	r15
     ffc:	e0 94       	com	r14
     ffe:	d0 94       	com	r13
    1000:	c0 94       	com	r12
    1002:	c1 1c       	adc	r12, r1
    1004:	d1 1c       	adc	r13, r1
    1006:	e1 1c       	adc	r14, r1
    1008:	f1 1c       	adc	r15, r1
	
	for (uint8_t i=0; i<20; i++)
	{
		reverse[i] = number % mnoznik + 48;
    100a:	0f 2e       	mov	r0, r31
    100c:	fa e0       	ldi	r31, 0x0A	; 10
    100e:	8f 2e       	mov	r8, r31
    1010:	91 2c       	mov	r9, r1
    1012:	a1 2c       	mov	r10, r1
    1014:	b1 2c       	mov	r11, r1
    1016:	f0 2d       	mov	r31, r0
    1018:	c7 01       	movw	r24, r14
    101a:	b6 01       	movw	r22, r12
    101c:	a5 01       	movw	r20, r10
    101e:	94 01       	movw	r18, r8
    1020:	0e 94 b2 09 	call	0x1364	; 0x1364 <__divmodsi4>
    1024:	20 e3       	ldi	r18, 0x30	; 48
    1026:	26 0f       	add	r18, r22
    1028:	2d 8b       	std	Y+21, r18	; 0x15
		number = number - number % mnoznik;
    102a:	a7 01       	movw	r20, r14
    102c:	96 01       	movw	r18, r12
    102e:	26 1b       	sub	r18, r22
    1030:	37 0b       	sbc	r19, r23
    1032:	48 0b       	sbc	r20, r24
    1034:	59 0b       	sbc	r21, r25
    1036:	ca 01       	movw	r24, r20
    1038:	b9 01       	movw	r22, r18
		number = number / 10;
    103a:	a5 01       	movw	r20, r10
    103c:	94 01       	movw	r18, r8
    103e:	0e 94 b2 09 	call	0x1364	; 0x1364 <__divmodsi4>
    1042:	69 01       	movw	r12, r18
    1044:	7a 01       	movw	r14, r20
		pozycja = i;
		if (number == 0) break;
    1046:	23 2b       	or	r18, r19
    1048:	24 2b       	or	r18, r20
    104a:	25 2b       	or	r18, r21
    104c:	09 f4       	brne	.+2      	; 0x1050 <SendInt+0x1ae>
    104e:	89 cf       	rjmp	.-238    	; 0xf62 <SendInt+0xc0>
	{
		reverse[i] = 0;
		string[i] = 0;
	}
	
	if (number<0) znak = -1;
    1050:	88 24       	eor	r8, r8
    1052:	8a 94       	dec	r8
    1054:	51 cf       	rjmp	.-350    	; 0xef8 <SendInt+0x56>
	{
		string[i] = reverse[pozycja-1-i];
	}
	string[pozycja] = 0;
	SendString(string);
}
    1056:	a8 96       	adiw	r28, 0x28	; 40
    1058:	0f b6       	in	r0, 0x3f	; 63
    105a:	f8 94       	cli
    105c:	de bf       	out	0x3e, r29	; 62
    105e:	0f be       	out	0x3f, r0	; 63
    1060:	cd bf       	out	0x3d, r28	; 61
    1062:	df 91       	pop	r29
    1064:	cf 91       	pop	r28
    1066:	1f 91       	pop	r17
    1068:	0f 91       	pop	r16
    106a:	ff 90       	pop	r15
    106c:	ef 90       	pop	r14
    106e:	df 90       	pop	r13
    1070:	cf 90       	pop	r12
    1072:	bf 90       	pop	r11
    1074:	af 90       	pop	r10
    1076:	9f 90       	pop	r9
    1078:	8f 90       	pop	r8
    107a:	7f 90       	pop	r7
    107c:	6f 90       	pop	r6
    107e:	5f 90       	pop	r5
    1080:	4f 90       	pop	r4
    1082:	08 95       	ret

00001084 <SendStringInt>:
	SendUint(number);
	SendEnter();
}

void SendStringInt(char string[], int32_t number)
{
    1084:	cf 92       	push	r12
    1086:	df 92       	push	r13
    1088:	ef 92       	push	r14
    108a:	ff 92       	push	r15
    108c:	6a 01       	movw	r12, r20
    108e:	7b 01       	movw	r14, r22
	SendString(string);
    1090:	0e 94 2f 07 	call	0xe5e	; 0xe5e <SendString>
	SendInt(number);
    1094:	c7 01       	movw	r24, r14
    1096:	b6 01       	movw	r22, r12
    1098:	0e 94 51 07 	call	0xea2	; 0xea2 <SendInt>
	SendEnter();
    109c:	0e 94 45 07 	call	0xe8a	; 0xe8a <SendEnter>
}
    10a0:	ff 90       	pop	r15
    10a2:	ef 90       	pop	r14
    10a4:	df 90       	pop	r13
    10a6:	cf 90       	pop	r12
    10a8:	08 95       	ret

000010aa <SendUint>:
	string[pozycja] = 0;
	SendString(string);
}

void SendUint(uint16_t number)
{
    10aa:	ef 92       	push	r14
    10ac:	ff 92       	push	r15
    10ae:	0f 93       	push	r16
    10b0:	1f 93       	push	r17
    10b2:	cf 93       	push	r28
    10b4:	df 93       	push	r29
    10b6:	cd b7       	in	r28, 0x3d	; 61
    10b8:	de b7       	in	r29, 0x3e	; 62
    10ba:	60 97       	sbiw	r28, 0x10	; 16
    10bc:	0f b6       	in	r0, 0x3f	; 63
    10be:	f8 94       	cli
    10c0:	de bf       	out	0x3e, r29	; 62
    10c2:	0f be       	out	0x3f, r0	; 63
    10c4:	cd bf       	out	0x3d, r28	; 61
    10c6:	ac 01       	movw	r20, r24
    10c8:	fe 01       	movw	r30, r28
    10ca:	39 96       	adiw	r30, 0x09	; 9
    10cc:	8e 01       	movw	r16, r28
    10ce:	0f 5f       	subi	r16, 0xFF	; 255
    10d0:	1f 4f       	sbci	r17, 0xFF	; 255
    10d2:	ce 01       	movw	r24, r28
    10d4:	41 96       	adiw	r24, 0x11	; 17
    10d6:	d8 01       	movw	r26, r16
		uint8_t pozycja = 0;
		uint8_t mnoznik = 10;
		
		for (uint8_t i=0; i<8; i++)	//zmienna tablicowa lokalna, trzeba wyzerowaæ wartoœci
		{
			reverse[i] = 0;
    10d8:	11 92       	st	Z+, r1
			string[i] = 0;
    10da:	1d 92       	st	X+, r1
		char string[8];
		char reverse[8];	//int16 = 6 cyfr + znak + 0
		uint8_t pozycja = 0;
		uint8_t mnoznik = 10;
		
		for (uint8_t i=0; i<8; i++)	//zmienna tablicowa lokalna, trzeba wyzerowaæ wartoœci
    10dc:	e8 17       	cp	r30, r24
    10de:	f9 07       	cpc	r31, r25
    10e0:	d9 f7       	brne	.-10     	; 0x10d8 <SendUint+0x2e>
		}
		
		
		for (uint8_t i=0; i<8; i++)
		{
			reverse[i] = number % mnoznik + 48;
    10e2:	9a 01       	movw	r18, r20
    10e4:	ad ec       	ldi	r26, 0xCD	; 205
    10e6:	bc ec       	ldi	r27, 0xCC	; 204
    10e8:	0e 94 d7 09 	call	0x13ae	; 0x13ae <__umulhisi3>
    10ec:	96 95       	lsr	r25
    10ee:	87 95       	ror	r24
    10f0:	96 95       	lsr	r25
    10f2:	87 95       	ror	r24
    10f4:	96 95       	lsr	r25
    10f6:	87 95       	ror	r24
    10f8:	9c 01       	movw	r18, r24
    10fa:	22 0f       	add	r18, r18
    10fc:	33 1f       	adc	r19, r19
    10fe:	88 0f       	add	r24, r24
    1100:	99 1f       	adc	r25, r25
    1102:	88 0f       	add	r24, r24
    1104:	99 1f       	adc	r25, r25
    1106:	88 0f       	add	r24, r24
    1108:	99 1f       	adc	r25, r25
    110a:	82 0f       	add	r24, r18
    110c:	93 1f       	adc	r25, r19
    110e:	9a 01       	movw	r18, r20
    1110:	28 1b       	sub	r18, r24
    1112:	39 0b       	sbc	r19, r25
    1114:	c9 01       	movw	r24, r18
    1116:	20 e3       	ldi	r18, 0x30	; 48
    1118:	28 0f       	add	r18, r24
    111a:	29 87       	std	Y+9, r18	; 0x09
			number = number - number % mnoznik;
    111c:	9a 01       	movw	r18, r20
    111e:	28 1b       	sub	r18, r24
    1120:	39 0b       	sbc	r19, r25
			number = number / 10;
    1122:	0e 94 d7 09 	call	0x13ae	; 0x13ae <__umulhisi3>
    1126:	ac 01       	movw	r20, r24
    1128:	56 95       	lsr	r21
    112a:	47 95       	ror	r20
    112c:	56 95       	lsr	r21
    112e:	47 95       	ror	r20
    1130:	56 95       	lsr	r21
    1132:	47 95       	ror	r20
			pozycja = i;
			if (number == 0) break;
    1134:	41 15       	cp	r20, r1
    1136:	51 05       	cpc	r21, r1
    1138:	09 f4       	brne	.+2      	; 0x113c <SendUint+0x92>
    113a:	3f c0       	rjmp	.+126    	; 0x11ba <SendUint+0x110>
    113c:	7e 01       	movw	r14, r28
    113e:	3a e0       	ldi	r19, 0x0A	; 10
    1140:	e3 0e       	add	r14, r19
    1142:	f1 1c       	adc	r15, r1
			reverse[i] = 0;
			string[i] = 0;
		}
		
		
		for (uint8_t i=0; i<8; i++)
    1144:	e1 e0       	ldi	r30, 0x01	; 1
    1146:	01 c0       	rjmp	.+2      	; 0x114a <SendUint+0xa0>
    1148:	e8 2f       	mov	r30, r24
		{
			reverse[i] = number % mnoznik + 48;
    114a:	9a 01       	movw	r18, r20
    114c:	ad ec       	ldi	r26, 0xCD	; 205
    114e:	bc ec       	ldi	r27, 0xCC	; 204
    1150:	0e 94 d7 09 	call	0x13ae	; 0x13ae <__umulhisi3>
    1154:	96 95       	lsr	r25
    1156:	87 95       	ror	r24
    1158:	96 95       	lsr	r25
    115a:	87 95       	ror	r24
    115c:	96 95       	lsr	r25
    115e:	87 95       	ror	r24
    1160:	9c 01       	movw	r18, r24
    1162:	22 0f       	add	r18, r18
    1164:	33 1f       	adc	r19, r19
    1166:	88 0f       	add	r24, r24
    1168:	99 1f       	adc	r25, r25
    116a:	88 0f       	add	r24, r24
    116c:	99 1f       	adc	r25, r25
    116e:	88 0f       	add	r24, r24
    1170:	99 1f       	adc	r25, r25
    1172:	82 0f       	add	r24, r18
    1174:	93 1f       	adc	r25, r19
    1176:	da 01       	movw	r26, r20
    1178:	a8 1b       	sub	r26, r24
    117a:	b9 0b       	sbc	r27, r25
    117c:	cd 01       	movw	r24, r26
    117e:	20 e3       	ldi	r18, 0x30	; 48
    1180:	2a 0f       	add	r18, r26
    1182:	d7 01       	movw	r26, r14
    1184:	2d 93       	st	X+, r18
    1186:	7d 01       	movw	r14, r26
			number = number - number % mnoznik;
    1188:	9a 01       	movw	r18, r20
    118a:	28 1b       	sub	r18, r24
    118c:	39 0b       	sbc	r19, r25
			number = number / 10;
    118e:	ad ec       	ldi	r26, 0xCD	; 205
    1190:	bc ec       	ldi	r27, 0xCC	; 204
    1192:	0e 94 d7 09 	call	0x13ae	; 0x13ae <__umulhisi3>
    1196:	ac 01       	movw	r20, r24
    1198:	56 95       	lsr	r21
    119a:	47 95       	ror	r20
    119c:	56 95       	lsr	r21
    119e:	47 95       	ror	r20
    11a0:	56 95       	lsr	r21
    11a2:	47 95       	ror	r20
			pozycja = i;
			if (number == 0) break;
    11a4:	41 15       	cp	r20, r1
    11a6:	51 05       	cpc	r21, r1
    11a8:	21 f0       	breq	.+8      	; 0x11b2 <SendUint+0x108>
			reverse[i] = 0;
			string[i] = 0;
		}
		
		
		for (uint8_t i=0; i<8; i++)
    11aa:	81 e0       	ldi	r24, 0x01	; 1
    11ac:	8e 0f       	add	r24, r30
    11ae:	88 30       	cpi	r24, 0x08	; 8
    11b0:	59 f6       	brne	.-106    	; 0x1148 <SendUint+0x9e>
			number = number / 10;
			pozycja = i;
			if (number == 0) break;
		}
		
		pozycja++;
    11b2:	91 e0       	ldi	r25, 0x01	; 1
    11b4:	9e 0f       	add	r25, r30
		
		for (uint8_t i=0; i<pozycja; i++)
    11b6:	11 f4       	brne	.+4      	; 0x11bc <SendUint+0x112>
    11b8:	0f c0       	rjmp	.+30     	; 0x11d8 <SendUint+0x12e>
			number = number / 10;
			pozycja = i;
			if (number == 0) break;
		}
		
		pozycja++;
    11ba:	91 e0       	ldi	r25, 0x01	; 1
    11bc:	e9 e0       	ldi	r30, 0x09	; 9
    11be:	f0 e0       	ldi	r31, 0x00	; 0
    11c0:	ec 0f       	add	r30, r28
    11c2:	fd 1f       	adc	r31, r29
    11c4:	e9 0f       	add	r30, r25
    11c6:	f1 1d       	adc	r31, r1
    11c8:	80 e0       	ldi	r24, 0x00	; 0
		
		for (uint8_t i=0; i<pozycja; i++)
		{
			string[i] = reverse[pozycja-1-i];
    11ca:	22 91       	ld	r18, -Z
    11cc:	d8 01       	movw	r26, r16
    11ce:	2d 93       	st	X+, r18
    11d0:	8d 01       	movw	r16, r26
			if (number == 0) break;
		}
		
		pozycja++;
		
		for (uint8_t i=0; i<pozycja; i++)
    11d2:	8f 5f       	subi	r24, 0xFF	; 255
    11d4:	89 17       	cp	r24, r25
    11d6:	c8 f3       	brcs	.-14     	; 0x11ca <SendUint+0x120>
		{
			string[i] = reverse[pozycja-1-i];
		}
		string[pozycja] = 0;
    11d8:	e1 e0       	ldi	r30, 0x01	; 1
    11da:	f0 e0       	ldi	r31, 0x00	; 0
    11dc:	ec 0f       	add	r30, r28
    11de:	fd 1f       	adc	r31, r29
    11e0:	e9 0f       	add	r30, r25
    11e2:	f1 1d       	adc	r31, r1
    11e4:	10 82       	st	Z, r1
		SendString(string);
    11e6:	ce 01       	movw	r24, r28
    11e8:	01 96       	adiw	r24, 0x01	; 1
    11ea:	0e 94 2f 07 	call	0xe5e	; 0xe5e <SendString>
}
    11ee:	60 96       	adiw	r28, 0x10	; 16
    11f0:	0f b6       	in	r0, 0x3f	; 63
    11f2:	f8 94       	cli
    11f4:	de bf       	out	0x3e, r29	; 62
    11f6:	0f be       	out	0x3f, r0	; 63
    11f8:	cd bf       	out	0x3d, r28	; 61
    11fa:	df 91       	pop	r29
    11fc:	cf 91       	pop	r28
    11fe:	1f 91       	pop	r17
    1200:	0f 91       	pop	r16
    1202:	ff 90       	pop	r15
    1204:	ef 90       	pop	r14
    1206:	08 95       	ret

00001208 <SendStringUint>:
	//End of line:
	SendEnter();
}

void SendStringUint(char string[], uint16_t number)
{
    1208:	cf 93       	push	r28
    120a:	df 93       	push	r29
    120c:	eb 01       	movw	r28, r22
	SendString(string);
    120e:	0e 94 2f 07 	call	0xe5e	; 0xe5e <SendString>
	SendUint(number);
    1212:	ce 01       	movw	r24, r28
    1214:	0e 94 55 08 	call	0x10aa	; 0x10aa <SendUint>
	SendEnter();
    1218:	0e 94 45 07 	call	0xe8a	; 0xe8a <SendEnter>
}
    121c:	df 91       	pop	r29
    121e:	cf 91       	pop	r28
    1220:	08 95       	ret

00001222 <CheckRxBuffor>:
		string[pozycja] = 0;
		SendString(string);
}

void CheckRxBuffor(void)
{
    1222:	cf 93       	push	r28
	if (RxHead != RxTail)	//Check if buffer is not empty
    1224:	90 91 66 01 	lds	r25, 0x0166	; 0x800166 <RxHead>
    1228:	80 91 67 01 	lds	r24, 0x0167	; 0x800167 <RxTail>
    122c:	98 17       	cp	r25, r24
    122e:	29 f1       	breq	.+74     	; 0x127a <CheckRxBuffor+0x58>
	{
		uint8_t i = RxTail;
    1230:	c0 91 67 01 	lds	r28, 0x0167	; 0x800167 <RxTail>

		while(i != RxHead)	//search for end of line
    1234:	80 91 66 01 	lds	r24, 0x0166	; 0x800166 <RxHead>
    1238:	c8 17       	cp	r28, r24
    123a:	f9 f0       	breq	.+62     	; 0x127a <CheckRxBuffor+0x58>
		{
			//If end of line process Command
			
			if (RxBuffor[i] == 13)
    123c:	ec 2f       	mov	r30, r28
    123e:	f0 e0       	ldi	r31, 0x00	; 0
    1240:	e3 5f       	subi	r30, 0xF3	; 243
    1242:	fd 4f       	sbci	r31, 0xFD	; 253
    1244:	80 81       	ld	r24, Z
    1246:	8d 30       	cpi	r24, 0x0D	; 13
    1248:	91 f4       	brne	.+36     	; 0x126e <CheckRxBuffor+0x4c>
    124a:	07 c0       	rjmp	.+14     	; 0x125a <CheckRxBuffor+0x38>
    124c:	ec 2f       	mov	r30, r28
    124e:	f0 e0       	ldi	r31, 0x00	; 0
    1250:	e3 5f       	subi	r30, 0xF3	; 243
    1252:	fd 4f       	sbci	r31, 0xFD	; 253
    1254:	80 81       	ld	r24, Z
    1256:	8d 30       	cpi	r24, 0x0D	; 13
    1258:	51 f4       	brne	.+20     	; 0x126e <CheckRxBuffor+0x4c>
			{
				ProcessString(RxTail, i);
    125a:	80 91 67 01 	lds	r24, 0x0167	; 0x800167 <RxTail>
    125e:	6c 2f       	mov	r22, r28
    1260:	0e 94 8b 04 	call	0x916	; 0x916 <ProcessString>
				i = (i+1) & RX_SIZE_BIN;
    1264:	cf 5f       	subi	r28, 0xFF	; 255
    1266:	cf 71       	andi	r28, 0x1F	; 31
				RxTail = i;
    1268:	c0 93 67 01 	sts	0x0167, r28	; 0x800167 <RxTail>
				break;
    126c:	06 c0       	rjmp	.+12     	; 0x127a <CheckRxBuffor+0x58>
			}

			i = (i+1) & RX_SIZE_BIN;
    126e:	cf 5f       	subi	r28, 0xFF	; 255
    1270:	cf 71       	andi	r28, 0x1F	; 31
{
	if (RxHead != RxTail)	//Check if buffer is not empty
	{
		uint8_t i = RxTail;

		while(i != RxHead)	//search for end of line
    1272:	80 91 66 01 	lds	r24, 0x0166	; 0x800166 <RxHead>
    1276:	8c 13       	cpse	r24, r28
    1278:	e9 cf       	rjmp	.-46     	; 0x124c <CheckRxBuffor+0x2a>
			}

			i = (i+1) & RX_SIZE_BIN;
		}
	}
    127a:	cf 91       	pop	r28
    127c:	08 95       	ret

0000127e <InitUartCOM_HW>:


	UBRR0 = 9;	//100k at 16MHz clock

	//Init COM Uart
	UCSR0B = (1<<RXEN0) | (1<<RXCIE0) |
    127e:	83 e0       	ldi	r24, 0x03	; 3
    1280:	90 e0       	ldi	r25, 0x00	; 0
    1282:	90 93 c5 00 	sts	0x00C5, r25	; 0x8000c5 <__TEXT_REGION_LENGTH__+0x7e00c5>
    1286:	80 93 c4 00 	sts	0x00C4, r24	; 0x8000c4 <__TEXT_REGION_LENGTH__+0x7e00c4>
    128a:	88 ed       	ldi	r24, 0xD8	; 216
    128c:	80 93 c1 00 	sts	0x00C1, r24	; 0x8000c1 <__TEXT_REGION_LENGTH__+0x7e00c1>
    1290:	08 95       	ret

00001292 <PutCharToBuffor>:
}


void PutCharToBuffor(uint8_t x)
{
	if ((UCSR0A & (1<<UDRE0)) && (TxHead == TxTail))	//check if can put next char
    1292:	90 91 c0 00 	lds	r25, 0x00C0	; 0x8000c0 <__TEXT_REGION_LENGTH__+0x7e00c0>
    1296:	95 ff       	sbrs	r25, 5
    1298:	09 c0       	rjmp	.+18     	; 0x12ac <PutCharToBuffor+0x1a>
    129a:	20 91 64 01 	lds	r18, 0x0164	; 0x800164 <__data_end>
    129e:	90 91 65 01 	lds	r25, 0x0165	; 0x800165 <TxTail>
    12a2:	29 13       	cpse	r18, r25
    12a4:	03 c0       	rjmp	.+6      	; 0x12ac <PutCharToBuffor+0x1a>
	{
		UDR0 = x;		
    12a6:	80 93 c6 00 	sts	0x00C6, r24	; 0x8000c6 <__TEXT_REGION_LENGTH__+0x7e00c6>
    12aa:	08 95       	ret
	}
	else	//if not ready put char to sending queue
	{
		TxBuffor[TxHead] = x;
    12ac:	e0 91 64 01 	lds	r30, 0x0164	; 0x800164 <__data_end>
    12b0:	f0 e0       	ldi	r31, 0x00	; 0
    12b2:	e3 5d       	subi	r30, 0xD3	; 211
    12b4:	fd 4f       	sbci	r31, 0xFD	; 253
    12b6:	80 83       	st	Z, r24
		TxHead = (TxHead+1) & TX_SIZE_BIN;
    12b8:	80 91 64 01 	lds	r24, 0x0164	; 0x800164 <__data_end>
    12bc:	8f 5f       	subi	r24, 0xFF	; 255
    12be:	8f 77       	andi	r24, 0x7F	; 127
    12c0:	80 93 64 01 	sts	0x0164, r24	; 0x800164 <__data_end>
    12c4:	08 95       	ret

000012c6 <__vector_20>:
	}
}


ISR (USART0_TX_vect)
{
    12c6:	1f 92       	push	r1
    12c8:	0f 92       	push	r0
    12ca:	0f b6       	in	r0, 0x3f	; 63
    12cc:	0f 92       	push	r0
    12ce:	11 24       	eor	r1, r1
    12d0:	8f 93       	push	r24
    12d2:	9f 93       	push	r25
    12d4:	ef 93       	push	r30
    12d6:	ff 93       	push	r31
	if (TxTail == TxHead)
    12d8:	90 91 65 01 	lds	r25, 0x0165	; 0x800165 <TxTail>
    12dc:	80 91 64 01 	lds	r24, 0x0164	; 0x800164 <__data_end>
    12e0:	98 13       	cpse	r25, r24
    12e2:	03 c0       	rjmp	.+6      	; 0x12ea <__vector_20+0x24>
	{
		uint8_t x = UDR0;
    12e4:	80 91 c6 00 	lds	r24, 0x00C6	; 0x8000c6 <__TEXT_REGION_LENGTH__+0x7e00c6>
    12e8:	0e c0       	rjmp	.+28     	; 0x1306 <__vector_20+0x40>
	}

	else
	{
		UDR0 = TxBuffor[TxTail];
    12ea:	e0 91 65 01 	lds	r30, 0x0165	; 0x800165 <TxTail>
    12ee:	f0 e0       	ldi	r31, 0x00	; 0
    12f0:	e3 5d       	subi	r30, 0xD3	; 211
    12f2:	fd 4f       	sbci	r31, 0xFD	; 253
    12f4:	80 81       	ld	r24, Z
    12f6:	80 93 c6 00 	sts	0x00C6, r24	; 0x8000c6 <__TEXT_REGION_LENGTH__+0x7e00c6>
		TxTail = (TxTail+1) & TX_SIZE_BIN;
    12fa:	80 91 65 01 	lds	r24, 0x0165	; 0x800165 <TxTail>
    12fe:	8f 5f       	subi	r24, 0xFF	; 255
    1300:	8f 77       	andi	r24, 0x7F	; 127
    1302:	80 93 65 01 	sts	0x0165, r24	; 0x800165 <TxTail>
	}
}
    1306:	ff 91       	pop	r31
    1308:	ef 91       	pop	r30
    130a:	9f 91       	pop	r25
    130c:	8f 91       	pop	r24
    130e:	0f 90       	pop	r0
    1310:	0f be       	out	0x3f, r0	; 63
    1312:	0f 90       	pop	r0
    1314:	1f 90       	pop	r1
    1316:	18 95       	reti

00001318 <__vector_18>:

ISR (USART0_RX_vect)	//COM Rx
{
    1318:	1f 92       	push	r1
    131a:	0f 92       	push	r0
    131c:	0f b6       	in	r0, 0x3f	; 63
    131e:	0f 92       	push	r0
    1320:	11 24       	eor	r1, r1
    1322:	2f 93       	push	r18
    1324:	3f 93       	push	r19
    1326:	4f 93       	push	r20
    1328:	5f 93       	push	r21
    132a:	6f 93       	push	r22
    132c:	7f 93       	push	r23
    132e:	8f 93       	push	r24
    1330:	9f 93       	push	r25
    1332:	af 93       	push	r26
    1334:	bf 93       	push	r27
    1336:	ef 93       	push	r30
    1338:	ff 93       	push	r31
// 	uint8_t x = UDR0;
// 	ReceiveChar(x);
// 	PutCharToBuffor(x);
	ReceiveChar(UDR0);
    133a:	80 91 c6 00 	lds	r24, 0x00C6	; 0x8000c6 <__TEXT_REGION_LENGTH__+0x7e00c6>
    133e:	0e 94 1a 07 	call	0xe34	; 0xe34 <ReceiveChar>
    1342:	ff 91       	pop	r31
    1344:	ef 91       	pop	r30
    1346:	bf 91       	pop	r27
    1348:	af 91       	pop	r26
    134a:	9f 91       	pop	r25
    134c:	8f 91       	pop	r24
    134e:	7f 91       	pop	r23
    1350:	6f 91       	pop	r22
    1352:	5f 91       	pop	r21
    1354:	4f 91       	pop	r20
    1356:	3f 91       	pop	r19
    1358:	2f 91       	pop	r18
    135a:	0f 90       	pop	r0
    135c:	0f be       	out	0x3f, r0	; 63
    135e:	0f 90       	pop	r0
    1360:	1f 90       	pop	r1
    1362:	18 95       	reti

00001364 <__divmodsi4>:
    1364:	05 2e       	mov	r0, r21
    1366:	97 fb       	bst	r25, 7
    1368:	1e f4       	brtc	.+6      	; 0x1370 <__divmodsi4+0xc>
    136a:	00 94       	com	r0
    136c:	0e 94 c9 09 	call	0x1392	; 0x1392 <__negsi2>
    1370:	57 fd       	sbrc	r21, 7
    1372:	07 d0       	rcall	.+14     	; 0x1382 <__divmodsi4_neg2>
    1374:	0e 94 e6 09 	call	0x13cc	; 0x13cc <__udivmodsi4>
    1378:	07 fc       	sbrc	r0, 7
    137a:	03 d0       	rcall	.+6      	; 0x1382 <__divmodsi4_neg2>
    137c:	4e f4       	brtc	.+18     	; 0x1390 <__divmodsi4_exit>
    137e:	0c 94 c9 09 	jmp	0x1392	; 0x1392 <__negsi2>

00001382 <__divmodsi4_neg2>:
    1382:	50 95       	com	r21
    1384:	40 95       	com	r20
    1386:	30 95       	com	r19
    1388:	21 95       	neg	r18
    138a:	3f 4f       	sbci	r19, 0xFF	; 255
    138c:	4f 4f       	sbci	r20, 0xFF	; 255
    138e:	5f 4f       	sbci	r21, 0xFF	; 255

00001390 <__divmodsi4_exit>:
    1390:	08 95       	ret

00001392 <__negsi2>:
    1392:	90 95       	com	r25
    1394:	80 95       	com	r24
    1396:	70 95       	com	r23
    1398:	61 95       	neg	r22
    139a:	7f 4f       	sbci	r23, 0xFF	; 255
    139c:	8f 4f       	sbci	r24, 0xFF	; 255
    139e:	9f 4f       	sbci	r25, 0xFF	; 255
    13a0:	08 95       	ret

000013a2 <__tablejump2__>:
    13a2:	ee 0f       	add	r30, r30
    13a4:	ff 1f       	adc	r31, r31
    13a6:	05 90       	lpm	r0, Z+
    13a8:	f4 91       	lpm	r31, Z
    13aa:	e0 2d       	mov	r30, r0
    13ac:	09 94       	ijmp

000013ae <__umulhisi3>:
    13ae:	a2 9f       	mul	r26, r18
    13b0:	b0 01       	movw	r22, r0
    13b2:	b3 9f       	mul	r27, r19
    13b4:	c0 01       	movw	r24, r0
    13b6:	a3 9f       	mul	r26, r19
    13b8:	70 0d       	add	r23, r0
    13ba:	81 1d       	adc	r24, r1
    13bc:	11 24       	eor	r1, r1
    13be:	91 1d       	adc	r25, r1
    13c0:	b2 9f       	mul	r27, r18
    13c2:	70 0d       	add	r23, r0
    13c4:	81 1d       	adc	r24, r1
    13c6:	11 24       	eor	r1, r1
    13c8:	91 1d       	adc	r25, r1
    13ca:	08 95       	ret

000013cc <__udivmodsi4>:
    13cc:	a1 e2       	ldi	r26, 0x21	; 33
    13ce:	1a 2e       	mov	r1, r26
    13d0:	aa 1b       	sub	r26, r26
    13d2:	bb 1b       	sub	r27, r27
    13d4:	fd 01       	movw	r30, r26
    13d6:	0d c0       	rjmp	.+26     	; 0x13f2 <__udivmodsi4_ep>

000013d8 <__udivmodsi4_loop>:
    13d8:	aa 1f       	adc	r26, r26
    13da:	bb 1f       	adc	r27, r27
    13dc:	ee 1f       	adc	r30, r30
    13de:	ff 1f       	adc	r31, r31
    13e0:	a2 17       	cp	r26, r18
    13e2:	b3 07       	cpc	r27, r19
    13e4:	e4 07       	cpc	r30, r20
    13e6:	f5 07       	cpc	r31, r21
    13e8:	20 f0       	brcs	.+8      	; 0x13f2 <__udivmodsi4_ep>
    13ea:	a2 1b       	sub	r26, r18
    13ec:	b3 0b       	sbc	r27, r19
    13ee:	e4 0b       	sbc	r30, r20
    13f0:	f5 0b       	sbc	r31, r21

000013f2 <__udivmodsi4_ep>:
    13f2:	66 1f       	adc	r22, r22
    13f4:	77 1f       	adc	r23, r23
    13f6:	88 1f       	adc	r24, r24
    13f8:	99 1f       	adc	r25, r25
    13fa:	1a 94       	dec	r1
    13fc:	69 f7       	brne	.-38     	; 0x13d8 <__udivmodsi4_loop>
    13fe:	60 95       	com	r22
    1400:	70 95       	com	r23
    1402:	80 95       	com	r24
    1404:	90 95       	com	r25
    1406:	9b 01       	movw	r18, r22
    1408:	ac 01       	movw	r20, r24
    140a:	bd 01       	movw	r22, r26
    140c:	cf 01       	movw	r24, r30
    140e:	08 95       	ret

00001410 <__strlen_P>:
    1410:	fc 01       	movw	r30, r24
    1412:	05 90       	lpm	r0, Z+
    1414:	00 20       	and	r0, r0
    1416:	e9 f7       	brne	.-6      	; 0x1412 <__strlen_P+0x2>
    1418:	80 95       	com	r24
    141a:	90 95       	com	r25
    141c:	8e 0f       	add	r24, r30
    141e:	9f 1f       	adc	r25, r31
    1420:	08 95       	ret

00001422 <strncasecmp_P>:
    1422:	fb 01       	movw	r30, r22
    1424:	dc 01       	movw	r26, r24
    1426:	41 50       	subi	r20, 0x01	; 1
    1428:	50 40       	sbci	r21, 0x00	; 0
    142a:	88 f0       	brcs	.+34     	; 0x144e <strncasecmp_P+0x2c>
    142c:	8d 91       	ld	r24, X+
    142e:	81 34       	cpi	r24, 0x41	; 65
    1430:	1c f0       	brlt	.+6      	; 0x1438 <strncasecmp_P+0x16>
    1432:	8b 35       	cpi	r24, 0x5B	; 91
    1434:	0c f4       	brge	.+2      	; 0x1438 <strncasecmp_P+0x16>
    1436:	80 5e       	subi	r24, 0xE0	; 224
    1438:	65 91       	lpm	r22, Z+
    143a:	61 34       	cpi	r22, 0x41	; 65
    143c:	1c f0       	brlt	.+6      	; 0x1444 <strncasecmp_P+0x22>
    143e:	6b 35       	cpi	r22, 0x5B	; 91
    1440:	0c f4       	brge	.+2      	; 0x1444 <strncasecmp_P+0x22>
    1442:	60 5e       	subi	r22, 0xE0	; 224
    1444:	86 1b       	sub	r24, r22
    1446:	61 11       	cpse	r22, r1
    1448:	71 f3       	breq	.-36     	; 0x1426 <strncasecmp_P+0x4>
    144a:	99 0b       	sbc	r25, r25
    144c:	08 95       	ret
    144e:	88 1b       	sub	r24, r24
    1450:	fc cf       	rjmp	.-8      	; 0x144a <strncasecmp_P+0x28>

00001452 <strtok_r>:
    1452:	fa 01       	movw	r30, r20
    1454:	a1 91       	ld	r26, Z+
    1456:	b0 81       	ld	r27, Z
    1458:	00 97       	sbiw	r24, 0x00	; 0
    145a:	19 f4       	brne	.+6      	; 0x1462 <strtok_r+0x10>
    145c:	10 97       	sbiw	r26, 0x00	; 0
    145e:	e1 f0       	breq	.+56     	; 0x1498 <strtok_r+0x46>
    1460:	cd 01       	movw	r24, r26
    1462:	dc 01       	movw	r26, r24
    1464:	cd 01       	movw	r24, r26
    1466:	0d 90       	ld	r0, X+
    1468:	00 20       	and	r0, r0
    146a:	11 f4       	brne	.+4      	; 0x1470 <strtok_r+0x1e>
    146c:	c0 01       	movw	r24, r0
    146e:	13 c0       	rjmp	.+38     	; 0x1496 <strtok_r+0x44>
    1470:	fb 01       	movw	r30, r22
    1472:	21 91       	ld	r18, Z+
    1474:	22 23       	and	r18, r18
    1476:	19 f0       	breq	.+6      	; 0x147e <strtok_r+0x2c>
    1478:	20 15       	cp	r18, r0
    147a:	d9 f7       	brne	.-10     	; 0x1472 <strtok_r+0x20>
    147c:	f3 cf       	rjmp	.-26     	; 0x1464 <strtok_r+0x12>
    147e:	fb 01       	movw	r30, r22
    1480:	21 91       	ld	r18, Z+
    1482:	20 15       	cp	r18, r0
    1484:	19 f4       	brne	.+6      	; 0x148c <strtok_r+0x3a>
    1486:	1e 92       	st	-X, r1
    1488:	11 96       	adiw	r26, 0x01	; 1
    148a:	06 c0       	rjmp	.+12     	; 0x1498 <strtok_r+0x46>
    148c:	22 23       	and	r18, r18
    148e:	c1 f7       	brne	.-16     	; 0x1480 <strtok_r+0x2e>
    1490:	0d 90       	ld	r0, X+
    1492:	00 20       	and	r0, r0
    1494:	a1 f7       	brne	.-24     	; 0x147e <strtok_r+0x2c>
    1496:	d0 01       	movw	r26, r0
    1498:	fa 01       	movw	r30, r20
    149a:	a1 93       	st	Z+, r26
    149c:	b0 83       	st	Z, r27
    149e:	08 95       	ret

000014a0 <_exit>:
    14a0:	f8 94       	cli

000014a2 <__stop_program>:
    14a2:	ff cf       	rjmp	.-2      	; 0x14a2 <__stop_program>
